 ffi_bindings

 Timestamp is 5e6c8b90 (Sat Mar 14 15:45:20 2020)

 Preferred load address is 0000000180000000

 Start         Length     Name                   Class
 0001:00000000 00000020H .text$di                CODE
 0001:00000020 00020440H .text$mn                CODE
 0001:00020460 00000020H .text$mn$00             CODE
 0001:00020480 000008f0H .text$x                 CODE
 0001:00020d70 00000036H .text$yd                CODE
 0002:00000000 000002a0H .idata$5                DATA
 0002:000002a0 00000010H .00cfg                  DATA
 0002:000002b0 00000008H .CRT$XCA                DATA
 0002:000002b8 00000010H .CRT$XCU                DATA
 0002:000002c8 00000008H .CRT$XCZ                DATA
 0002:000002d0 00000008H .CRT$XIA                DATA
 0002:000002d8 00000018H .CRT$XIC                DATA
 0002:000002f0 00000008H .CRT$XIZ                DATA
 0002:000002f8 00000008H .CRT$XPA                DATA
 0002:00000300 00000010H .CRT$XPX                DATA
 0002:00000310 00000008H .CRT$XPXA               DATA
 0002:00000318 00000008H .CRT$XPZ                DATA
 0002:00000320 00000008H .CRT$XTA                DATA
 0002:00000328 00000008H .CRT$XTZ                DATA
 0002:00000330 00008f90H .rdata                  DATA
 0002:000092c0 00000404H .rdata$r                DATA
 0002:000096c4 00000414H .rdata$zzzdbg           DATA
 0002:00009ad8 00000008H .rtc$IAA                DATA
 0002:00009ae0 00000008H .rtc$IZZ                DATA
 0002:00009ae8 00000008H .rtc$TAA                DATA
 0002:00009af0 00000010H .rtc$TZZ                DATA
 0002:00009b00 00002790H .xdata                  DATA
 0002:0000c290 000003a4H .xdata$x                DATA
 0002:0000c634 00000020H .didat$2                DATA
 0002:0000c654 00000024H .didat$3                DATA
 0002:0000c678 000001d0H .didat$4                DATA
 0002:0000c848 000004f0H .didat$6                DATA
 0002:0000cd38 000001d8H .didat$7                DATA
 0002:0000cf10 0000005cH .edata                  DATA
 0002:0000cf6c 00000014H .idata$2                DATA
 0002:0000cf80 00000018H .idata$3                DATA
 0002:0000cf98 000002a0H .idata$4                DATA
 0002:0000d238 00000608H .idata$6                DATA
 0003:00000000 00000968H .data                   DATA
 0003:00000968 00000220H .data$r                 DATA
 0003:00000b88 000001d8H .didat$5                DATA
 0003:00000d60 0000166cH .bss                    DATA
 0004:00000000 00001ee4H .pdata                  DATA
 0005:00000000 00000084H .gfids$x                DATA
 0005:00000084 00000058H .gfids$y                DATA
 0006:00000000 00000060H .rsrc$01                DATA
 0006:00000060 00000180H .rsrc$02                DATA

  Address         Publics by Value              Rva+Base               Lib:Object

 0000:00000000       __guard_iat_table          0000000000000000     <absolute>
 0000:00000000       __dynamic_value_reloc_table 0000000000000000     <absolute>
 0000:00000000       __guard_iat_count          0000000000000000     <absolute>
 0000:00000000       __guard_longjmp_table      0000000000000000     <absolute>
 0000:00000000       __guard_longjmp_count      0000000000000000     <absolute>
 0000:00000000       __guard_fids_count         0000000000000000     <absolute>
 0000:00000000       ___safe_se_handler_table   0000000000000000     <absolute>
 0000:00000000       ___safe_se_handler_count   0000000000000000     <absolute>
 0000:00000000       __guard_fids_table         0000000000000000     <absolute>
 0000:00000100       __guard_flags              0000000000000100     <absolute>
 0000:00000000       __ImageBase                0000000180000000     <linker-defined>
 0001:00000020       ??0exception@stdext@@QEAA@AEBV01@@Z 0000000180001020 f i ffi.obj
 0001:00000040       ?what@exception@stdext@@UEBAPEBDXZ 0000000180001040 f i ffi.obj
 0001:00000060       _guard_check_icall_nop     0000000180001060 f i LIBCMT:guard_support.obj
 0001:00000060       __except_validate_context_record 0000000180001060 f i libvcruntime:jbcxrval.obj
 0001:00000060       ?_Doraise@exception@stdext@@MEBAXXZ 0000000180001060 f i ffi.obj
 0001:00000060       ??$destroy@PEAU?$_List_node@U?$pair@QEAUnapi_env__@@V?$unique_ptr@UPerEnvironmentData@FFI@@U?$default_delete@UPerEnvironmentData@FFI@@@std@@@std@@@std@@PEAX@std@@@?$_Wrap_alloc@V?$allocator@U?$_List_node@U?$pair@QEAUnapi_env__@@V?$unique_ptr@UPerEnvironmentData@FFI@@U?$default_delete@UPerEnvironmentData@FFI@@@std@@@std@@@std@@PEAX@std@@@std@@@std@@QEAAXPEAPEAU?$_List_node@U?$pair@QEAUnapi_env__@@V?$unique_ptr@UPerEnvironmentData@FFI@@U?$default_delete@UPerEnvironmentData@FFI@@@std@@@std@@@std@@PEAX@1@@Z 0000000180001060 f i callback_info.obj
 0001:00000060       ??3@YAXPEAX0@Z             0000000180001060 f i callback_info.obj
 0001:00000070       ??_Eexception@stdext@@UEAAPEAXI@Z 0000000180001070 f i * CIL library *:* CIL module *
 0001:00000070       ??_Gexception@stdext@@UEAAPEAXI@Z 0000000180001070 f i ffi.obj
 0001:000000a0       ??1Error@Napi@@UEAA@XZ     00000001800010a0 f i ffi.obj
 0001:000000a0       ??1TypeError@Napi@@UEAA@XZ 00000001800010a0 f i ffi.obj
 0001:000000f0       ?Type@Value@Napi@@QEBA?AW4napi_valuetype@@XZ 00000001800010f0 f i ffi.obj
 0001:00000170       ?IsBuffer@Value@Napi@@QEBA_NXZ 0000000180001170 f i ffi.obj
 0001:000001f0       ?ToNumber@Value@Napi@@QEBA?AVNumber@2@XZ 00000001800011f0 f i ffi.obj
 0001:00000280       ?New@Number@Napi@@SA?AV12@PEAUnapi_env__@@N@Z 0000000180001280 f i ffi.obj
 0001:00000310       ??BNumber@Napi@@QEBAIXZ    0000000180001310 f i ffi.obj
 0001:00000380       ?Int32Value@Number@Napi@@QEBAHXZ 0000000180001380 f i ffi.obj
 0001:00000380       ??BNumber@Napi@@QEBAHXZ    0000000180001380 f i callback_info.obj
 0001:000003f0       ??BString@Napi@@QEBA?AV?$basic_string@DU?$char_traits@D@std@@V?$allocator@D@2@@std@@XZ 00000001800013f0 f i ffi.obj
 0001:00000410       ?Utf8Value@String@Napi@@QEBA?AV?$basic_string@DU?$char_traits@D@std@@V?$allocator@D@2@@std@@XZ 0000000180001410 f i ffi.obj
 0001:000005f0       ??AObject@Napi@@QEAA?AV?$PropertyLValue@V?$basic_string@DU?$char_traits@D@std@@V?$allocator@D@2@@std@@@01@PEBD@Z 00000001800015f0 f i ffi.obj
 0001:000006c0       ??1?$PropertyLValue@V?$basic_string@DU?$char_traits@D@std@@V?$allocator@D@2@@std@@@Object@Napi@@QEAA@XZ 00000001800016c0 f i ffi.obj
 0001:000006d0       ?New@Error@Napi@@SA?AV12@PEAUnapi_env__@@@Z 00000001800016d0 f i ffi.obj
 0001:000008b0       ??_GError@Napi@@UEAAPEAXI@Z 00000001800018b0 f i ffi.obj
 0001:000008b0       ??_ETypeError@Napi@@UEAAPEAXI@Z 00000001800018b0 f i * CIL library *:* CIL module *
 0001:000008b0       ??_EError@Napi@@UEAAPEAXI@Z 00000001800018b0 f i * CIL library *:* CIL module *
 0001:000008b0       ??_GTypeError@Napi@@UEAAPEAXI@Z 00000001800018b0 f i ffi.obj
 0001:00000920       ??0Error@Napi@@QEAA@AEBV01@@Z 0000000180001920 f i ffi.obj
 0001:00000980       ?Message@Error@Napi@@QEBAAEBV?$basic_string@DU?$char_traits@D@std@@V?$allocator@D@2@@std@@XZ 0000000180001980 f i ffi.obj
 0001:00000a80       ?ThrowAsJavaScriptException@Error@Napi@@QEBAXXZ 0000000180001a80 f i ffi.obj
 0001:00000b90       ?what@Error@Napi@@UEBAPEBDXZ 0000000180001b90 f i ffi.obj
 0001:00000bb0       ?New@TypeError@Napi@@SA?AV12@PEAUnapi_env__@@PEBD@Z 0000000180001bb0 f i ffi.obj
 0001:00000bf0       ??0ObjectReference@Napi@@IEAA@AEBV01@@Z 0000000180001bf0 f i ffi.obj
 0001:00000c10       ?Get@ObjectReference@Napi@@QEBA?AVValue@2@PEBD@Z 0000000180001c10 f i ffi.obj
 0001:00000d90       ?MakeCallback@FunctionReference@Napi@@QEBA?AVValue@2@PEAUnapi_value__@@AEBV?$vector@PEAUnapi_value__@@V?$allocator@PEAUnapi_value__@@@std@@@std@@PEAUnapi_async_context__@@@Z 0000000180001d90 f i ffi.obj
 0001:00000d90       ?MakeCallback@FunctionReference@Napi@@QEBA?AVValue@2@PEAUnapi_value__@@AEBV?$initializer_list@PEAUnapi_value__@@@std@@PEAUnapi_async_context__@@@Z 0000000180001d90 f i callback_info.obj
 0001:00000fa0       ??0CallbackInfo@Napi@@QEAA@PEAUnapi_env__@@PEAUnapi_callback_info__@@@Z 0000000180001fa0 f i ffi.obj
 0001:000010d0       ??1CallbackInfo@Napi@@QEAA@XZ 00000001800020d0 f i ffi.obj
 0001:000010e0       ??ACallbackInfo@Napi@@QEBA?BVValue@1@_K@Z 00000001800020e0 f i ffi.obj
 0001:000011a0       ??1HandleScope@Napi@@QEAA@XZ 00000001800021a0 f i ffi.obj
 0001:000011b0       ??1EscapableHandleScope@Napi@@QEAA@XZ 00000001800021b0 f i ffi.obj
 0001:000011c0       ?get_uv_event_loop@@YAPEAUuv_loop_s@@PEAUnapi_env__@@@Z 00000001800021c0 f i ffi.obj
 0001:00001260       ?InitializeStaticFunctions@FFI@1@SA?AVObject@Napi@@VEnv@3@@Z 0000000180002260 f   ffi.obj
 0001:00001560       ?InitializeBindings@FFI@1@SAXVEnv@Napi@@VObject@3@@Z 0000000180002560 f   ffi.obj
 0001:00002f40       ?FFIPrepCif@FFI@1@KA?AVValue@Napi@@AEBVCallbackInfo@3@@Z 0000000180003f40 f   ffi.obj
 0001:00003330       ??0TypeError@Napi@@QEAA@AEBV01@@Z 0000000180004330 f i ffi.obj
 0001:00003390       ?FFIPrepCifVar@FFI@1@KA?AVValue@Napi@@AEBVCallbackInfo@3@@Z 0000000180004390 f   ffi.obj
 0001:00003830       ?FFICall@FFI@1@KAXAEBVCallbackInfo@Napi@@@Z 0000000180004830 f   ffi.obj
 0001:00003ad0       ?FFICallAsync@FFI@1@KAXAEBVCallbackInfo@Napi@@@Z 0000000180004ad0 f   ffi.obj
 0001:00003e40       ?AsyncFFICall@FFI@1@KAXPEAUuv_work_s@@@Z 0000000180004e40 f   ffi.obj
 0001:00003e70       ?FinishAsyncFFICall@FFI@1@KAXPEAUuv_work_s@@H@Z 0000000180004e70 f   ffi.obj
 0001:00004240       ?__napi_Init@@YAPEAUnapi_value__@@PEAUnapi_env__@@PEAU1@@Z 0000000180005240 f   ffi.obj
 0001:000042b0       ?_Tidy@?$vector@V?$_List_unchecked_iterator@V?$_List_val@U?$_List_simple_types@U?$pair@QEAUnapi_env__@@V?$unique_ptr@UPerEnvironmentData@FFI@@U?$default_delete@UPerEnvironmentData@FFI@@@std@@@std@@@std@@@std@@@std@@@std@@U?$_Wrap_alloc@V?$allocator@V?$_List_unchecked_iterator@V?$_List_val@U?$_List_simple_types@U?$pair@QEAUnapi_env__@@V?$unique_ptr@UPerEnvironmentData@FFI@@U?$default_delete@UPerEnvironmentData@FFI@@@std@@@std@@@std@@@std@@@std@@@std@@@std@@@2@@std@@IEAAXXZ 00000001800052b0 f i callback_info.obj
 0001:000042b0       ??1?$vector@PEAUnapi_value__@@V?$allocator@PEAUnapi_value__@@@std@@@std@@QEAA@XZ 00000001800052b0 f i ffi.obj
 0001:00004350       ??1?$basic_string@DU?$char_traits@D@std@@V?$allocator@D@2@@std@@QEAA@XZ 0000000180005350 f i ffi.obj
 0001:000043e0       ??4?$basic_string@DU?$char_traits@D@std@@V?$allocator@D@2@@std@@QEAAAEAV01@$$QEAV01@@Z 00000001800053e0 f i ffi.obj
 0001:00004490       ?_Tidy@?$basic_string@DU?$char_traits@D@std@@V?$allocator@D@2@@std@@QEAAX_N_K@Z 0000000180005490 f i ffi.obj
 0001:00004540       ?assign@?$basic_string@DU?$char_traits@D@std@@V?$allocator@D@2@@std@@QEAAAEAV12@PEBD_K@Z 0000000180005540 f i ffi.obj
 0001:00004670       ?assign@?$basic_string@DU?$char_traits@D@std@@V?$allocator@D@2@@std@@QEAAAEAV12@AEBV12@_K1@Z 0000000180005670 f i ffi.obj
 0001:000047a0       ?_Assign_rv@?$basic_string@DU?$char_traits@D@std@@V?$allocator@D@2@@std@@QEAAX$$QEAV12@@Z 00000001800057a0 f i ffi.obj
 0001:00004820       ?_Copy@?$basic_string@DU?$char_traits@D@std@@V?$allocator@D@2@@std@@QEAAX_K0@Z 0000000180005820 f i ffi.obj
 0001:000049a0       ?erase@?$basic_string@DU?$char_traits@D@std@@V?$allocator@D@2@@std@@QEAAAEAV12@_K0@Z 00000001800059a0 f i ffi.obj
 0001:00004a70       ?append@?$basic_string@DU?$char_traits@D@std@@V?$allocator@D@2@@std@@QEAAAEAV12@_KD@Z 0000000180005a70 f i ffi.obj
 0001:00004b90       ??0?$Reference@VObject@Napi@@@Napi@@IEAA@AEBV01@@Z 0000000180005b90 f i ffi.obj
 0001:00004cc0       ?New@?$Reference@VFunction@Napi@@@Napi@@SA?AV12@AEBVFunction@2@I@Z 0000000180005cc0 f i ffi.obj
 0001:00004d70       ??1?$Reference@VFunction@Napi@@@Napi@@QEAA@XZ 0000000180005d70 f i ffi.obj
 0001:00004da0       ??4?$Reference@VFunction@Napi@@@Napi@@QEAAAEAV01@$$QEAV01@@Z 0000000180005da0 f i ffi.obj
 0001:00004e50       ??$WrapCallback@V<lambda_8c7377a71108815b2eee34f099f4cb99>@@@details@Napi@@YAPEAUnapi_value__@@V<lambda_8c7377a71108815b2eee34f099f4cb99>@@@Z 0000000180005e50 f i ffi.obj
 0001:00004ea0       ??$New@VTypeError@Napi@@@Error@Napi@@KA?AVTypeError@1@PEAUnapi_env__@@PEBD_KP6A?AW4napi_status@@0PEAUnapi_value__@@3PEAPEAU5@@Z@Z 0000000180005ea0 f i ffi.obj
 0001:00004ff0       ??$?4PEBD@?$PropertyLValue@V?$basic_string@DU?$char_traits@D@std@@V?$allocator@D@2@@std@@@Object@Napi@@QEAAAEAV012@PEBD@Z 0000000180005ff0 f i ffi.obj
 0001:000050e0       ??$As@V?$Buffer@PEAU_ffi_type@@@Napi@@@Value@Napi@@QEBA?AV?$Buffer@PEAU_ffi_type@@@1@XZ 00000001800060e0 f i ffi.obj
 0001:000050e0       ??$As@V?$Buffer@D@Napi@@@Value@Napi@@QEBA?AV?$Buffer@D@1@XZ 00000001800060e0 f i ffi.obj
 0001:000050e0       ??$As@V?$Buffer@U_ffi_type@@@Napi@@@Value@Napi@@QEBA?AV?$Buffer@U_ffi_type@@@1@XZ 00000001800060e0 f i ffi.obj
 0001:000050e0       ??$As@V?$Buffer@PEAX@Napi@@@Value@Napi@@QEBA?AV?$Buffer@PEAX@1@XZ 00000001800060e0 f i ffi.obj
 0001:000050e0       ??$As@V?$Buffer@Uffi_cif@@@Napi@@@Value@Napi@@QEBA?AV?$Buffer@Uffi_cif@@@1@XZ 00000001800060e0 f i ffi.obj
 0001:00005190       ?Wrapper@?$CallbackData@P6AXAEBVCallbackInfo@Napi@@@ZX@details@Napi@@SAPEAUnapi_value__@@PEAUnapi_env__@@PEAUnapi_callback_info__@@@Z 0000000180006190 f i ffi.obj
 0001:000051d0       ?Wrapper@?$CallbackData@P6A?AVValue@Napi@@AEBVCallbackInfo@2@@ZV12@@details@Napi@@SAPEAUnapi_value__@@PEAUnapi_env__@@PEAUnapi_callback_info__@@@Z 00000001800061d0 f i ffi.obj
 0001:00005290       ?EnsureInfo@?$Buffer@Uffi_cif@@@Napi@@AEBAXXZ 0000000180006290 f i ffi.obj
 0001:00005320       ?EnsureInfo@?$Buffer@U_ffi_type@@@Napi@@AEBAXXZ 0000000180006320 f i ffi.obj
 0001:000053c0       ?EnsureInfo@?$Buffer@PEAX@Napi@@AEBAXXZ 00000001800063c0 f i ffi.obj
 0001:000053c0       ?EnsureInfo@?$Buffer@PEAU_ffi_type@@@Napi@@AEBAXXZ 00000001800063c0 f i ffi.obj
 0001:00005450       ?EnsureInfo@?$Buffer@D@Napi@@AEBAXXZ 0000000180006450 f i ffi.obj
 0001:000054e0       ??$New@V<lambda_f18167e7b21ea4a113cabf0718567511>@@@?$Buffer@D@Napi@@SA?AV01@PEAUnapi_env__@@PEAD_KV<lambda_f18167e7b21ea4a113cabf0718567511>@@@Z 00000001800064e0 f i ffi.obj
 0001:00005620       ??$New@V<lambda_077cf94f9d4d555d88319182fbd6cada>@@@?$Buffer@D@Napi@@SA?AV01@PEAUnapi_env__@@PEAD_KV<lambda_077cf94f9d4d555d88319182fbd6cada>@@@Z 0000000180006620 f i ffi.obj
 0001:00005760       ??$New@V<lambda_e9b8fd19e103a93ab0ab099cbcb65db2>@@@?$Buffer@D@Napi@@SA?AV01@PEAUnapi_env__@@PEAD_KV<lambda_e9b8fd19e103a93ab0ab099cbcb65db2>@@@Z 0000000180006760 f i ffi.obj
 0001:000058a0       ??$New@V<lambda_e60858b6bddec48c5c84bf745a5cfbcc>@@@?$Buffer@D@Napi@@SA?AV01@PEAUnapi_env__@@PEAD_KV<lambda_e60858b6bddec48c5c84bf745a5cfbcc>@@@Z 00000001800068a0 f i ffi.obj
 0001:000059e0       ??$New@V<lambda_09ee09fd05315914118049364ef8ce81>@@@?$Buffer@D@Napi@@SA?AV01@PEAUnapi_env__@@PEAD_KV<lambda_09ee09fd05315914118049364ef8ce81>@@@Z 00000001800069e0 f i ffi.obj
 0001:00005b20       ??$New@V<lambda_be7b0dd66bce0ea2e51b110e94c67118>@@@?$Buffer@D@Napi@@SA?AV01@PEAUnapi_env__@@PEAD_KV<lambda_be7b0dd66bce0ea2e51b110e94c67118>@@@Z 0000000180006b20 f i ffi.obj
 0001:00005b20       ??$New@V<lambda_8ce0c008e85ccc57d252cad5a80f2864>@@@?$Buffer@D@Napi@@SA?AV01@PEAUnapi_env__@@PEAD_KV<lambda_8ce0c008e85ccc57d252cad5a80f2864>@@@Z 0000000180006b20 f i callback_info.obj
 0001:00005c50       ??$New@V<lambda_efb3f083e984881c8a8dc51f31353307>@@@?$Buffer@D@Napi@@SA?AV01@PEAUnapi_env__@@PEAD_KV<lambda_efb3f083e984881c8a8dc51f31353307>@@@Z 0000000180006c50 f i ffi.obj
 0001:00005d80       ??$_Construct@PEBQEAUnapi_value__@@@?$vector@PEAUnapi_value__@@V?$allocator@PEAUnapi_value__@@@std@@@std@@QEAAXPEBQEAUnapi_value__@@0Uforward_iterator_tag@1@@Z 0000000180006d80 f i ffi.obj
 0001:00005e60       ??$WrapCallback@V<lambda_03ec0e3e2a4187754bc7c97d0c48b30a>@@@details@Napi@@YAPEAUnapi_value__@@V<lambda_03ec0e3e2a4187754bc7c97d0c48b30a>@@@Z 0000000180006e60 f i ffi.obj
 0001:00005ed0       ??$WrapCallback@V<lambda_4b130013be4a466940e6fe08d32cda83>@@@details@Napi@@YAPEAUnapi_value__@@V<lambda_4b130013be4a466940e6fe08d32cda83>@@@Z 0000000180006ed0 f i ffi.obj
 0001:00005f00       ?Wrapper@?$FinalizeData@DV<lambda_077cf94f9d4d555d88319182fbd6cada>@@X@details@Napi@@SAXPEAUnapi_env__@@PEAX1@Z 0000000180006f00 f i ffi.obj
 0001:00005f00       ?Wrapper@?$FinalizeData@DV<lambda_f18167e7b21ea4a113cabf0718567511>@@X@details@Napi@@SAXPEAUnapi_env__@@PEAX1@Z 0000000180006f00 f i ffi.obj
 0001:00005f00       ?Wrapper@?$FinalizeData@DV<lambda_e9b8fd19e103a93ab0ab099cbcb65db2>@@X@details@Napi@@SAXPEAUnapi_env__@@PEAX1@Z 0000000180006f00 f i ffi.obj
 0001:00005f00       ?Wrapper@?$FinalizeData@DV<lambda_09ee09fd05315914118049364ef8ce81>@@X@details@Napi@@SAXPEAUnapi_env__@@PEAX1@Z 0000000180006f00 f i ffi.obj
 0001:00005f00       ?Wrapper@?$FinalizeData@DV<lambda_efb3f083e984881c8a8dc51f31353307>@@X@details@Napi@@SAXPEAUnapi_env__@@PEAX1@Z 0000000180006f00 f i ffi.obj
 0001:00005f00       ?Wrapper@?$FinalizeData@DV<lambda_e60858b6bddec48c5c84bf745a5cfbcc>@@X@details@Napi@@SAXPEAUnapi_env__@@PEAX1@Z 0000000180006f00 f i ffi.obj
 0001:00005f00       ?Wrapper@?$FinalizeData@DV<lambda_be7b0dd66bce0ea2e51b110e94c67118>@@X@details@Napi@@SAXPEAUnapi_env__@@PEAX1@Z 0000000180006f00 f i ffi.obj
 0001:00005f00       ?Wrapper@?$FinalizeData@DV<lambda_8ce0c008e85ccc57d252cad5a80f2864>@@X@details@Napi@@SAXPEAUnapi_env__@@PEAX1@Z 0000000180006f00 f i callback_info.obj
 0001:00005fe0       ?New@Error@Napi@@SA?AV12@PEAUnapi_env__@@PEBD@Z 0000000180006fe0 f i callback_info.obj
 0001:00006020       ?New@Error@Napi@@SA?AV12@PEAUnapi_env__@@AEBV?$basic_string@DU?$char_traits@D@std@@V?$allocator@D@2@@std@@@Z 0000000180007020 f i callback_info.obj
 0001:00006060       ?Set@ObjectReference@Napi@@QEAAXPEBDVValue@2@@Z 0000000180007060 f i callback_info.obj
 0001:00006180       ?Call@FunctionReference@Napi@@QEBA?AVValue@2@AEBV?$initializer_list@PEAUnapi_value__@@@std@@@Z 0000000180007180 f i callback_info.obj
 0001:000063c0       ?closure_pointer_cb@FFI@@YAXVEnv@Napi@@PEADPEAX@Z 00000001800073c0 f   callback_info.obj
 0001:00006430       ?DispatchToV8@CallbackInfo@FFI@@KAXPEAUcallback_info@2@PEAXPEAPEAX_N@Z 0000000180007430 f   callback_info.obj
 0001:000067b0       ?WatcherCallback@CallbackInfo@FFI@@SAXPEAUuv_async_s@@@Z 00000001800077b0 f   callback_info.obj
 0001:000068b0       ?Callback@CallbackInfo@FFI@@KA?AVValue@Napi@@AEBV14@@Z 00000001800078b0 f   callback_info.obj
 0001:00006d30       ?Invoke@CallbackInfo@FFI@@KAXPEAUffi_cif@@PEAXPEAPEAX1@Z 0000000180007d30 f   callback_info.obj
 0001:00006e60       ?Initialize@CallbackInfo@FFI@@SA?AVFunction@Napi@@VEnv@4@@Z 0000000180007e60 f   callback_info.obj
 0001:000070d0       ??1?$unique_ptr@VThreadedCallbackInvokation@FFI@@U?$default_delete@VThreadedCallbackInvokation@FFI@@@std@@@std@@QEAA@XZ 00000001800080d0 f i callback_info.obj
 0001:00007120       ??0?$unordered_map@PEAUnapi_env__@@V?$unique_ptr@UPerEnvironmentData@FFI@@U?$default_delete@UPerEnvironmentData@FFI@@@std@@@std@@U?$hash@PEAUnapi_env__@@@3@U?$equal_to@PEAUnapi_env__@@@3@V?$allocator@U?$pair@QEAUnapi_env__@@V?$unique_ptr@UPerEnvironmentData@FFI@@U?$default_delete@UPerEnvironmentData@FFI@@@std@@@std@@@std@@@3@@std@@QEAA@XZ 0000000180008120 f i callback_info.obj
 0001:000071d0       ??1?$unique_ptr@UPerEnvironmentData@FFI@@U?$default_delete@UPerEnvironmentData@FFI@@@std@@@std@@QEAA@XZ 00000001800081d0 f i callback_info.obj
 0001:00007220       ??1?$vector@V?$_List_unchecked_iterator@V?$_List_val@U?$_List_simple_types@U?$pair@QEAUnapi_env__@@V?$unique_ptr@UPerEnvironmentData@FFI@@U?$default_delete@UPerEnvironmentData@FFI@@@std@@@std@@@std@@@std@@@std@@@std@@U?$_Wrap_alloc@V?$allocator@V?$_List_unchecked_iterator@V?$_List_val@U?$_List_simple_types@U?$pair@QEAUnapi_env__@@V?$unique_ptr@UPerEnvironmentData@FFI@@U?$default_delete@UPerEnvironmentData@FFI@@@std@@@std@@@std@@@std@@@std@@@std@@@std@@@2@@std@@QEAA@XZ 0000000180008220 f i callback_info.obj
 0001:00007230       ??1?$list@U?$pair@QEAUnapi_env__@@V?$unique_ptr@UPerEnvironmentData@FFI@@U?$default_delete@UPerEnvironmentData@FFI@@@std@@@std@@@std@@V?$allocator@U?$pair@QEAUnapi_env__@@V?$unique_ptr@UPerEnvironmentData@FFI@@U?$default_delete@UPerEnvironmentData@FFI@@@std@@@std@@@std@@@2@@std@@QEAA@XZ 0000000180008230 f i callback_info.obj
 0001:00007250       ?_Tidy@?$deque@PEAVThreadedCallbackInvokation@FFI@@V?$allocator@PEAVThreadedCallbackInvokation@FFI@@@std@@@std@@IEAAXXZ 0000000180008250 f i callback_info.obj
 0001:00007340       ?push_back@?$deque@PEAVThreadedCallbackInvokation@FFI@@V?$allocator@PEAVThreadedCallbackInvokation@FFI@@@std@@@std@@QEAAX$$QEAPEAVThreadedCallbackInvokation@FFI@@@Z 0000000180008340 f i callback_info.obj
 0001:00007400       ?_Init@?$_Hash@V?$_Umap_traits@PEAUnapi_env__@@V?$unique_ptr@UPerEnvironmentData@FFI@@U?$default_delete@UPerEnvironmentData@FFI@@@std@@@std@@V?$_Uhash_compare@PEAUnapi_env__@@U?$hash@PEAUnapi_env__@@@std@@U?$equal_to@PEAUnapi_env__@@@3@@3@V?$allocator@U?$pair@QEAUnapi_env__@@V?$unique_ptr@UPerEnvironmentData@FFI@@U?$default_delete@UPerEnvironmentData@FFI@@@std@@@std@@@std@@@3@$0A@@std@@@std@@IEAAX_K@Z 0000000180008400 f i callback_info.obj
 0001:000074a0       ?_Growmap@?$deque@PEAVThreadedCallbackInvokation@FFI@@V?$allocator@PEAVThreadedCallbackInvokation@FFI@@@std@@@std@@IEAAX_K@Z 00000001800084a0 f i callback_info.obj
 0001:000076d0       ?begin@?$deque@PEAVThreadedCallbackInvokation@FFI@@V?$allocator@PEAVThreadedCallbackInvokation@FFI@@@std@@@std@@QEAA?AV?$_Deque_iterator@V?$_Deque_val@U?$_Deque_simple_types@PEAVThreadedCallbackInvokation@FFI@@@std@@@std@@@2@XZ 00000001800086d0 f i callback_info.obj
 0001:000076f0       ?deallocate@?$_Wrap_alloc@U?$_Wrap_alloc@V?$allocator@V?$_List_unchecked_iterator@V?$_List_val@U?$_List_simple_types@U?$pair@QEAUnapi_env__@@V?$unique_ptr@UPerEnvironmentData@FFI@@U?$default_delete@UPerEnvironmentData@FFI@@@std@@@std@@@std@@@std@@@std@@@std@@@std@@@std@@@std@@QEAAXPEAV?$_List_unchecked_iterator@V?$_List_val@U?$_List_simple_types@U?$pair@QEAUnapi_env__@@V?$unique_ptr@UPerEnvironmentData@FFI@@U?$default_delete@UPerEnvironmentData@FFI@@@std@@@std@@@std@@@std@@@std@@@2@_K@Z 00000001800086f0 f i callback_info.obj
 0001:00007760       ?clear@?$list@U?$pair@QEAUnapi_env__@@V?$unique_ptr@UPerEnvironmentData@FFI@@U?$default_delete@UPerEnvironmentData@FFI@@@std@@@std@@@std@@V?$allocator@U?$pair@QEAUnapi_env__@@V?$unique_ptr@UPerEnvironmentData@FFI@@U?$default_delete@UPerEnvironmentData@FFI@@@std@@@std@@@std@@@2@@std@@QEAAXXZ 0000000180008760 f i callback_info.obj
 0001:00007800       ?_Reallocate@?$vector@V?$_List_unchecked_iterator@V?$_List_val@U?$_List_simple_types@U?$pair@QEAUnapi_env__@@V?$unique_ptr@UPerEnvironmentData@FFI@@U?$default_delete@UPerEnvironmentData@FFI@@@std@@@std@@@std@@@std@@@std@@@std@@U?$_Wrap_alloc@V?$allocator@V?$_List_unchecked_iterator@V?$_List_val@U?$_List_simple_types@U?$pair@QEAUnapi_env__@@V?$unique_ptr@UPerEnvironmentData@FFI@@U?$default_delete@UPerEnvironmentData@FFI@@@std@@@std@@@std@@@std@@@std@@@std@@@std@@@2@@std@@IEAAX_K@Z 0000000180008800 f i callback_info.obj
 0001:00007970       ?allocate@?$_Wrap_alloc@U?$_Wrap_alloc@V?$allocator@V?$_List_unchecked_iterator@V?$_List_val@U?$_List_simple_types@U?$pair@QEAUnapi_env__@@V?$unique_ptr@UPerEnvironmentData@FFI@@U?$default_delete@UPerEnvironmentData@FFI@@@std@@@std@@@std@@@std@@@std@@@std@@@std@@@std@@@std@@QEAAPEAV?$_List_unchecked_iterator@V?$_List_val@U?$_List_simple_types@U?$pair@QEAUnapi_env__@@V?$unique_ptr@UPerEnvironmentData@FFI@@U?$default_delete@UPerEnvironmentData@FFI@@@std@@@std@@@std@@@std@@@std@@@2@_K@Z 0000000180008970 f i callback_info.obj
 0001:000079e0       ?_Insert_n@?$vector@V?$_List_unchecked_iterator@V?$_List_val@U?$_List_simple_types@U?$pair@QEAUnapi_env__@@V?$unique_ptr@UPerEnvironmentData@FFI@@U?$default_delete@UPerEnvironmentData@FFI@@@std@@@std@@@std@@@std@@@std@@@std@@U?$_Wrap_alloc@V?$allocator@V?$_List_unchecked_iterator@V?$_List_val@U?$_List_simple_types@U?$pair@QEAUnapi_env__@@V?$unique_ptr@UPerEnvironmentData@FFI@@U?$default_delete@UPerEnvironmentData@FFI@@@std@@@std@@@std@@@std@@@std@@@std@@@std@@@2@@std@@IEAA?AV?$_Vector_iterator@V?$_Vector_val@U?$_Simple_types@V?$_List_unchecked_iterator@V?$_List_val@U?$_List_simple_types@U?$pair@QEAUnapi_env__@@V?$unique_ptr@UPerEnvironmentData@FFI@@U?$default_delete@UPerEnvironmentData@FFI@@@std@@@std@@@std@@@std@@@std@@@std@@@std@@@std@@@2@V?$_Vector_const_iterator@V?$_Vector_val@U?$_Simple_types@V?$_List_unchecked_iterator@V?$_List_val@U?$_List_simple_types@U?$pair@QEAUnapi_env__@@V?$unique_ptr@UPerEnvironmentData@FFI@@U?$default_delete@UPerEnvironmentData@FFI@@@std@@@std@@@std@@@std@@@std@@@std@@@std@@@std@@@2@_KAEBV?$_List_unchecked_iterator@V?$_List_val@U?$_List_simple_types@U?$pair@QEAUnapi_env__@@V?$unique_ptr@UPerEnvironmentData@FFI@@U?$default_delete@UPerEnvironmentData@FFI@@@std@@@std@@@std@@@std@@@std@@@2@@Z 00000001800089e0 f i callback_info.obj
 0001:00007d30       ??$New@VError@Napi@@@Error@Napi@@KA?AV01@PEAUnapi_env__@@PEBD_KP6A?AW4napi_status@@0PEAUnapi_value__@@3PEAPEAU4@@Z@Z 0000000180008d30 f i callback_info.obj
 0001:00007e70       ??$New@P6AXVEnv@Napi@@PEADPEAX@ZUcallback_info@FFI@@@?$Buffer@D@Napi@@SA?AV01@PEAUnapi_env__@@PEAD_KP6AXVEnv@1@1PEAX@ZPEAUcallback_info@FFI@@@Z 0000000180008e70 f i callback_info.obj
 0001:00007fc0       ?WrapperWithHint@?$FinalizeData@DP6AXVEnv@Napi@@PEADPEAX@ZUcallback_info@FFI@@@details@Napi@@SAXPEAUnapi_env__@@PEAX1@Z 0000000180008fc0 f i callback_info.obj
 0001:00007ff0       ??$_Try_emplace@PEAUnapi_env__@@$$V@?$unordered_map@PEAUnapi_env__@@V?$unique_ptr@UPerEnvironmentData@FFI@@U?$default_delete@UPerEnvironmentData@FFI@@@std@@@std@@U?$hash@PEAUnapi_env__@@@3@U?$equal_to@PEAUnapi_env__@@@3@V?$allocator@U?$pair@QEAUnapi_env__@@V?$unique_ptr@UPerEnvironmentData@FFI@@U?$default_delete@UPerEnvironmentData@FFI@@@std@@@std@@@std@@@3@@std@@QEAA?AU?$pair@V?$_List_iterator@V?$_List_val@U?$_List_simple_types@U?$pair@QEAUnapi_env__@@V?$unique_ptr@UPerEnvironmentData@FFI@@U?$default_delete@UPerEnvironmentData@FFI@@@std@@@std@@@std@@@std@@@std@@@std@@_N@1@$$QEAPEAUnapi_env__@@@Z 0000000180008ff0 f i callback_info.obj
 0001:00008100       ?lower_bound@?$_Hash@V?$_Umap_traits@PEAUnapi_env__@@V?$unique_ptr@UPerEnvironmentData@FFI@@U?$default_delete@UPerEnvironmentData@FFI@@@std@@@std@@V?$_Uhash_compare@PEAUnapi_env__@@U?$hash@PEAUnapi_env__@@@std@@U?$equal_to@PEAUnapi_env__@@@3@@3@V?$allocator@U?$pair@QEAUnapi_env__@@V?$unique_ptr@UPerEnvironmentData@FFI@@U?$default_delete@UPerEnvironmentData@FFI@@@std@@@std@@@std@@@3@$0A@@std@@@std@@QEAA?AV?$_List_iterator@V?$_List_val@U?$_List_simple_types@U?$pair@QEAUnapi_env__@@V?$unique_ptr@UPerEnvironmentData@FFI@@U?$default_delete@UPerEnvironmentData@FFI@@@std@@@std@@@std@@@std@@@std@@@2@AEBQEAUnapi_env__@@@Z 0000000180009100 f i callback_info.obj
 0001:000081e0       ??$_Insert@AEAU?$pair@QEAUnapi_env__@@V?$unique_ptr@UPerEnvironmentData@FFI@@U?$default_delete@UPerEnvironmentData@FFI@@@std@@@std@@@std@@V?$_List_unchecked_iterator@V?$_List_val@U?$_List_simple_types@U?$pair@QEAUnapi_env__@@V?$unique_ptr@UPerEnvironmentData@FFI@@U?$default_delete@UPerEnvironmentData@FFI@@@std@@@std@@@std@@@std@@@std@@@2@@?$_Hash@V?$_Umap_traits@PEAUnapi_env__@@V?$unique_ptr@UPerEnvironmentData@FFI@@U?$default_delete@UPerEnvironmentData@FFI@@@std@@@std@@V?$_Uhash_compare@PEAUnapi_env__@@U?$hash@PEAUnapi_env__@@@std@@U?$equal_to@PEAUnapi_env__@@@3@@3@V?$allocator@U?$pair@QEAUnapi_env__@@V?$unique_ptr@UPerEnvironmentData@FFI@@U?$default_delete@UPerEnvironmentData@FFI@@@std@@@std@@@std@@@3@$0A@@std@@@std@@IEAA?AU?$pair@V?$_List_iterator@V?$_List_val@U?$_List_simple_types@U?$pair@QEAUnapi_env__@@V?$unique_ptr@UPerEnvironmentData@FFI@@U?$default_delete@UPerEnvironmentData@FFI@@@std@@@std@@@std@@@std@@@std@@@std@@_N@1@AEAU?$pair@QEAUnapi_env__@@V?$unique_ptr@UPerEnvironmentData@FFI@@U?$default_delete@UPerEnvironmentData@FFI@@@std@@@std@@@1@V?$_List_unchecked_iterator@V?$_List_val@U?$_List_simple_types@U?$pair@QEAUnapi_env__@@V?$unique_ptr@UPerEnvironmentData@FFI@@U?$default_delete@UPerEnvironmentData@FFI@@@std@@@std@@@std@@@std@@@std@@@1@@Z 00000001800091e0 f i callback_info.obj
 0001:000083e0       ?_Check_size@?$_Hash@V?$_Umap_traits@PEAUnapi_env__@@V?$unique_ptr@UPerEnvironmentData@FFI@@U?$default_delete@UPerEnvironmentData@FFI@@@std@@@std@@V?$_Uhash_compare@PEAUnapi_env__@@U?$hash@PEAUnapi_env__@@@std@@U?$equal_to@PEAUnapi_env__@@@3@@3@V?$allocator@U?$pair@QEAUnapi_env__@@V?$unique_ptr@UPerEnvironmentData@FFI@@U?$default_delete@UPerEnvironmentData@FFI@@@std@@@std@@@std@@@3@$0A@@std@@@std@@IEAAXXZ 00000001800093e0 f i callback_info.obj
 0001:000084a0       __local_stdio_printf_options 00000001800094a0 f i win32-dlfcn.obj
 0001:000084b0       sprintf                    00000001800094b0 f i win32-dlfcn.obj
 0001:000085e0       dlopen                     00000001800095e0 f   win32-dlfcn.obj
 0001:00008680       dlclose                    0000000180009680 f   win32-dlfcn.obj
 0001:000086d0       dlsym                      00000001800096d0 f   win32-dlfcn.obj
 0001:00008700       dlerror                    0000000180009700 f   win32-dlfcn.obj
 0001:00008880       ffi_prep_cif               0000000180009880 f   libffi:prep_cif.obj
 0001:00008910       ffi_prep_args              0000000180009910 f   libffi:ffi.obj
 0001:00008ac0       ffi_prep_cif_machdep       0000000180009ac0 f   libffi:ffi.obj
 0001:00008bd0       ffi_call                   0000000180009bd0 f   libffi:ffi.obj
 0001:00008c90       ffi_closure_win64_inner    0000000180009c90 f   libffi:ffi.obj
 0001:00008dd0       ffi_prep_closure_loc       0000000180009dd0 f   libffi:ffi.obj
 0001:0000adfa       __imp_load_napi_create_function 000000018000bdfa f   node:node.exe
 0001:0000ae06       __tailMerge_node_exe       000000018000be06 f i node:node.exe
 0001:0000ae7f       __imp_load_napi_open_handle_scope 000000018000be7f f   node:node.exe
 0001:0000ae8b       __imp_load_napi_coerce_to_number 000000018000be8b f   node:node.exe
 0001:0000ae97       __imp_load_napi_get_uv_event_loop 000000018000be97 f   node:node.exe
 0001:0000aea3       __imp_load_napi_get_last_error_info 000000018000bea3 f   node:node.exe
 0001:0000aeaf       __imp_load_napi_create_error 000000018000beaf f   node:node.exe
 0001:0000aebb       __imp_load_uv_queue_work   000000018000bebb f   node:node.exe
 0001:0000aec7       __imp_load_napi_is_buffer  000000018000bec7 f   node:node.exe
 0001:0000aed3       __imp_load_napi_get_null   000000018000bed3 f   node:node.exe
 0001:0000aedf       __imp_load_napi_delete_reference 000000018000bedf f   node:node.exe
 0001:0000aeeb       __imp_load_napi_fatal_error 000000018000beeb f   node:node.exe
 0001:0000aef7       __imp_load_napi_is_exception_pending 000000018000bef7 f   node:node.exe
 0001:0000af03       __imp_load_napi_create_symbol 000000018000bf03 f   node:node.exe
 0001:0000af0f       __imp_load_napi_get_value_string_utf8 000000018000bf0f f   node:node.exe
 0001:0000af1b       __imp_load_napi_close_escapable_handle_scope 000000018000bf1b f   node:node.exe
 0001:0000af27       __imp_load_napi_escape_handle 000000018000bf27 f   node:node.exe
 0001:0000af33       __imp_load_napi_get_buffer_info 000000018000bf33 f   node:node.exe
 0001:0000af3f       __imp_load_napi_create_type_error 000000018000bf3f f   node:node.exe
 0001:0000af4b       __imp_load_napi_create_external 000000018000bf4b f   node:node.exe
 0001:0000af57       __imp_load_napi_create_string_utf8 000000018000bf57 f   node:node.exe
 0001:0000af63       __imp_load_napi_module_register 000000018000bf63 f   node:node.exe
 0001:0000af6f       __imp_load_napi_set_named_property 000000018000bf6f f   node:node.exe
 0001:0000af7b       __imp_load_napi_create_external_buffer 000000018000bf7b f   node:node.exe
 0001:0000af87       __imp_load_napi_get_named_property 000000018000bf87 f   node:node.exe
 0001:0000af93       __imp_load_napi_make_callback 000000018000bf93 f   node:node.exe
 0001:0000af9f       __imp_load_napi_define_properties 000000018000bf9f f   node:node.exe
 0001:0000afab       __imp_load_napi_typeof     000000018000bfab f   node:node.exe
 0001:0000afb7       __imp_load_napi_throw      000000018000bfb7 f   node:node.exe
 0001:0000afc3       __imp_load_napi_get_value_uint32 000000018000bfc3 f   node:node.exe
 0001:0000afcf       __imp_load_napi_get_value_int32 000000018000bfcf f   node:node.exe
 0001:0000afdb       __imp_load_napi_get_version 000000018000bfdb f   node:node.exe
 0001:0000afe7       __imp_load_napi_get_and_clear_last_exception 000000018000bfe7 f   node:node.exe
 0001:0000aff3       __imp_load_napi_create_object 000000018000bff3 f   node:node.exe
 0001:0000afff       __imp_load_napi_get_undefined 000000018000bfff f   node:node.exe
 0001:0000b00b       __imp_load_napi_get_typedarray_info 000000018000c00b f   node:node.exe
 0001:0000b017       __imp_load_napi_get_cb_info 000000018000c017 f   node:node.exe
 0001:0000b023       __imp_load_napi_open_escapable_handle_scope 000000018000c023 f   node:node.exe
 0001:0000b02f       __imp_load_napi_create_reference 000000018000c02f f   node:node.exe
 0001:0000b03b       __imp_load_napi_close_handle_scope 000000018000c03b f   node:node.exe
 0001:0000b047       __imp_load_uv_default_loop 000000018000c047 f   node:node.exe
 0001:0000b053       __imp_load_napi_create_double 000000018000c053 f   node:node.exe
 0001:0000b05f       __imp_load_napi_get_reference_value 000000018000c05f f   node:node.exe
 0001:0000b06b       __imp_load_uv_unref        000000018000c06b f   node:node.exe
 0001:0000b077       __imp_load_uv_mutex_unlock 000000018000c077 f   node:node.exe
 0001:0000b083       __imp_load_uv_once         000000018000c083 f   node:node.exe
 0001:0000b08f       __imp_load_napi_call_function 000000018000c08f f   node:node.exe
 0001:0000b09b       __imp_load_uv_mutex_lock   000000018000c09b f   node:node.exe
 0001:0000b0a7       __imp_load_napi_coerce_to_string 000000018000c0a7 f   node:node.exe
 0001:0000b0b3       __imp_load_uv_ref          000000018000c0b3 f   node:node.exe
 0001:0000b0bf       __imp_load_uv_mutex_init   000000018000c0bf f   node:node.exe
 0001:0000b0cb       __imp_load_uv_async_send   000000018000c0cb f   node:node.exe
 0001:0000b0d7       __imp_load_uv_async_init   000000018000c0d7 f   node:node.exe
 0001:0000b0e3       __imp_load_uv_cond_signal  000000018000c0e3 f   node:node.exe
 0001:0000b0ef       __imp_load_uv_cond_destroy 000000018000c0ef f   node:node.exe
 0001:0000b0fb       __imp_load_uv_cond_init    000000018000c0fb f   node:node.exe
 0001:0000b107       __imp_load_uv_cond_wait    000000018000c107 f   node:node.exe
 0001:0000b113       __imp_load_uv_mutex_destroy 000000018000c113 f   node:node.exe
 0001:0000b120       ffi_closure_win64          000000018000c120 f   libffi:win64.obj
 0001:0000b19c       ffi_call_win64             000000018000c19c f   libffi:win64.obj
 0001:0000b2f0       ??0bad_alloc@std@@QEAA@AEBV01@@Z 000000018000c2f0 f i libcpmt:xthrow.obj
 0001:0000b330       ??0bad_alloc@std@@QEAA@XZ  000000018000c330 f i libcpmt:xthrow.obj
 0001:0000b350       ??0exception@std@@QEAA@AEBV01@@Z 000000018000c350 f i libcpmt:xthrow.obj
 0001:0000b388       ??0length_error@std@@QEAA@AEBV01@@Z 000000018000c388 f i libcpmt:xthrow.obj
 0001:0000b3c8       ??0length_error@std@@QEAA@PEBD@Z 000000018000c3c8 f i libcpmt:xthrow.obj
 0001:0000b414       ??0logic_error@std@@QEAA@AEBV01@@Z 000000018000c414 f i libcpmt:xthrow.obj
 0001:0000b454       ??0out_of_range@std@@QEAA@AEBV01@@Z 000000018000c454 f i libcpmt:xthrow.obj
 0001:0000b494       ??0out_of_range@std@@QEAA@PEBD@Z 000000018000c494 f i libcpmt:xthrow.obj
 0001:0000b4e0       ??1bad_array_new_length@std@@UEAA@XZ 000000018000c4e0 f i LIBCMT:throw_bad_alloc.obj
 0001:0000b4e0       ??1bad_exception@std@@UEAA@XZ 000000018000c4e0 f i libvcruntime:frame.obj
 0001:0000b4e0       ??1bad_alloc@std@@UEAA@XZ  000000018000c4e0 f i libcpmt:xthrow.obj
 0001:0000b4e0       ??1out_of_range@std@@UEAA@XZ 000000018000c4e0 f i libcpmt:xthrow.obj
 0001:0000b4e0       ??1length_error@std@@UEAA@XZ 000000018000c4e0 f i libcpmt:xthrow.obj
 0001:0000b4f4       ??_Gbad_array_new_length@std@@UEAAPEAXI@Z 000000018000c4f4 f i LIBCMT:throw_bad_alloc.obj
 0001:0000b4f4       ??_Eout_of_range@std@@UEAAPEAXI@Z 000000018000c4f4 f i libcpmt:xthrow.obj
 0001:0000b4f4       ??_Gbad_alloc@std@@UEAAPEAXI@Z 000000018000c4f4 f i libcpmt:xthrow.obj
 0001:0000b4f4       ??_Elogic_error@std@@UEAAPEAXI@Z 000000018000c4f4 f i libcpmt:xthrow.obj
 0001:0000b4f4       ??_Eexception@std@@UEAAPEAXI@Z 000000018000c4f4 f i libcpmt:xthrow.obj
 0001:0000b4f4       ??_Ebad_array_new_length@std@@UEAAPEAXI@Z 000000018000c4f4 f i LIBCMT:throw_bad_alloc.obj
 0001:0000b4f4       ??_Glogic_error@std@@UEAAPEAXI@Z 000000018000c4f4 f i libcpmt:xthrow.obj
 0001:0000b4f4       ??_Glength_error@std@@UEAAPEAXI@Z 000000018000c4f4 f i libcpmt:xthrow.obj
 0001:0000b4f4       ??_Gexception@std@@UEAAPEAXI@Z 000000018000c4f4 f i libcpmt:xthrow.obj
 0001:0000b4f4       ??_Elength_error@std@@UEAAPEAXI@Z 000000018000c4f4 f i libcpmt:xthrow.obj
 0001:0000b4f4       ??_Ebad_alloc@std@@UEAAPEAXI@Z 000000018000c4f4 f i libcpmt:xthrow.obj
 0001:0000b4f4       ??_Ebad_exception@std@@UEAAPEAXI@Z 000000018000c4f4 f i libvcruntime:frame.obj
 0001:0000b4f4       ??_Gbad_exception@std@@UEAAPEAXI@Z 000000018000c4f4 f i libvcruntime:frame.obj
 0001:0000b4f4       ??_Gout_of_range@std@@UEAAPEAXI@Z 000000018000c4f4 f i libcpmt:xthrow.obj
 0001:0000b538       ?_Xlength_error@std@@YAXPEBD@Z 000000018000c538 f   libcpmt:xthrow.obj
 0001:0000b55c       ?_Xout_of_range@std@@YAXPEBD@Z 000000018000c55c f   libcpmt:xthrow.obj
 0001:0000b580       ?what@exception@std@@UEBAPEBDXZ 000000018000c580 f i libcpmt:xthrow.obj
 0001:0000b5b0       __security_check_cookie    000000018000c5b0 f   LIBCMT:_amdsecgs_.obj
 0001:0000b5d4       ??2@YAPEAX_K@Z             000000018000c5d4 f   LIBCMT:new_scalar.obj
 0001:0000b610       ??3@YAXPEAX@Z              000000018000c610 f   LIBCMT:delete_scalar.obj
 0001:0000b618       ??_V@YAXPEAX@Z             000000018000c618 f   LIBCMT:delete_array.obj
 0001:0000b618       ??3@YAXPEAX_K@Z            000000018000c618 f   LIBCMT:delete_scalar_size.obj
 0001:0000b620       ??_U@YAPEAX_K@Z            000000018000c620 f   LIBCMT:new_array.obj
 0001:0000b628       ??_Etype_info@@UEAAPEAXI@Z 000000018000c628 f i LIBCMT:std_type_info_static.obj
 0001:0000b628       ??_Gtype_info@@UEAAPEAXI@Z 000000018000c628 f i LIBCMT:std_type_info_static.obj
 0001:0000b654       __scrt_acquire_startup_lock 000000018000c654 f   LIBCMT:utility.obj
 0001:0000b690       __scrt_dllmain_after_initialize_c 000000018000c690 f   LIBCMT:utility.obj
 0001:0000b6c4       __scrt_dllmain_before_initialize_c 000000018000c6c4 f   LIBCMT:utility.obj
 0001:0000b6dc       __scrt_dllmain_crt_thread_attach 000000018000c6dc f   LIBCMT:utility.obj
 0001:0000b704       __scrt_dllmain_crt_thread_detach 000000018000c704 f   LIBCMT:utility.obj
 0001:0000b71c       __scrt_dllmain_exception_filter 000000018000c71c f   LIBCMT:utility.obj
 0001:0000b780       __scrt_dllmain_uninitialize_c 000000018000c780 f   LIBCMT:utility.obj
 0001:0000b7b0       __scrt_dllmain_uninitialize_critical 000000018000c7b0 f   LIBCMT:utility.obj
 0001:0000b7c4       __scrt_initialize_crt      000000018000c7c4 f   LIBCMT:utility.obj
 0001:0000b810       __scrt_initialize_onexit_tables 000000018000c810 f   LIBCMT:utility.obj
 0001:0000b8dc       __scrt_is_nonwritable_in_current_image 000000018000c8dc f   LIBCMT:utility.obj
 0001:0000b978       __scrt_release_startup_lock 000000018000c978 f   LIBCMT:utility.obj
 0001:0000b99c       __scrt_uninitialize_crt    000000018000c99c f   LIBCMT:utility.obj
 0001:0000b9c8       _onexit                    000000018000c9c8 f   LIBCMT:utility.obj
 0001:0000ba18       atexit                     000000018000ca18 f   LIBCMT:utility.obj
 0001:0000bd7c       _DllMainCRTStartup         000000018000cd7c f   LIBCMT:dll_dllmain.obj
 0001:0000bdd0       __chkstk                   000000018000cdd0 f   LIBCMT:_chkstk_.obj
 0001:0000bdd0       _alloca_probe              000000018000cdd0 f   LIBCMT:_chkstk_.obj
 0001:0000be24       __raise_securityfailure    000000018000ce24 f   LIBCMT:gs_report.obj
 0001:0000be58       __report_gsfailure         000000018000ce58 f   LIBCMT:gs_report.obj
 0001:0000bf2c       __report_rangecheckfailure 000000018000cf2c f   LIBCMT:gs_report.obj
 0001:0000bf40       __report_securityfailure   000000018000cf40 f   LIBCMT:gs_report.obj
 0001:0000c0c0       ??0bad_array_new_length@std@@QEAA@AEBV01@@Z 000000018000d0c0 f i LIBCMT:throw_bad_alloc.obj
 0001:0000c100       ??0bad_array_new_length@std@@QEAA@XZ 000000018000d100 f i LIBCMT:throw_bad_alloc.obj
 0001:0000c120       ?_Xbad_alloc@std@@YAXXZ    000000018000d120 f   libcpmt:xthrow.obj
 0001:0000c120       ?__scrt_throw_std_bad_alloc@@YAXXZ 000000018000d120 f   LIBCMT:throw_bad_alloc.obj
 0001:0000c140       ?__scrt_throw_std_bad_array_new_length@@YAXXZ 000000018000d140 f   LIBCMT:throw_bad_alloc.obj
 0001:0000c160       __isa_available_init       000000018000d160 f   LIBCMT:_cpu_disp_.obj
 0001:0000c328       _get_startup_argv_mode     000000018000d328 f   LIBCMT:argv_mode.obj
 0001:0000c328       DllMain                    000000018000d328 f   LIBCMT:dll_dllmain_stub.obj
 0001:0000c330       __scrt_is_ucrt_dll_in_use  000000018000d330 f   LIBCMT:ucrt_detection.obj
 0001:0000c33c       __crt_debugger_hook        000000018000d33c f   LIBCMT:utility_desktop.obj
 0001:0000c344       __scrt_fastfail            000000018000d344 f   LIBCMT:utility_desktop.obj
 0001:0000c48c       _guard_check_icall         000000018000d48c f i LIBCMT:checkcfg.obj
 0001:0000c494       __security_init_cookie     000000018000d494 f   LIBCMT:gs_support.obj
 0001:0000c540       ?__scrt_initialize_type_info@@YAXXZ 000000018000d540 f   LIBCMT:tncleanup.obj
 0001:0000c550       ?__scrt_uninitialize_type_info@@YAXXZ 000000018000d550 f   LIBCMT:tncleanup.obj
 0001:0000c55c       __local_stdio_scanf_options 000000018000d55c f i LIBCMT:default_local_stdio_options.obj
 0001:0000c564       __scrt_initialize_default_local_stdio_options 000000018000d564 f   LIBCMT:default_local_stdio_options.obj
 0001:0000c580       __scrt_get_dyn_tls_init_callback 000000018000d580 f   LIBCMT:dyn_tls_init.obj
 0001:0000c588       _RTC_Initialize            000000018000d588 f   LIBCMT:_initsect_.obj
 0001:0000c5d4       _RTC_Terminate             000000018000d5d4 f   LIBCMT:_initsect_.obj
 0001:0000c630       memcpy                     000000018000d630 f   libvcruntime:memcpy.obj
 0001:0000c630       memmove                    000000018000d630 f   libvcruntime:memcpy.obj
 0001:0000ca68       __DestructExceptionObject  000000018000da68 f   libvcruntime:frame.obj
 0001:0000caf0       ??0bad_exception@std@@QEAA@AEBV01@@Z 000000018000daf0 f i libvcruntime:frame.obj
 0001:0000cb30       ??0bad_exception@std@@QEAA@XZ 000000018000db30 f i libvcruntime:frame.obj
 0001:0000d4ac       ?_CallMemberFunction0@@YAXPEAXP6AX0@Z@Z 000000018000e4ac f i libvcruntime:frame.obj
 0001:0000d4b0       ?_CallMemberFunction1@@YAXPEAXP6AX0@Z0@Z 000000018000e4b0 f i libvcruntime:frame.obj
 0001:0000d4bc       ?_CallMemberFunction2@@YAXPEAXP6AX0@Z0H@Z 000000018000e4bc f i libvcruntime:frame.obj
 0001:0000d4cc       __AdjustPointer            000000018000e4cc f   libvcruntime:frame.obj
 0001:0000d4f0       __BuildCatchObject         000000018000e4f0 f   libvcruntime:frame.obj
 0001:0000d5b4       __BuildCatchObjectHelper   000000018000e5b4 f   libvcruntime:frame.obj
 0001:0000d794       __CxxCallCatchBlock        000000018000e794 f   libvcruntime:frame.obj
 0001:0000d980       __FrameUnwindFilter        000000018000e980 f   libvcruntime:frame.obj
 0001:0000d9cc       __FrameUnwindToState       000000018000e9cc f   libvcruntime:frame.obj
 0001:0000db60       __InternalCxxFrameHandler  000000018000eb60 f   libvcruntime:frame.obj
 0001:0000ddb8       __TypeMatch                000000018000edb8 f   libvcruntime:frame.obj
 0001:0000def8       __std_terminate            000000018000eef8 f   libvcruntime:frame.obj
 0001:0000df04       __std_exception_copy       000000018000ef04 f   libvcruntime:std_exception.obj
 0001:0000df94       __std_exception_destroy    000000018000ef94 f   libvcruntime:std_exception.obj
 0001:0000dfbc       _CxxThrowException         000000018000efbc f   libvcruntime:throw.obj
 0001:0000e094       __vcrt_initialize          000000018000f094 f   libvcruntime:initialization.obj
 0001:0000e0c8       __vcrt_thread_attach       000000018000f0c8 f   libvcruntime:initialization.obj
 0001:0000e0dc       __vcrt_thread_detach       000000018000f0dc f   libvcruntime:initialization.obj
 0001:0000e0f0       __vcrt_uninitialize        000000018000f0f0 f   libvcruntime:initialization.obj
 0001:0000e110       __vcrt_uninitialize_critical 000000018000f110 f   libvcruntime:initialization.obj
 0001:0000e120       __C_specific_handler       000000018000f120 f   libvcruntime:_chandler_.obj
 0001:0000e330       memset                     000000018000f330 f   libvcruntime:memset.obj
 0001:0000e4d0       __std_type_info_compare    000000018000f4d0 f   libvcruntime:std_type_info.obj
 0001:0000e4f8       __std_type_info_destroy_list 000000018000f4f8 f   libvcruntime:std_type_info.obj
 0001:0000e524       __vcrt_freefls             000000018000f524 f   libvcruntime:per_thread_data.obj
 0001:0000e544       __vcrt_freeptd             000000018000f544 f   libvcruntime:per_thread_data.obj
 0001:0000e594       __vcrt_getptd              000000018000f594 f   libvcruntime:per_thread_data.obj
 0001:0000e5b0       __vcrt_getptd_noexit       000000018000f5b0 f   libvcruntime:per_thread_data.obj
 0001:0000e668       __vcrt_initialize_ptd      000000018000f668 f   libvcruntime:per_thread_data.obj
 0001:0000e6a8       __vcrt_uninitialize_ptd    000000018000f6a8 f   libvcruntime:per_thread_data.obj
 0001:0000e6cc       ?__GetCurrentState@@YAHPEA_KPEAU_xDISPATCHER_CONTEXT@@PEBU_s_FuncInfo@@@Z 000000018000f6cc f   libvcruntime:ehstate.obj
 0001:0000e6f4       ?__GetUnwindTryBlock@@YAHPEA_KPEAU_xDISPATCHER_CONTEXT@@PEBU_s_FuncInfo@@@Z 000000018000f6f4 f   libvcruntime:ehstate.obj
 0001:0000e720       ?__SetState@@YAXPEA_KPEAU_xDISPATCHER_CONTEXT@@PEBU_s_FuncInfo@@H@Z 000000018000f720 f   libvcruntime:ehstate.obj
 0001:0000e72c       ?__SetUnwindTryBlock@@YAXPEA_KPEAU_xDISPATCHER_CONTEXT@@PEBU_s_FuncInfo@@H@Z 000000018000f72c f   libvcruntime:ehstate.obj
 0001:0000e768       ?__StateFromControlPc@@YAHPEBU_s_FuncInfo@@PEAU_xDISPATCHER_CONTEXT@@@Z 000000018000f768 f   libvcruntime:ehstate.obj
 0001:0000e770       ?__StateFromIp@@YAHPEBU_s_FuncInfo@@PEAU_xDISPATCHER_CONTEXT@@_J@Z 000000018000f770 f   libvcruntime:ehstate.obj
 0001:0000e7f0       _CallSettingFrame          000000018000f7f0 f   libvcruntime:handlers.obj
 0001:0000e830       ?_ExecutionInCatch@@YAHPEAU_xDISPATCHER_CONTEXT@@PEBU_s_FuncInfo@@@Z 000000018000f830 f   libvcruntime:trnsctrl.obj
 0001:0000e8a4       ?_GetEstablisherFrame@@YAPEA_KPEA_KPEAU_xDISPATCHER_CONTEXT@@PEBU_s_FuncInfo@@0@Z 000000018000f8a4 f   libvcruntime:trnsctrl.obj
 0001:0000e970       ?_GetRangeOfTrysToCheck@@YAPEBU_s_TryBlockMapEntry@@PEA_KPEBU_s_FuncInfo@@HHPEAI2PEAU_xDISPATCHER_CONTEXT@@@Z 000000018000f970 f   libvcruntime:trnsctrl.obj
 0001:0000ea9c       ?__FrameUnwindToEmptyState@@YAXPEA_KPEAU_xDISPATCHER_CONTEXT@@PEBU_s_FuncInfo@@@Z 000000018000fa9c f   libvcruntime:trnsctrl.obj
 0001:0000eb30       ?__SehTransFilter@@YAHPEAU_EXCEPTION_POINTERS@@PEAUEHExceptionRecord@@PEA_KPEAU_CONTEXT@@PEAU_xDISPATCHER_CONTEXT@@PEBU_s_FuncInfo@@PEAH@Z 000000018000fb30 f   libvcruntime:trnsctrl.obj
 0001:0000ebc8       _CallSETranslator          000000018000fbc8 f   libvcruntime:trnsctrl.obj
 0001:0000ec20       _CreateFrameInfo           000000018000fc20 f   libvcruntime:trnsctrl.obj
 0001:0000ec5c       _FindAndUnlinkFrame        000000018000fc5c f   libvcruntime:trnsctrl.obj
 0001:0000ecb4       _GetImageBase              000000018000fcb4 f   libvcruntime:trnsctrl.obj
 0001:0000ecc8       _GetThrowImageBase         000000018000fcc8 f   libvcruntime:trnsctrl.obj
 0001:0000ecdc       _IsExceptionObjectToBeDestroyed 000000018000fcdc f   libvcruntime:trnsctrl.obj
 0001:0000ed0c       _SetImageBase              000000018000fd0c f   libvcruntime:trnsctrl.obj
 0001:0000ed24       _SetThrowImageBase         000000018000fd24 f   libvcruntime:trnsctrl.obj
 0001:0000ed3c       _UnwindNestedFrames        000000018000fd3c f   libvcruntime:trnsctrl.obj
 0001:0000ee60       __CxxFrameHandler3         000000018000fe60 f   libvcruntime:trnsctrl.obj
 0001:0000eef0       _local_unwind              000000018000fef0 f   libvcruntime:_jmpuwind_.obj
 0001:0000ef20       _NLG_Notify                000000018000ff20 f   libvcruntime:_jmpuwind_.obj
 0001:0000ef40       __NLG_Dispatch2            000000018000ff40 f   libvcruntime:_jmpuwind_.obj
 0001:0000ef50       __NLG_Return2              000000018000ff50 f   libvcruntime:_jmpuwind_.obj
 0001:0000ef54       __vcrt_initialize_locks    000000018000ff54 f   libvcruntime:locks.obj
 0001:0000ef9c       __vcrt_uninitialize_locks  000000018000ff9c f   libvcruntime:locks.obj
 0001:0000f19c       __vcrt_FlsAlloc            000000018001019c f   libvcruntime:winapi_downlevel.obj
 0001:0000f1f0       __vcrt_FlsFree             00000001800101f0 f   libvcruntime:winapi_downlevel.obj
 0001:0000f244       __vcrt_FlsGetValue         0000000180010244 f   libvcruntime:winapi_downlevel.obj
 0001:0000f298       __vcrt_FlsSetValue         0000000180010298 f   libvcruntime:winapi_downlevel.obj
 0001:0000f300       __vcrt_InitializeCriticalSectionEx 0000000180010300 f   libvcruntime:winapi_downlevel.obj
 0001:0000f378       __vcrt_initialize_winapi_thunks 0000000180010378 f   libvcruntime:winapi_downlevel.obj
 0001:0000f3c4       __vcrt_uninitialize_winapi_thunks 00000001800103c4 f   libvcruntime:winapi_downlevel.obj
 0001:0000f404       __vcrt_initialize_pure_virtual_call_handler 0000000180010404 f   libvcruntime:purevirt_data.obj
 0001:0000f428       __acrt_errno_from_os_error 0000000180010428 f   libucrt:errno.obj
 0001:0000f470       __acrt_errno_map_os_error  0000000180010470 f   libucrt:errno.obj
 0001:0000f4c0       __doserrno                 00000001800104c0 f   libucrt:errno.obj
 0001:0000f4e0       _errno                     00000001800104e0 f   libucrt:errno.obj
 0001:0000fee8       ??$ftprintf@PEAU_iobuf@@PEB_WAEBQEB_WAEBQEB_WAEBI@?$__crt_char_traits@_W@@SAH$$QEAPEAU_iobuf@@$$QEAPEB_WAEBQEB_W2AEBI@Z 0000000180010ee8 f i libucrt:assert.obj
 0001:0000ff10       _wassert                   0000000180010f10 f   libucrt:assert.obj
 0001:0000ff94       fwprintf                   0000000180010f94 f i libucrt:assert.obj
 0001:0000ffd8       swprintf                   0000000180010fd8 f i libucrt:assert.obj
 0001:0001002c       __acrt_call_reportfault    000000018001102c f   libucrt:invalid_parameter.obj
 0001:00010188       __acrt_initialize_invalid_parameter_handler 0000000180011188 f   libucrt:invalid_parameter.obj
 0001:00010190       _invalid_parameter         0000000180011190 f   libucrt:invalid_parameter.obj
 0001:00010238       _invalid_parameter_noinfo  0000000180011238 f   libucrt:invalid_parameter.obj
 0001:00010258       _invalid_parameter_noinfo_noreturn 0000000180011258 f   libucrt:invalid_parameter.obj
 0001:00010288       _invoke_watson             0000000180011288 f   libucrt:invalid_parameter.obj
 0001:000102d0       ??$?RV<lambda_7b91131dde12e1c3dfc74ff76b3f2eac>@@AEAV<lambda_dd75445284c072d0bd3768540cc698fa>@@V<lambda_16bc4ecb55b4718497c16bceaea2ceaf>@@@?$__crt_seh_guarded_call@H@@QEAAH$$QEAV<lambda_7b91131dde12e1c3dfc74ff76b3f2eac>@@AEAV<lambda_dd75445284c072d0bd3768540cc698fa>@@$$QEAV<lambda_16bc4ecb55b4718497c16bceaea2ceaf>@@@Z 00000001800112d0 f i libucrt:output.obj
 0001:00010310       ??$ensure_buffer_is_big_enough@D@formatting_buffer@__crt_stdio_output@@QEAA_N_K@Z 0000000180011310 f i libucrt:output.obj
 0001:000103bc       ??$is_wide_character_specifier@D@__crt_stdio_output@@YA_N_KDW4length_modifier@0@@Z 00000001800113bc f i libucrt:output.obj
 0001:000103ec       ??$is_wide_character_specifier@_W@__crt_stdio_output@@YA_N_K_WW4length_modifier@0@@Z 00000001800113ec f i libucrt:output.obj
 0001:00010430       ??$type_case_integer_parse_into_buffer@I@?$output_processor@_WV?$string_output_adapter@_W@__crt_stdio_output@@V?$standard_base@_WV?$string_output_adapter@_W@__crt_stdio_output@@@2@@__crt_stdio_output@@AEAAXII_N@Z 0000000180011430 f i libucrt:output.obj
 0001:00010430       ??$type_case_integer_parse_into_buffer@I@?$output_processor@_WV?$stream_output_adapter@_W@__crt_stdio_output@@V?$standard_base@_WV?$stream_output_adapter@_W@__crt_stdio_output@@@2@@__crt_stdio_output@@AEAAXII_N@Z 0000000180011430 f i libucrt:output.obj
 0001:00010430       ??$type_case_integer_parse_into_buffer@I@?$output_processor@DV?$string_output_adapter@D@__crt_stdio_output@@V?$standard_base@DV?$string_output_adapter@D@__crt_stdio_output@@@2@@__crt_stdio_output@@AEAAXII_N@Z 0000000180011430 f i libucrt:output.obj
 0001:000104cc       ??$type_case_integer_parse_into_buffer@_K@?$output_processor@_WV?$stream_output_adapter@_W@__crt_stdio_output@@V?$standard_base@_WV?$stream_output_adapter@_W@__crt_stdio_output@@@2@@__crt_stdio_output@@AEAAX_KI_N@Z 00000001800114cc f i libucrt:output.obj
 0001:000104cc       ??$type_case_integer_parse_into_buffer@_K@?$output_processor@DV?$string_output_adapter@D@__crt_stdio_output@@V?$standard_base@DV?$string_output_adapter@D@__crt_stdio_output@@@2@@__crt_stdio_output@@AEAAX_KI_N@Z 00000001800114cc f i libucrt:output.obj
 0001:000104cc       ??$type_case_integer_parse_into_buffer@_K@?$output_processor@_WV?$string_output_adapter@_W@__crt_stdio_output@@V?$standard_base@_WV?$string_output_adapter@_W@__crt_stdio_output@@@2@@__crt_stdio_output@@AEAAX_KI_N@Z 00000001800114cc f i libucrt:output.obj
 0001:00010568       ??$write_multiple_characters@V?$stream_output_adapter@_W@__crt_stdio_output@@D@__crt_stdio_output@@YAXAEBV?$stream_output_adapter@_W@0@DHQEAH@Z 0000000180011568 f i libucrt:output.obj
 0001:000105f8       ??$write_multiple_characters@V?$string_output_adapter@D@__crt_stdio_output@@D@__crt_stdio_output@@YAXAEBV?$string_output_adapter@D@0@DHQEAH@Z 00000001800115f8 f i libucrt:output.obj
 0001:00010654       ??$write_multiple_characters@V?$string_output_adapter@_W@__crt_stdio_output@@D@__crt_stdio_output@@YAXAEBV?$string_output_adapter@_W@0@DHQEAH@Z 0000000180011654 f i libucrt:output.obj
 0001:000106c4       ??0?$output_processor@DV?$string_output_adapter@D@__crt_stdio_output@@V?$standard_base@DV?$string_output_adapter@D@__crt_stdio_output@@@2@@__crt_stdio_output@@QEAA@AEBV?$string_output_adapter@D@1@_KQEBDQEAU__crt_locale_pointers@@QEAD@Z 00000001800116c4 f i libucrt:output.obj
 0001:00010740       ??0?$output_processor@_WV?$stream_output_adapter@_W@__crt_stdio_output@@V?$standard_base@_WV?$stream_output_adapter@_W@__crt_stdio_output@@@2@@__crt_stdio_output@@QEAA@AEBV?$stream_output_adapter@_W@1@_KQEB_WQEAU__crt_locale_pointers@@QEAD@Z 0000000180011740 f i libucrt:output.obj
 0001:00010740       ??0?$output_processor@_WV?$string_output_adapter@_W@__crt_stdio_output@@V?$standard_base@_WV?$string_output_adapter@_W@__crt_stdio_output@@@2@@__crt_stdio_output@@QEAA@AEBV?$string_output_adapter@_W@1@_KQEB_WQEAU__crt_locale_pointers@@QEAD@Z 0000000180011740 f i libucrt:output.obj
 0001:000107c0       ??0_LocaleUpdate@@QEAA@QEAU__crt_locale_pointers@@@Z 00000001800117c0 f i libucrt:output.obj
 0001:00010940       ?force_decimal_point@__crt_stdio_output@@YAXPEADQEAU__crt_locale_pointers@@@Z 0000000180011940 f i libucrt:output.obj
 0001:000109b0       ?parse_int_from_format_string@?$output_processor@DV?$string_output_adapter@D@__crt_stdio_output@@V?$standard_base@DV?$string_output_adapter@D@__crt_stdio_output@@@2@@__crt_stdio_output@@AEAA_NQEAH@Z 00000001800119b0 f i libucrt:output.obj
 0001:00010a34       ?parse_int_from_format_string@?$output_processor@_WV?$string_output_adapter@_W@__crt_stdio_output@@V?$standard_base@_WV?$string_output_adapter@_W@__crt_stdio_output@@@2@@__crt_stdio_output@@AEAA_NQEAH@Z 0000000180011a34 f i libucrt:output.obj
 0001:00010a34       ?parse_int_from_format_string@?$output_processor@_WV?$stream_output_adapter@_W@__crt_stdio_output@@V?$standard_base@_WV?$stream_output_adapter@_W@__crt_stdio_output@@@2@@__crt_stdio_output@@AEAA_NQEAH@Z 0000000180011a34 f i libucrt:output.obj
 0001:00010ab4       ?process@?$output_processor@DV?$string_output_adapter@D@__crt_stdio_output@@V?$standard_base@DV?$string_output_adapter@D@__crt_stdio_output@@@2@@__crt_stdio_output@@QEAAHXZ 0000000180011ab4 f i libucrt:output.obj
 0001:00010cb8       ?process@?$output_processor@_WV?$stream_output_adapter@_W@__crt_stdio_output@@V?$standard_base@_WV?$stream_output_adapter@_W@__crt_stdio_output@@@2@@__crt_stdio_output@@QEAAHXZ 0000000180011cb8 f i libucrt:output.obj
 0001:00010f30       ?process@?$output_processor@_WV?$string_output_adapter@_W@__crt_stdio_output@@V?$standard_base@_WV?$string_output_adapter@_W@__crt_stdio_output@@@2@@__crt_stdio_output@@QEAAHXZ 0000000180011f30 f i libucrt:output.obj
 0001:000111ac       ?state_case_normal@?$output_processor@DV?$string_output_adapter@D@__crt_stdio_output@@V?$standard_base@DV?$string_output_adapter@D@__crt_stdio_output@@@2@@__crt_stdio_output@@AEAA_NXZ 00000001800121ac f i libucrt:output.obj
 0001:00011220       ?state_case_normal_tchar@?$output_processor@DV?$string_output_adapter@D@__crt_stdio_output@@V?$standard_base@DV?$string_output_adapter@D@__crt_stdio_output@@@2@@__crt_stdio_output@@AEAA_ND@Z 0000000180012220 f i libucrt:output.obj
 0001:000112b8       ?state_case_size@?$output_processor@DV?$string_output_adapter@D@__crt_stdio_output@@V?$standard_base@DV?$string_output_adapter@D@__crt_stdio_output@@@2@@__crt_stdio_output@@AEAA_NXZ 00000001800122b8 f i libucrt:output.obj
 0001:00011434       ?state_case_size@?$output_processor@_WV?$stream_output_adapter@_W@__crt_stdio_output@@V?$standard_base@_WV?$stream_output_adapter@_W@__crt_stdio_output@@@2@@__crt_stdio_output@@AEAA_NXZ 0000000180012434 f i libucrt:output.obj
 0001:000115d8       ?state_case_size@?$output_processor@_WV?$string_output_adapter@_W@__crt_stdio_output@@V?$standard_base@_WV?$string_output_adapter@_W@__crt_stdio_output@@@2@@__crt_stdio_output@@AEAA_NXZ 00000001800125d8 f i libucrt:output.obj
 0001:0001177c       ?state_case_type@?$output_processor@DV?$string_output_adapter@D@__crt_stdio_output@@V?$standard_base@DV?$string_output_adapter@D@__crt_stdio_output@@@2@@__crt_stdio_output@@AEAA_NXZ 000000018001277c f i libucrt:output.obj
 0001:000119f8       ?state_case_type@?$output_processor@_WV?$stream_output_adapter@_W@__crt_stdio_output@@V?$standard_base@_WV?$stream_output_adapter@_W@__crt_stdio_output@@@2@@__crt_stdio_output@@AEAA_NXZ 00000001800129f8 f i libucrt:output.obj
 0001:00011cc4       ?state_case_type@?$output_processor@_WV?$string_output_adapter@_W@__crt_stdio_output@@V?$standard_base@_WV?$string_output_adapter@_W@__crt_stdio_output@@@2@@__crt_stdio_output@@AEAA_NXZ 0000000180012cc4 f i libucrt:output.obj
 0001:00011f90       ?type_case_Z@?$output_processor@DV?$string_output_adapter@D@__crt_stdio_output@@V?$standard_base@DV?$string_output_adapter@D@__crt_stdio_output@@@2@@__crt_stdio_output@@AEAA_NXZ 0000000180012f90 f i libucrt:output.obj
 0001:00012010       ?type_case_Z@?$output_processor@_WV?$stream_output_adapter@_W@__crt_stdio_output@@V?$standard_base@_WV?$stream_output_adapter@_W@__crt_stdio_output@@@2@@__crt_stdio_output@@AEAA_NXZ 0000000180013010 f i libucrt:output.obj
 0001:00012010       ?type_case_Z@?$output_processor@_WV?$string_output_adapter@_W@__crt_stdio_output@@V?$standard_base@_WV?$string_output_adapter@_W@__crt_stdio_output@@@2@@__crt_stdio_output@@AEAA_NXZ 0000000180013010 f i libucrt:output.obj
 0001:00012090       ?type_case_a@?$output_processor@DV?$string_output_adapter@D@__crt_stdio_output@@V?$standard_base@DV?$string_output_adapter@D@__crt_stdio_output@@@2@@__crt_stdio_output@@AEAA_NXZ 0000000180013090 f i libucrt:output.obj
 0001:000122ac       ?type_case_a@?$output_processor@_WV?$stream_output_adapter@_W@__crt_stdio_output@@V?$standard_base@_WV?$stream_output_adapter@_W@__crt_stdio_output@@@2@@__crt_stdio_output@@AEAA_NXZ 00000001800132ac f i libucrt:output.obj
 0001:000122ac       ?type_case_a@?$output_processor@_WV?$string_output_adapter@_W@__crt_stdio_output@@V?$standard_base@_WV?$string_output_adapter@_W@__crt_stdio_output@@@2@@__crt_stdio_output@@AEAA_NXZ 00000001800132ac f i libucrt:output.obj
 0001:000124f0       ?type_case_c_tchar@?$output_processor@DV?$string_output_adapter@D@__crt_stdio_output@@V?$standard_base@DV?$string_output_adapter@D@__crt_stdio_output@@@2@@__crt_stdio_output@@AEAA_ND@Z 00000001800134f0 f i libucrt:output.obj
 0001:000125a4       ?type_case_c_tchar@?$output_processor@_WV?$stream_output_adapter@_W@__crt_stdio_output@@V?$standard_base@_WV?$stream_output_adapter@_W@__crt_stdio_output@@@2@@__crt_stdio_output@@AEAA_N_W@Z 00000001800135a4 f i libucrt:output.obj
 0001:000125a4       ?type_case_c_tchar@?$output_processor@_WV?$string_output_adapter@_W@__crt_stdio_output@@V?$standard_base@_WV?$string_output_adapter@_W@__crt_stdio_output@@@2@@__crt_stdio_output@@AEAA_N_W@Z 00000001800135a4 f i libucrt:output.obj
 0001:0001264c       ?type_case_integer@?$output_processor@DV?$string_output_adapter@D@__crt_stdio_output@@V?$standard_base@DV?$string_output_adapter@D@__crt_stdio_output@@@2@@__crt_stdio_output@@AEAA_NI_N@Z 000000018001364c f i libucrt:output.obj
 0001:0001264c       ?type_case_integer@?$output_processor@_WV?$string_output_adapter@_W@__crt_stdio_output@@V?$standard_base@_WV?$string_output_adapter@_W@__crt_stdio_output@@@2@@__crt_stdio_output@@AEAA_NI_N@Z 000000018001364c f i libucrt:output.obj
 0001:0001264c       ?type_case_integer@?$output_processor@_WV?$stream_output_adapter@_W@__crt_stdio_output@@V?$standard_base@_WV?$stream_output_adapter@_W@__crt_stdio_output@@@2@@__crt_stdio_output@@AEAA_NI_N@Z 000000018001364c f i libucrt:output.obj
 0001:000127ec       ?type_case_n@?$output_processor@DV?$string_output_adapter@D@__crt_stdio_output@@V?$standard_base@DV?$string_output_adapter@D@__crt_stdio_output@@@2@@__crt_stdio_output@@AEAA_NXZ 00000001800137ec f i libucrt:output.obj
 0001:000127ec       ?type_case_n@?$output_processor@_WV?$stream_output_adapter@_W@__crt_stdio_output@@V?$standard_base@_WV?$stream_output_adapter@_W@__crt_stdio_output@@@2@@__crt_stdio_output@@AEAA_NXZ 00000001800137ec f i libucrt:output.obj
 0001:000127ec       ?type_case_n@?$output_processor@_WV?$string_output_adapter@_W@__crt_stdio_output@@V?$standard_base@_WV?$string_output_adapter@_W@__crt_stdio_output@@@2@@__crt_stdio_output@@AEAA_NXZ 00000001800137ec f i libucrt:output.obj
 0001:000128c8       ?type_case_s@?$output_processor@DV?$string_output_adapter@D@__crt_stdio_output@@V?$standard_base@DV?$string_output_adapter@D@__crt_stdio_output@@@2@@__crt_stdio_output@@AEAA_NXZ 00000001800138c8 f i libucrt:output.obj
 0001:00012958       ?type_case_s@?$output_processor@_WV?$string_output_adapter@_W@__crt_stdio_output@@V?$standard_base@_WV?$string_output_adapter@_W@__crt_stdio_output@@@2@@__crt_stdio_output@@AEAA_NXZ 0000000180013958 f i libucrt:output.obj
 0001:00012958       ?type_case_s@?$output_processor@_WV?$stream_output_adapter@_W@__crt_stdio_output@@V?$standard_base@_WV?$stream_output_adapter@_W@__crt_stdio_output@@@2@@__crt_stdio_output@@AEAA_NXZ 0000000180013958 f i libucrt:output.obj
 0001:00012a20       ?write_stored_string_tchar@?$output_processor@DV?$string_output_adapter@D@__crt_stdio_output@@V?$standard_base@DV?$string_output_adapter@D@__crt_stdio_output@@@2@@__crt_stdio_output@@AEAA_ND@Z 0000000180013a20 f i libucrt:output.obj
 0001:00012af8       ?write_stored_string_tchar@?$output_processor@_WV?$stream_output_adapter@_W@__crt_stdio_output@@V?$standard_base@_WV?$stream_output_adapter@_W@__crt_stdio_output@@@2@@__crt_stdio_output@@AEAA_N_W@Z 0000000180013af8 f i libucrt:output.obj
 0001:00012be4       ?write_stored_string_tchar@?$output_processor@_WV?$string_output_adapter@_W@__crt_stdio_output@@V?$standard_base@_WV?$string_output_adapter@_W@__crt_stdio_output@@@2@@__crt_stdio_output@@AEAA_N_W@Z 0000000180013be4 f i libucrt:output.obj
 0001:00012cd4       ?write_string@?$stream_output_adapter@_W@__crt_stdio_output@@QEBAXQEB_WHQEAH1@Z 0000000180013cd4 f i libucrt:output.obj
 0001:00012de0       ?write_string@?$string_output_adapter@D@__crt_stdio_output@@QEBAXQEBDHQEAH1@Z 0000000180013de0 f i libucrt:output.obj
 0001:00012e9c       ?write_string@?$string_output_adapter@_W@__crt_stdio_output@@QEBAXQEB_WHQEAH1@Z 0000000180013e9c f i libucrt:output.obj
 0001:00012f5c       __stdio_common_vfwprintf   0000000180013f5c f   libucrt:output.obj
 0001:00012fe8       __stdio_common_vsprintf    0000000180013fe8 f   libucrt:output.obj
 0001:0001321c       __stdio_common_vswprintf   000000018001421c f   libucrt:output.obj
 0001:00013454       free                       0000000180014454 f   libucrt:free.obj
 0001:0001345c       malloc                     000000018001445c f   libucrt:malloc.obj
 0001:00013464       __ascii_stricmp            0000000180014464 f   libucrt:stricmp.obj
 0001:000134a0       _stricmp                   00000001800144a0 f   libucrt:stricmp.obj
 0001:000134e8       _stricmp_l                 00000001800144e8 f   libucrt:stricmp.obj
 0001:0001359c       abort                      000000018001459c f   libucrt:abort.obj
 0001:000135f4       __acrt_initialize_new_handler 00000001800145f4 f   libucrt:new_handler.obj
 0001:000135fc       _callnewh                  00000001800145fc f   libucrt:new_handler.obj
 0001:0001363c       _query_new_handler         000000018001463c f   libucrt:new_handler.obj
 0001:00013670       _seh_filter_dll            0000000180014670 f   libucrt:exception_filter.obj
 0001:00013684       _seh_filter_exe            0000000180014684 f   libucrt:exception_filter.obj
 0001:00013a44       __acrt_initialize_thread_local_exit_callback 0000000180014a44 f   libucrt:exit.obj
 0001:00013a4c       _cexit                     0000000180014a4c f   libucrt:exit.obj
 0001:00013a5c       _exit                      0000000180014a5c f   libucrt:exit.obj
 0001:00013a68       _is_c_termination_complete 0000000180014a68 f   libucrt:exit.obj
 0001:00013c2c       __acrt_allocate_buffer_for_argv 0000000180014c2c f   libucrt:argv_parsing.obj
 0001:00013c90       _configure_narrow_argv     0000000180014c90 f   libucrt:argv_parsing.obj
 0001:00013fec       __dcrt_uninitialize_environments_nolock 0000000180014fec f   libucrt:environment_initialization.obj
 0001:00014024       _initialize_narrow_environment 0000000180015024 f   libucrt:environment_initialization.obj
 0001:0001402c       ??$?RV<lambda_b8c45f8f788dd370798f47cfe8ac3a86>@@AEAV<lambda_4e60a939b0d047cfe11ddc22648dfba9>@@V<lambda_332c3edc96d0294ec56c57d38c1cdfd5>@@@?$__crt_seh_guarded_call@H@@QEAAH$$QEAV<lambda_b8c45f8f788dd370798f47cfe8ac3a86>@@AEAV<lambda_4e60a939b0d047cfe11ddc22648dfba9>@@$$QEAV<lambda_332c3edc96d0294ec56c57d38c1cdfd5>@@@Z 000000018001502c f i libucrt:onexit.obj
 0001:00014068       ??$?RV<lambda_e24bbb7b643b32fcea6fa61b31d4c984>@@AEAV<lambda_275893d493268fdec8709772e3fcec0e>@@V<lambda_9d71df4d7cf3f480f8d633942495c3b0>@@@?$__crt_seh_guarded_call@H@@QEAAH$$QEAV<lambda_e24bbb7b643b32fcea6fa61b31d4c984>@@AEAV<lambda_275893d493268fdec8709772e3fcec0e>@@$$QEAV<lambda_9d71df4d7cf3f480f8d633942495c3b0>@@@Z 0000000180015068 f i libucrt:onexit.obj
 0001:000143e4       _crt_atexit                00000001800153e4 f   libucrt:onexit.obj
 0001:000143f4       _execute_onexit_table      00000001800153f4 f   libucrt:onexit.obj
 0001:00014430       _initialize_onexit_table   0000000180015430 f   libucrt:onexit.obj
 0001:00014470       _register_onexit_function  0000000180015470 f   libucrt:onexit.obj
 0001:000144f0       __acrt_uninitialize_command_line 00000001800154f0 f   libucrt:argv_data.obj
 0001:000145f0       __acrt_initialize          00000001800155f0 f   libucrt:initialization.obj
 0001:00014604       __acrt_thread_attach       0000000180015604 f   libucrt:initialization.obj
 0001:00014618       __acrt_thread_detach       0000000180015618 f   libucrt:initialization.obj
 0001:00014628       __acrt_uninitialize        0000000180015628 f   libucrt:initialization.obj
 0001:0001463c       __acrt_uninitialize_critical 000000018001563c f   libucrt:initialization.obj
 0001:0001464c       _initterm                  000000018001564c f   libucrt:initterm.obj
 0001:000146c4       _initterm_e                00000001800156c4 f   libucrt:initterm.obj
 0001:00014710       terminate                  0000000180015710 f   libucrt:terminate.obj
 0001:00014738       strcpy_s                   0000000180015738 f   libucrt:strcpy_s.obj
 0001:00014798       _free_base                 0000000180015798 f   libucrt:free_base.obj
 0001:000147d8       _malloc_base               00000001800157d8 f   libucrt:malloc_base.obj
 0001:00014838       _calloc_base               0000000180015838 f   libucrt:calloc_base.obj
 0001:000148b0       ??$is_overflow_condition@K@__crt_strtox@@YA_NIK@Z 00000001800158b0 f i libucrt:atox.obj
 0001:000148dc       ??$parse_integer@KV?$c_string_character_source@D@__crt_strtox@@@__crt_strtox@@YAKQEAU__crt_locale_pointers@@V?$c_string_character_source@D@0@H_N@Z 00000001800158dc f i libucrt:atox.obj
 0001:00014bf0       ??$parse_integer@KV?$c_string_character_source@_W@__crt_strtox@@@__crt_strtox@@YAKQEAU__crt_locale_pointers@@V?$c_string_character_source@_W@0@H_N@Z 0000000180015bf0 f i libucrt:atox.obj
 0001:000152c4       ??$?RV<lambda_46352004c1216016012b18bd6f87e700>@@AEAV<lambda_3bd07e1a1191394380780325891bf33f>@@V<lambda_334532d3f185bcaa59b5be82d7d22bff>@@@?$__crt_seh_guarded_call@X@@QEAAX$$QEAV<lambda_46352004c1216016012b18bd6f87e700>@@AEAV<lambda_3bd07e1a1191394380780325891bf33f>@@$$QEAV<lambda_334532d3f185bcaa59b5be82d7d22bff>@@@Z 00000001800162c4 f i libucrt:per_thread_data.obj
 0001:00015324       ??$?RV<lambda_5e887d1dcbef67a5eb4283622ba103bf>@@AEAV<lambda_4466841279450cc726390878d4a41900>@@V<lambda_341c25c0346d94847f1f3c463c57e077>@@@?$__crt_seh_guarded_call@X@@QEAAX$$QEAV<lambda_5e887d1dcbef67a5eb4283622ba103bf>@@AEAV<lambda_4466841279450cc726390878d4a41900>@@$$QEAV<lambda_341c25c0346d94847f1f3c463c57e077>@@@Z 0000000180016324 f i libucrt:per_thread_data.obj
 0001:0001536c       ??$?RV<lambda_72d1df2b273a38828b1ce30cbf4cdab5>@@AEAV<lambda_876a65b173b8412d3a47c70a915b0cf4>@@V<lambda_41932305e351933ebe8f8be3ed8bb5dc>@@@?$__crt_seh_guarded_call@X@@QEAAX$$QEAV<lambda_72d1df2b273a38828b1ce30cbf4cdab5>@@AEAV<lambda_876a65b173b8412d3a47c70a915b0cf4>@@$$QEAV<lambda_41932305e351933ebe8f8be3ed8bb5dc>@@@Z 000000018001636c f i libucrt:per_thread_data.obj
 0001:000153ac       ??$?RV<lambda_fb3a7dec4e47f37f22dae91bb15c9095>@@AEAV<lambda_698284760c8add0bfb0756c19673e34b>@@V<lambda_dfb8eca1e75fef3034a8fb18dd509707>@@@?$__crt_seh_guarded_call@X@@QEAAX$$QEAV<lambda_fb3a7dec4e47f37f22dae91bb15c9095>@@AEAV<lambda_698284760c8add0bfb0756c19673e34b>@@$$QEAV<lambda_dfb8eca1e75fef3034a8fb18dd509707>@@@Z 00000001800163ac f i libucrt:per_thread_data.obj
 0001:0001563c       __acrt_freeptd             000000018001663c f   libucrt:per_thread_data.obj
 0001:00015680       __acrt_getptd              0000000180016680 f   libucrt:per_thread_data.obj
 0001:00015714       __acrt_getptd_noexit       0000000180016714 f   libucrt:per_thread_data.obj
 0001:000157b4       __acrt_initialize_ptd      00000001800167b4 f   libucrt:per_thread_data.obj
 0001:000157f0       __acrt_uninitialize_ptd    00000001800167f0 f   libucrt:per_thread_data.obj
 0001:00015814       _query_app_type            0000000180016814 f   libucrt:report_runtime_error.obj
 0001:00015944       _itow_s                    0000000180016944 f   libucrt:xtoa.obj
 0001:00015964       _set_error_mode            0000000180016964 f   libucrt:set_error_mode.obj
 0001:000159a4       wcscat_s                   00000001800169a4 f   libucrt:wcscat_s.obj
 0001:00015a24       wcscpy_s                   0000000180016a24 f   libucrt:wcscpy_s.obj
 0001:00015a8c       wcsncat_s                  0000000180016a8c f   libucrt:wcsncat_s.obj
 0001:00015bb4       __acrt_show_wide_message_box 0000000180016bb4 f   libucrt:crtmbox.obj
 0001:00015cd0       __acrt_initialize_stdio    0000000180016cd0 f   libucrt:_file.obj
 0001:00015df0       __acrt_iob_func            0000000180016df0 f   libucrt:_file.obj
 0001:00015e04       __acrt_uninitialize_stdio  0000000180016e04 f   libucrt:_file.obj
 0001:00015e60       _lock_file                 0000000180016e60 f   libucrt:_file.obj
 0001:00015e6c       _unlock_file               0000000180016e6c f   libucrt:_file.obj
 0001:00015e78       __acrt_stdio_flush_nolock  0000000180016e78 f   libucrt:fflush.obj
 0001:00015ef0       _fflush_nolock             0000000180016ef0 f   libucrt:fflush.obj
 0001:00015f3c       _flushall                  0000000180016f3c f   libucrt:fflush.obj
 0001:0001602c       fflush                     000000018001702c f   libucrt:fflush.obj
 0001:00016070       ??$?RV<lambda_7a5ef57ff966f610505f1d28a3d40618>@@AEAV<lambda_b721fa326cdb32351d23dfa67958c160>@@V<lambda_5e0fb27672408a07956fe59e48ccb2aa>@@@?$__crt_seh_guarded_call@H@@QEAAH$$QEAV<lambda_7a5ef57ff966f610505f1d28a3d40618>@@AEAV<lambda_b721fa326cdb32351d23dfa67958c160>@@$$QEAV<lambda_5e0fb27672408a07956fe59e48ccb2aa>@@@Z 0000000180017070 f i libucrt:setvbuf.obj
 0001:000161a0       setvbuf                    00000001800171a0 f   libucrt:setvbuf.obj
 0001:00016240       ??$?RV<lambda_c36588078e9f5dfd39652860aa6b3aaf>@@AEAV<lambda_ec61778202f4f5fc7e7711acc23c3bca>@@V<lambda_dc9d2797ccde5d239b4a0efae8ebd7db>@@@?$__crt_seh_guarded_call@P6AXH@Z@@QEAAP6AXH@Z$$QEAV<lambda_c36588078e9f5dfd39652860aa6b3aaf>@@AEAV<lambda_ec61778202f4f5fc7e7711acc23c3bca>@@$$QEAV<lambda_dc9d2797ccde5d239b4a0efae8ebd7db>@@@Z 0000000180017240 f i libucrt:signal.obj
 0001:00016288       __acrt_get_sigabrt_handler 0000000180017288 f   libucrt:signal.obj
 0001:000162b8       __acrt_initialize_signal_handlers 00000001800172b8 f   libucrt:signal.obj
 0001:000162d8       raise                      00000001800172d8 f   libucrt:signal.obj
 0001:00016574       isdigit                    0000000180017574 f i libucrt:_ctype.obj
 0001:00016638       _tolower_l                 0000000180017638 f   libucrt:tolower_toupper.obj
 0001:00016778       tolower                    0000000180017778 f   libucrt:tolower_toupper.obj
 0001:000167a4       ??$make_c_string_character_source@DPEAPEAD@__crt_strtox@@YA?AV?$c_string_character_source@D@0@QEBDQEAPEAD@Z 00000001800177a4 f i libucrt:strtox.obj
 0001:000167a4       ??$make_c_string_character_source@_WPEAPEA_W@__crt_strtox@@YA?AV?$c_string_character_source@_W@0@QEB_WQEAPEA_W@Z 00000001800177a4 f i libucrt:strtox.obj
 0001:000167b8       strtol                     00000001800177b8 f   libucrt:strtox.obj
 0001:000167e8       wcstol                     00000001800177e8 f   libucrt:strtox.obj
 0001:00016818       _mbtowc_l                  0000000180017818 f   libucrt:mbtowc.obj
 0001:00016960       mbtowc                     0000000180017960 f   libucrt:mbtowc.obj
 0001:00016968       _wctomb_s_l                0000000180017968 f   libucrt:wctomb.obj
 0001:00016aec       wctomb_s                   0000000180017aec f   libucrt:wctomb.obj
 0001:00016b00       strnlen                    0000000180017b00 f   libucrt:strnlen.obj
 0001:00016c5c       wcsnlen                    0000000180017c5c f   libucrt:strnlen.obj
 0001:00016e4c       __acrt_update_locale_info  0000000180017e4c f   libucrt:locale_update.obj
 0001:00016e80       __acrt_update_multibyte_info 0000000180017e80 f   libucrt:locale_update.obj
 0001:00016eb4       ?__acrt_fp_classify@@YA?AW4__acrt_fp_class@@AEBN@Z 0000000180017eb4 f i libucrt:cvt.obj
 0001:000178ec       __acrt_fp_format           00000001800188ec f   libucrt:cvt.obj
 0001:00017b30       _fputwc_nolock             0000000180018b30 f   libucrt:fputwc.obj
 0001:00017cac       _fileno                    0000000180018cac f   libucrt:fileno.obj
 0001:00017cd4       _fputc_nolock              0000000180018cd4 f   libucrt:fputc.obj
 0001:00017cec       _get_printf_count_output   0000000180018cec f   libucrt:printf_count_output.obj
 0001:00017d04       __acrt_stdio_begin_temporary_buffering_nolock 0000000180018d04 f   libucrt:_sftbuf.obj
 0001:00017dd4       __acrt_stdio_end_temporary_buffering_nolock 0000000180018dd4 f   libucrt:_sftbuf.obj
 0001:00017e10       __acrt_set_locale_changed  0000000180018e10 f   libucrt:wsetlocale.obj
 0001:00017e1c       __acrt_uninitialize_locale 0000000180018e1c f   libucrt:wsetlocale.obj
 0001:0001804c       __acrt_initialize_lowio    000000018001904c f   libucrt:ioinit.obj
 0001:00018088       __acrt_uninitialize_lowio  0000000180019088 f   libucrt:ioinit.obj
 0001:000180c8       __acrt_initialize_locks    00000001800190c8 f   libucrt:locks.obj
 0001:00018110       __acrt_lock                0000000180019110 f   libucrt:locks.obj
 0001:0001812c       __acrt_uninitialize_locks  000000018001912c f   libucrt:locks.obj
 0001:00018164       __acrt_unlock              0000000180019164 f   libucrt:locks.obj
 0001:00018320       __acrt_FlsAlloc            0000000180019320 f   libucrt:winapi_thunks.obj
 0001:00018378       __acrt_FlsFree             0000000180019378 f   libucrt:winapi_thunks.obj
 0001:000183d0       __acrt_FlsGetValue         00000001800193d0 f   libucrt:winapi_thunks.obj
 0001:00018428       __acrt_FlsSetValue         0000000180019428 f   libucrt:winapi_thunks.obj
 0001:00018490       __acrt_InitializeCriticalSectionEx 0000000180019490 f   libucrt:winapi_thunks.obj
 0001:00018508       __acrt_LCMapStringEx       0000000180019508 f   libucrt:winapi_thunks.obj
 0001:000185f8       __acrt_LocaleNameToLCID    00000001800195f8 f   libucrt:winapi_thunks.obj
 0001:00018660       __acrt_MessageBoxW         0000000180019660 f   libucrt:winapi_thunks.obj
 0001:000186e8       __acrt_can_show_message_box 00000001800196e8 f   libucrt:winapi_thunks.obj
 0001:00018744       __acrt_get_parent_window   0000000180019744 f   libucrt:winapi_thunks.obj
 0001:000187d4       __acrt_initialize_winapi_thunks 00000001800197d4 f   libucrt:winapi_thunks.obj
 0001:0001880c       __acrt_is_interactive      000000018001980c f   libucrt:winapi_thunks.obj
 0001:000188e0       __acrt_is_packaged_app     00000001800198e0 f   libucrt:winapi_thunks.obj
 0001:00018968       __acrt_uninitialize_winapi_thunks 0000000180019968 f   libucrt:winapi_thunks.obj
 0001:00018e88       ?expand_if_necessary@?$argument_list@D@?A0xca0879c4@@AEAAHXZ 0000000180019e88 f i libucrt:argv_wildcards.obj
 0001:00018f50       __acrt_expand_narrow_argv_wildcards 0000000180019f50 f   libucrt:argv_wildcards.obj
 0001:00018f58       ??$?RV<lambda_99476a1ad63dd22509b5d3e65b0ffc95>@@AEAV<lambda_ad1ced32f4ac17aa236e5ef05d6b3b7c>@@V<lambda_f7424dd8d45958661754dc4f2697e9c3>@@@?$__crt_seh_guarded_call@X@@QEAAX$$QEAV<lambda_99476a1ad63dd22509b5d3e65b0ffc95>@@AEAV<lambda_ad1ced32f4ac17aa236e5ef05d6b3b7c>@@$$QEAV<lambda_f7424dd8d45958661754dc4f2697e9c3>@@@Z 0000000180019f58 f i libucrt:mbctype.obj
 0001:00019654       __acrt_initialize_multibyte 000000018001a654 f   libucrt:mbctype.obj
 0001:0001967c       __acrt_update_thread_multibyte_data 000000018001a67c f   libucrt:mbctype.obj
 0001:0001973c       _setmbcp_nolock            000000018001a73c f   libucrt:mbctype.obj
 0001:00019a5c       _ismbblead                 000000018001aa5c f   libucrt:ismbbyte.obj
 0001:00019a70       __acrt_initialize_command_line 000000018001aa70 f   libucrt:argv_data.obj
 0001:00019a98       __dcrt_get_narrow_environment_from_os 000000018001aa98 f   libucrt:get_environment_from_os.obj
 0001:00019b9c       _recalloc                  000000018001ab9c f   libucrt:recalloc.obj
 0001:00019ba4       _recalloc_base             000000018001aba4 f   libucrt:recalloc.obj
 0001:00019c3c       __acrt_initialize_heap     000000018001ac3c f   libucrt:heap_handle.obj
 0001:00019c58       __acrt_uninitialize_heap   000000018001ac58 f   libucrt:heap_handle.obj
 0001:00019c64       __acrt_execute_initializers 000000018001ac64 f   libucrt:shared_initialization.obj
 0001:00019cf8       __acrt_execute_uninitializers 000000018001acf8 f   libucrt:shared_initialization.obj
 0001:00019d48       __acrt_has_user_matherr    000000018001ad48 f   libucrt:matherr.obj
 0001:00019d68       __acrt_initialize_user_matherr 000000018001ad68 f   libucrt:matherr.obj
 0001:00019d70       __acrt_invoke_user_matherr 000000018001ad70 f   libucrt:matherr.obj
 0001:00019db8       _query_new_mode            000000018001adb8 f   libucrt:new_mode.obj
 0001:00019dc0       __pctype_func              000000018001adc0 f   libucrt:ctype.obj
 0001:00019df0       iswctype                   000000018001adf0 f   libucrt:iswctype.obj
 0001:00019e60       _isctype_l                 000000018001ae60 f   libucrt:isctype.obj
 0001:00019f70       __acrt_add_locale_ref      000000018001af70 f   libucrt:locale_refcounting.obj
 0001:00019ffc       __acrt_free_locale         000000018001affc f   libucrt:locale_refcounting.obj
 0001:0001a174       __acrt_locale_add_lc_time_reference 000000018001b174 f   libucrt:locale_refcounting.obj
 0001:0001a19c       __acrt_locale_free_lc_time_if_unreferenced 000000018001b19c f   libucrt:locale_refcounting.obj
 0001:0001a1d4       __acrt_locale_release_lc_time_reference 000000018001b1d4 f   libucrt:locale_refcounting.obj
 0001:0001a1fc       __acrt_release_locale_ref  000000018001b1fc f   libucrt:locale_refcounting.obj
 0001:0001a2a4       __acrt_update_thread_locale_data 000000018001b2a4 f   libucrt:locale_refcounting.obj
 0001:0001a314       _updatetlocinfoEx_nolock   000000018001b314 f   libucrt:locale_refcounting.obj
 0001:0001a37c       _fcloseall                 000000018001b37c f   libucrt:closeall.obj
 0001:0001a430       __acrt_stdio_free_buffer_nolock 000000018001b430 f   libucrt:_freebuf.obj
 0001:0001a470       ??$?RV<lambda_b521505b218e5242e90febf6bfebc422>@@AEAV<lambda_6978c1fb23f02e42e1d9e99668cc68aa>@@V<lambda_314360699dd331753a4119843814e9a7>@@@?$__crt_seh_guarded_call@H@@QEAAH$$QEAV<lambda_b521505b218e5242e90febf6bfebc422>@@AEAV<lambda_6978c1fb23f02e42e1d9e99668cc68aa>@@$$QEAV<lambda_314360699dd331753a4119843814e9a7>@@@Z 000000018001b470 f i libucrt:commit.obj
 0001:0001a4fc       _commit                    000000018001b4fc f   libucrt:commit.obj
 0001:0001ab30       _write                     000000018001bb30 f   libucrt:write.obj
 0001:0001ac1c       _write_nolock              000000018001bc1c f   libucrt:write.obj
 0001:0001af00       _isleadbyte_l              000000018001bf00 f i libucrt:_wctype.obj
 0001:0001b29c       __acrt_LCMapStringA        000000018001c29c f   libucrt:lcmapstringa.obj
 0001:0001b334       __acrt_fp_strflt_to_string 000000018001c334 f   libucrt:_fptostr.obj
 0001:0001b400       ?divide@__crt_strtox@@YA_KAEAUbig_integer@1@AEBU21@@Z 000000018001c400 f i libucrt:cfout.obj
 0001:0001b8d0       __acrt_fltout              000000018001c8d0 f   libucrt:cfout.obj
 0001:0001ced4       __acrt_stdio_flush_and_write_narrow_nolock 000000018001ded4 f   libucrt:_flsbuf.obj
 0001:0001cfbc       __acrt_stdio_flush_and_write_wide_nolock 000000018001dfbc f   libucrt:_flsbuf.obj
 0001:0001d0a8       _isatty                    000000018001e0a8 f   libucrt:isatty.obj
 0001:0001d108       __acrt_locale_free_monetary 000000018001e108 f   libucrt:initmon.obj
 0001:0001d214       __acrt_locale_free_numeric 000000018001e214 f   libucrt:initnum.obj
 0001:0001d2d8       __acrt_locale_free_time    000000018001e2d8 f   libucrt:inittime.obj
 0001:0001d3e0       __acrt_GetStringTypeA      000000018001e3e0 f   libucrt:getstringtypea.obj
 0001:0001d594       __acrt_lowio_create_handle_array 000000018001e594 f   libucrt:osfinfo.obj
 0001:0001d62c       __acrt_lowio_destroy_handle_array 000000018001e62c f   libucrt:osfinfo.obj
 0001:0001d67c       __acrt_lowio_ensure_fh_exists 000000018001e67c f   libucrt:osfinfo.obj
 0001:0001d734       __acrt_lowio_lock_fh       000000018001e734 f   libucrt:osfinfo.obj
 0001:0001d758       __acrt_lowio_unlock_fh     000000018001e758 f   libucrt:osfinfo.obj
 0001:0001d77c       _free_osfhnd               000000018001e77c f   libucrt:osfinfo.obj
 0001:0001d838       _get_osfhandle             000000018001e838 f   libucrt:osfinfo.obj
 0001:0001d978       __acrt_DownlevelLocaleNameToLCID 000000018001e978 f   libucrt:lcidtoname_downlevel.obj
 0001:0001da80       qsort                      000000018001ea80 f   libucrt:qsort.obj
 0001:0001ddb4       strncpy_s                  000000018001edb4 f   libucrt:strncpy_s.obj
 0001:0001de88       strpbrk                    000000018001ee88 f   libucrt:strpbrk.obj
 0001:0001df28       _mbsdec                    000000018001ef28 f   libucrt:mbsdec.obj
 0001:0001df30       _mbsdec_l                  000000018001ef30 f   libucrt:mbsdec.obj
 0001:0001dfe0       _msize                     000000018001efe0 f   libucrt:msize.obj
 0001:0001e01c       _realloc_base              000000018001f01c f   libucrt:realloc_base.obj
 0001:0001e0a0       _fclose_nolock             000000018001f0a0 f   libucrt:fclose.obj
 0001:0001e124       fclose                     000000018001f124 f   libucrt:fclose.obj
 0001:0001e31c       _lseeki64                  000000018001f31c f   libucrt:lseek.obj
 0001:0001e324       _lseeki64_nolock           000000018001f324 f   libucrt:lseek.obj
 0001:0001e32c       _putwch_nolock             000000018001f32c f   libucrt:putwch.obj
 0001:0001e388       __strncnt                  000000018001f388 f   libucrt:strncnt.obj
 0001:0001e3a0       fegetenv                   000000018001f3a0 f   libucrt:fegetenv.obj
 0001:0001e3c0       fesetenv                   000000018001f3c0 f   libucrt:fesetenv.obj
 0001:0001e40c       feholdexcept               000000018001f40c f   libucrt:feholdexcept.obj
 0001:0001e45c       ceil                       000000018001f45c f   libucrt:ceil.obj
 0001:0001e520       log10                      000000018001f520 f   libucrt:log10.obj
 0001:0001eacc       __acrt_stdio_allocate_buffer_nolock 000000018001facc f   libucrt:_getbuf.obj
 0001:0001eb30       ??$?RV<lambda_bfedae4ebbf01fab1bb6dcc6a9e276e0>@@AEAV<lambda_2fe9b910cf3cbf4a0ab98a02ba45b3ec>@@V<lambda_237c231691f317818eb88cc1d5d642d6>@@@?$__crt_seh_guarded_call@H@@QEAAH$$QEAV<lambda_bfedae4ebbf01fab1bb6dcc6a9e276e0>@@AEAV<lambda_2fe9b910cf3cbf4a0ab98a02ba45b3ec>@@$$QEAV<lambda_237c231691f317818eb88cc1d5d642d6>@@@Z 000000018001fb30 f i libucrt:close.obj
 0001:0001eba4       _close                     000000018001fba4 f   libucrt:close.obj
 0001:0001ec48       _close_nolock              000000018001fc48 f   libucrt:close.obj
 0001:0001ed04       ?__acrt_stdio_free_stream@@YAXV__crt_stdio_stream@@@Z 000000018001fd04 f   libucrt:stream.obj
 0001:0001ed48       __dcrt_lowio_initialize_console_output 000000018001fd48 f   libucrt:initcon.obj
 0001:0001ed84       __dcrt_terminate_console_output 000000018001fd84 f   libucrt:initcon.obj
 0001:0001eda4       _getfpcontrolword          000000018001fda4 f   libucrt:_fenvutils.obj
 0001:0001edbc       _getfpstatusword           000000018001fdbc f   libucrt:_fenvutils.obj
 0001:0001edd0       _setfpcontrolword          000000018001fdd0 f   libucrt:_fenvutils.obj
 0001:0001eddc       _setfpstatusword           000000018001fddc f   libucrt:_fenvutils.obj
 0001:0001ee2c       _clearfp                   000000018001fe2c f   libucrt:ieee.obj
 0001:0001ee80       _controlfp                 000000018001fe80 f   libucrt:ieee.obj
 0001:0001ee8c       _statusfp                  000000018001fe8c f   libucrt:ieee.obj
 0001:0001f290       _handle_error              0000000180020290 f   libucrt:libm_error.obj
 0001:0001f3b8       _handle_nan                00000001800203b8 f   libucrt:libm_error.obj
 0001:0001f3e0       __acrt_initialize_fma3     00000001800203e0 f   libucrt:fma3_available.obj
 0001:0001f450       _log10_special             0000000180020450 f   libucrt:log_special.obj
 0001:0001f520       _get_fpsr                  0000000180020520 f   libucrt:fpsr.obj
 0001:0001f530       _set_fpsr                  0000000180020530 f   libucrt:fpsr.obj
 0001:0001f53a       _fclrf                     000000018002053a f   libucrt:fpsr.obj
 0001:0001f54e       _frnd                      000000018002054e f   libucrt:fpsr.obj
 0001:0001f570       _raise_exc                 0000000180020570 f   libucrt:fpexcept.obj
 0001:0001f598       _raise_exc_ex              0000000180020598 f   libucrt:fpexcept.obj
 0001:0001f8a0       _set_errno_from_matherr    00000001800208a0 f   libucrt:fpexcept.obj
 0001:0001f8d0       _clrfp                     00000001800208d0 f   libucrt:fpctrl.obj
 0001:0001f8f0       _ctrlfp                    00000001800208f0 f   libucrt:fpctrl.obj
 0001:0001f96c       _set_statfp                000000018002096c f   libucrt:fpctrl.obj
 0001:0001f98c       _statfp                    000000018002098c f   libucrt:fpctrl.obj
 0001:0001f99e       IsProcessorFeaturePresent  000000018002099e f   kernel32:KERNEL32.dll
 0001:0001f9a4       RtlUnwindEx                00000001800209a4 f   kernel32:KERNEL32.dll
 0001:0001f9ac       ?DloadAcquireSectionWriteAccess@@YAXXZ 00000001800209ac f i DelayImp:delayhlp.obj
 0001:0001fa68       ?DloadGetSRWLockFunctionPointers@@YAEXZ 0000000180020a68 f i DelayImp:delayhlp.obj
 0001:0001fb04       ?DloadMakePermanentImageCommit@@YAXPEAX_K@Z 0000000180020b04 f i DelayImp:delayhlp.obj
 0001:0001fb9c       ?DloadObtainSection@@YAPEAXPEAK0@Z 0000000180020b9c f i DelayImp:delayhlp.obj
 0001:0001fc34       ?DloadProtectSection@@YAXKPEAK@Z 0000000180020c34 f i DelayImp:delayhlp.obj
 0001:0001fcc4       ?DloadReleaseSectionWriteAccess@@YAXXZ 0000000180020cc4 f i DelayImp:delayhlp.obj
 0001:0001fd68       __delayLoadHelper2         0000000180020d68 f   DelayImp:delayhlp.obj
 0001:00020070       _FindPESection             0000000180021070 f   LIBCMT:pesect.obj
 0001:000200c0       _IsNonwritableInCurrentImage 00000001800210c0 f   LIBCMT:pesect.obj
 0001:00020110       _ValidateImageBase         0000000180021110 f   LIBCMT:pesect.obj
 0001:00020140       __GSHandlerCheck           0000000180021140 f   LIBCMT:_gshandler_.obj
 0001:00020160       __GSHandlerCheckCommon     0000000180021160 f   LIBCMT:_gshandler_.obj
 0001:000201bc       strrchr                    00000001800211bc f   libvcruntime:strrchr.obj
 0001:00020310       memcmp                     0000000180021310 f   libvcruntime:memcmp.obj
 0001:000203d8       __GSHandlerCheck_EH        00000001800213d8 f   LIBCMT:gshandlereh.obj
 0001:00020470       _guard_dispatch_icall_nop  0000000180021470 f   LIBCMT:_guard_dispatch_.obj
 0002:00000000       __imp_GetCurrentThreadId   0000000180022000     kernel32:KERNEL32.dll
 0002:00000008       __imp_SetLastError         0000000180022008     kernel32:KERNEL32.dll
 0002:00000010       __imp_SetErrorMode         0000000180022010     kernel32:KERNEL32.dll
 0002:00000018       __imp_GetModuleHandleA     0000000180022018     kernel32:KERNEL32.dll
 0002:00000020       __imp_MultiByteToWideChar  0000000180022020     kernel32:KERNEL32.dll
 0002:00000028       __imp_GetLastError         0000000180022028     kernel32:KERNEL32.dll
 0002:00000030       __imp_LoadLibraryW         0000000180022030     kernel32:KERNEL32.dll
 0002:00000038       __imp_GetErrorMode         0000000180022038     kernel32:KERNEL32.dll
 0002:00000040       __imp_GetProcAddress       0000000180022040     kernel32:KERNEL32.dll
 0002:00000048       __imp_FreeLibrary          0000000180022048     kernel32:KERNEL32.dll
 0002:00000050       __imp_VirtualFree          0000000180022050     kernel32:KERNEL32.dll
 0002:00000058       __imp_VirtualAlloc         0000000180022058     kernel32:KERNEL32.dll
 0002:00000060       __imp_Sleep                0000000180022060     kernel32:KERNEL32.dll
 0002:00000068       __imp_GetSystemInfo        0000000180022068     kernel32:KERNEL32.dll
 0002:00000070       __imp_VirtualQuery         0000000180022070     kernel32:KERNEL32.dll
 0002:00000078       __imp_RtlCaptureContext    0000000180022078     kernel32:KERNEL32.dll
 0002:00000080       __imp_RtlLookupFunctionEntry 0000000180022080     kernel32:KERNEL32.dll
 0002:00000088       __imp_RtlVirtualUnwind     0000000180022088     kernel32:KERNEL32.dll
 0002:00000090       __imp_UnhandledExceptionFilter 0000000180022090     kernel32:KERNEL32.dll
 0002:00000098       __imp_SetUnhandledExceptionFilter 0000000180022098     kernel32:KERNEL32.dll
 0002:000000a0       __imp_GetCurrentProcess    00000001800220a0     kernel32:KERNEL32.dll
 0002:000000a8       __imp_TerminateProcess     00000001800220a8     kernel32:KERNEL32.dll
 0002:000000b0       __imp_IsProcessorFeaturePresent 00000001800220b0     kernel32:KERNEL32.dll
 0002:000000b8       __imp_IsDebuggerPresent    00000001800220b8     kernel32:KERNEL32.dll
 0002:000000c0       __imp_GetStartupInfoW      00000001800220c0     kernel32:KERNEL32.dll
 0002:000000c8       __imp_GetModuleHandleW     00000001800220c8     kernel32:KERNEL32.dll
 0002:000000d0       __imp_QueryPerformanceCounter 00000001800220d0     kernel32:KERNEL32.dll
 0002:000000d8       __imp_GetCurrentProcessId  00000001800220d8     kernel32:KERNEL32.dll
 0002:000000e0       __imp_GetSystemTimeAsFileTime 00000001800220e0     kernel32:KERNEL32.dll
 0002:000000e8       __imp_InitializeSListHead  00000001800220e8     kernel32:KERNEL32.dll
 0002:000000f0       __imp_RtlPcToFileHeader    00000001800220f0     kernel32:KERNEL32.dll
 0002:000000f8       __imp_EncodePointer        00000001800220f8     kernel32:KERNEL32.dll
 0002:00000100       __imp_RaiseException       0000000180022100     kernel32:KERNEL32.dll
 0002:00000108       __imp_RtlUnwindEx          0000000180022108     kernel32:KERNEL32.dll
 0002:00000110       __imp_InterlockedFlushSList 0000000180022110     kernel32:KERNEL32.dll
 0002:00000118       __imp_EnterCriticalSection 0000000180022118     kernel32:KERNEL32.dll
 0002:00000120       __imp_LeaveCriticalSection 0000000180022120     kernel32:KERNEL32.dll
 0002:00000128       __imp_DeleteCriticalSection 0000000180022128     kernel32:KERNEL32.dll
 0002:00000130       __imp_InitializeCriticalSectionAndSpinCount 0000000180022130     kernel32:KERNEL32.dll
 0002:00000138       __imp_TlsAlloc             0000000180022138     kernel32:KERNEL32.dll
 0002:00000140       __imp_TlsGetValue          0000000180022140     kernel32:KERNEL32.dll
 0002:00000148       __imp_TlsSetValue          0000000180022148     kernel32:KERNEL32.dll
 0002:00000150       __imp_TlsFree              0000000180022150     kernel32:KERNEL32.dll
 0002:00000158       __imp_LoadLibraryExW       0000000180022158     kernel32:KERNEL32.dll
 0002:00000160       __imp_GetStdHandle         0000000180022160     kernel32:KERNEL32.dll
 0002:00000168       __imp_GetFileType          0000000180022168     kernel32:KERNEL32.dll
 0002:00000170       __imp_GetModuleFileNameA   0000000180022170     kernel32:KERNEL32.dll
 0002:00000178       __imp_GetModuleFileNameW   0000000180022178     kernel32:KERNEL32.dll
 0002:00000180       __imp_GetModuleHandleExW   0000000180022180     kernel32:KERNEL32.dll
 0002:00000188       __imp_WriteConsoleW        0000000180022188     kernel32:KERNEL32.dll
 0002:00000190       __imp_ExitProcess          0000000180022190     kernel32:KERNEL32.dll
 0002:00000198       __imp_WideCharToMultiByte  0000000180022198     kernel32:KERNEL32.dll
 0002:000001a0       __imp_HeapFree             00000001800221a0     kernel32:KERNEL32.dll
 0002:000001a8       __imp_HeapAlloc            00000001800221a8     kernel32:KERNEL32.dll
 0002:000001b0       __imp_WriteFile            00000001800221b0     kernel32:KERNEL32.dll
 0002:000001b8       __imp_OutputDebugStringW   00000001800221b8     kernel32:KERNEL32.dll
 0002:000001c0       __imp_CloseHandle          00000001800221c0     kernel32:KERNEL32.dll
 0002:000001c8       __imp_WaitForSingleObjectEx 00000001800221c8     kernel32:KERNEL32.dll
 0002:000001d0       __imp_CreateThread         00000001800221d0     kernel32:KERNEL32.dll
 0002:000001d8       __imp_GetACP               00000001800221d8     kernel32:KERNEL32.dll
 0002:000001e0       __imp_LCMapStringW         00000001800221e0     kernel32:KERNEL32.dll
 0002:000001e8       __imp_FindClose            00000001800221e8     kernel32:KERNEL32.dll
 0002:000001f0       __imp_FindFirstFileExA     00000001800221f0     kernel32:KERNEL32.dll
 0002:000001f8       __imp_FindNextFileA        00000001800221f8     kernel32:KERNEL32.dll
 0002:00000200       __imp_IsValidCodePage      0000000180022200     kernel32:KERNEL32.dll
 0002:00000208       __imp_GetOEMCP             0000000180022208     kernel32:KERNEL32.dll
 0002:00000210       __imp_GetCPInfo            0000000180022210     kernel32:KERNEL32.dll
 0002:00000218       __imp_GetCommandLineA      0000000180022218     kernel32:KERNEL32.dll
 0002:00000220       __imp_GetCommandLineW      0000000180022220     kernel32:KERNEL32.dll
 0002:00000228       __imp_GetEnvironmentStringsW 0000000180022228     kernel32:KERNEL32.dll
 0002:00000230       __imp_FreeEnvironmentStringsW 0000000180022230     kernel32:KERNEL32.dll
 0002:00000238       __imp_GetProcessHeap       0000000180022238     kernel32:KERNEL32.dll
 0002:00000240       __imp_GetStringTypeW       0000000180022240     kernel32:KERNEL32.dll
 0002:00000248       __imp_FlushFileBuffers     0000000180022248     kernel32:KERNEL32.dll
 0002:00000250       __imp_GetConsoleCP         0000000180022250     kernel32:KERNEL32.dll
 0002:00000258       __imp_GetConsoleMode       0000000180022258     kernel32:KERNEL32.dll
 0002:00000260       __imp_SetStdHandle         0000000180022260     kernel32:KERNEL32.dll
 0002:00000268       __imp_HeapSize             0000000180022268     kernel32:KERNEL32.dll
 0002:00000270       __imp_HeapReAlloc          0000000180022270     kernel32:KERNEL32.dll
 0002:00000278       __imp_SetFilePointerEx     0000000180022278     kernel32:KERNEL32.dll
 0002:00000280       __imp_CreateFileW          0000000180022280     kernel32:KERNEL32.dll
 0002:00000288       __imp_VirtualProtect       0000000180022288     kernel32:KERNEL32.dll
 0002:00000290       __imp_LoadLibraryExA       0000000180022290     kernel32:KERNEL32.dll
 0002:00000298       \177KERNEL32_NULL_THUNK_DATA 0000000180022298     kernel32:KERNEL32.dll
 0002:000002a0       __guard_check_icall_fptr   00000001800222a0     LIBCMT:guard_support.obj
 0002:000002a8       __guard_dispatch_icall_fptr 00000001800222a8     LIBCMT:guard_support.obj
 0002:000002b0       __xc_a                     00000001800222b0     LIBCMT:initializers.obj
 0002:000002c0       _register_ffi_bindings_    00000001800222c0     ffi.obj
 0002:000002c8       __xc_z                     00000001800222c8     LIBCMT:initializers.obj
 0002:000002d0       __xi_a                     00000001800222d0     LIBCMT:initializers.obj
 0002:000002d8       __acrt_stdio_initializer   00000001800222d8     libucrt:stdio_initializer.obj
 0002:000002e0       __acrt_multibyte_initializer 00000001800222e0     libucrt:multibyte_initializer.obj
 0002:000002e8       __acrt_tran_fma3_initializer 00000001800222e8     libucrt:fma3_initializer.obj
 0002:000002f0       __xi_z                     00000001800222f0     LIBCMT:initializers.obj
 0002:000002f8       __xp_a                     00000001800222f8     LIBCMT:initializers.obj
 0002:00000300       __acrt_locale_terminator   0000000180022300     libucrt:locale_initializer.obj
 0002:00000308       __dcrt_console_output_terminator 0000000180022308     libucrt:console_output_initializer.obj
 0002:00000310       __acrt_stdio_terminator    0000000180022310     libucrt:stdio_initializer.obj
 0002:00000318       __xp_z                     0000000180022318     LIBCMT:initializers.obj
 0002:00000320       __xt_a                     0000000180022320     LIBCMT:initializers.obj
 0002:00000328       __xt_z                     0000000180022328     LIBCMT:initializers.obj
 0002:00000330       __sz_node_exe              0000000180022330     node:node.exe
 0002:00000348       ??_7exception@std@@6B@     0000000180022348     libcpmt:xthrow.obj
 0002:00000358       ??_C@_0BC@EOODALEL@Unknown?5exception?$AA@ 0000000180022358     libcpmt:xthrow.obj
 0002:00000378       ??_7bad_alloc@std@@6B@     0000000180022378     libcpmt:xthrow.obj
 0002:00000388       ??_C@_0P@GHFPNOJB@bad?5allocation?$AA@ 0000000180022388     libcpmt:xthrow.obj
 0002:000003a0       ??_7logic_error@std@@6B@   00000001800223a0     libcpmt:xthrow.obj
 0002:000003b8       ??_7length_error@std@@6B@  00000001800223b8     libcpmt:xthrow.obj
 0002:000003d0       ??_7out_of_range@std@@6B@  00000001800223d0     libcpmt:xthrow.obj
 0002:000003e8       ??_7type_info@@6B@         00000001800223e8     LIBCMT:std_type_info_static.obj
 0002:000003f0       _pDefaultRawDllMain        00000001800223f0     LIBCMT:dll_dllmain.obj
 0002:000003f0       _pRawDllMain               00000001800223f0     LIBCMT:dll_dllmain.obj
 0002:00000410       ??_7bad_array_new_length@std@@6B@ 0000000180022410     LIBCMT:throw_bad_alloc.obj
 0002:00000420       ??_C@_0BF@KINCDENJ@bad?5array?5new?5length?$AA@ 0000000180022420     LIBCMT:throw_bad_alloc.obj
 0002:00000438       _pDestructExceptionObject  0000000180022438     libvcruntime:frame.obj
 0002:00000448       ??_7bad_exception@std@@6B@ 0000000180022448     libvcruntime:frame.obj
 0002:00000458       ??_C@_0O@DPKOEFFH@bad?5exception?$AA@ 0000000180022458     libvcruntime:frame.obj
 0002:00000568       ??_C@_1BC@DNHGCMLG@?$AAa?$AAd?$AAv?$AAa?$AAp?$AAi?$AA3?$AA2?$AA?$AA@ 0000000180022568     libvcruntime:winapi_downlevel.obj
 0002:00000580       ??_C@_1DM@KHCHBNEB@?$AAa?$AAp?$AAi?$AA?9?$AAm?$AAs?$AA?9?$AAw?$AAi?$AAn?$AA?9?$AAc?$AAo?$AAr?$AAe?$AA?9?$AAf?$AAi?$AAb?$AAe?$AAr?$AAs?$AA?9?$AAl?$AA1?$AA?9?$AA1?$AA?9?$AA1?$AA?$AA@ 0000000180022580     libvcruntime:winapi_downlevel.obj
 0002:000005c0       ??_C@_1DK@LPPGFMPP@?$AAa?$AAp?$AAi?$AA?9?$AAm?$AAs?$AA?9?$AAw?$AAi?$AAn?$AA?9?$AAc?$AAo?$AAr?$AAe?$AA?9?$AAs?$AAy?$AAn?$AAc?$AAh?$AA?9?$AAl?$AA1?$AA?9?$AA2?$AA?9?$AA0?$AA?$AA@ 00000001800225c0     libvcruntime:winapi_downlevel.obj
 0002:00000600       ??_C@_1BC@GDMECMAK@?$AAk?$AAe?$AAr?$AAn?$AAe?$AAl?$AA3?$AA2?$AA?$AA@ 0000000180022600     libvcruntime:winapi_downlevel.obj
 0002:00000620       ??_C@_08KNHFBNJ@FlsAlloc?$AA@ 0000000180022620     libvcruntime:winapi_downlevel.obj
 0002:00000638       ??_C@_07PEJMOBNF@FlsFree?$AA@ 0000000180022638     libvcruntime:winapi_downlevel.obj
 0002:00000648       ??_C@_0M@GDNOONDI@FlsGetValue?$AA@ 0000000180022648     libvcruntime:winapi_downlevel.obj
 0002:00000660       ??_C@_0M@JCPCPOEF@FlsSetValue?$AA@ 0000000180022660     libvcruntime:winapi_downlevel.obj
 0002:00000678       ??_C@_0BM@HCFOFFN@InitializeCriticalSectionEx?$AA@ 0000000180022678     libvcruntime:winapi_downlevel.obj
 0002:000009c0       ??_C@_08EHJDFFNH@__based?$CI?$AA@ 00000001800229c0     libvcruntime:undname.obj
 0002:000009d0       ??_C@_07KOLFKCDI@__cdecl?$AA@ 00000001800229d0     libvcruntime:undname.obj
 0002:000009d8       ??_C@_08GHMPAG@__pascal?$AA@ 00000001800229d8     libvcruntime:undname.obj
 0002:000009e8       ??_C@_09IFJBGAPI@__stdcall?$AA@ 00000001800229e8     libvcruntime:undname.obj
 0002:000009f8       ??_C@_0L@NPHFGOKO@__thiscall?$AA@ 00000001800229f8     libvcruntime:undname.obj
 0002:00000a08       ??_C@_0L@JMKHOMEK@__fastcall?$AA@ 0000000180022a08     libvcruntime:undname.obj
 0002:00000a18       ??_C@_0N@BCKKPABJ@__vectorcall?$AA@ 0000000180022a18     libvcruntime:undname.obj
 0002:00000a28       ??_C@_09HIJEGCPM@__clrcall?$AA@ 0000000180022a28     libvcruntime:undname.obj
 0002:00000a34       ??_C@_06GHPCKEAG@__eabi?$AA@ 0000000180022a34     libvcruntime:undname.obj
 0002:00000a40       ??_C@_07JOMMBBKO@__ptr64?$AA@ 0000000180022a40     libvcruntime:undname.obj
 0002:00000a48       ??_C@_0L@PILCLIHE@__restrict?$AA@ 0000000180022a48     libvcruntime:undname.obj
 0002:00000a58       ??_C@_0M@GFIIJFMG@__unaligned?$AA@ 0000000180022a58     libvcruntime:undname.obj
 0002:00000a68       ??_C@_09DHDLOLLB@restrict?$CI?$AA@ 0000000180022a68     libvcruntime:undname.obj
 0002:00000a72       ??_C@_00CNPNBAHC@?$AA@     0000000180022a72     libvcruntime:undname.obj
 0002:00000a74       ??_C@_04NIHEBCM@?5new?$AA@ 0000000180022a74     libvcruntime:undname.obj
 0002:00000a80       ??_C@_07FPCDHGMM@?5delete?$AA@ 0000000180022a80     libvcruntime:undname.obj
 0002:00000a88       ??_C@_01NEMOKFLO@?$DN?$AA@ 0000000180022a88     libvcruntime:undname.obj
 0002:00000a8c       ??_C@_02GPIOPFAK@?$DO?$DO?$AA@ 0000000180022a8c     libvcruntime:undname.obj
 0002:00000a90       ??_C@_02FODMEDOG@?$DM?$DM?$AA@ 0000000180022a90     libvcruntime:undname.obj
 0002:00000a94       ??_C@_01DCLJPIOD@?$CB?$AA@ 0000000180022a94     libvcruntime:undname.obj
 0002:00000a98       ??_C@_02EGOFBIJA@?$DN?$DN?$AA@ 0000000180022a98     libvcruntime:undname.obj
 0002:00000a9c       ??_C@_02FDNJECIE@?$CB?$DN?$AA@ 0000000180022a9c     libvcruntime:undname.obj
 0002:00000aa0       ??_C@_02GPECMEKF@?$FL?$FN?$AA@ 0000000180022aa0     libvcruntime:undname.obj
 0002:00000aa8       ??_C@_08LHJFAFGD@operator?$AA@ 0000000180022aa8     libvcruntime:undname.obj
 0002:00000ab4       ??_C@_02HBOOOICD@?9?$DO?$AA@ 0000000180022ab4     libvcruntime:undname.obj
 0002:00000ab8       ??_C@_01NBENCBCI@?$CK?$AA@ 0000000180022ab8     libvcruntime:undname.obj
 0002:00000abc       ??_C@_02ECNGHCIF@?$CL?$CL?$AA@ 0000000180022abc     libvcruntime:undname.obj
 0002:00000ac0       ??_C@_02BAABKJLB@?9?9?$AA@ 0000000180022ac0     libvcruntime:undname.obj
 0002:00000ac4       ??_C@_01JOAMLHOP@?9?$AA@   0000000180022ac4     libvcruntime:undname.obj
 0002:00000ac8       ??_C@_01MIFGBAGJ@?$CL?$AA@ 0000000180022ac8     libvcruntime:undname.obj
 0002:00000acc       ??_C@_01HNPIGOCE@?$CG?$AA@ 0000000180022acc     libvcruntime:undname.obj
 0002:00000ad0       ??_C@_03MNHNFDLC@?9?$DO?$CK?$AA@ 0000000180022ad0     libvcruntime:undname.obj
 0002:00000ad4       ??_C@_01KMDKNFGN@?1?$AA@   0000000180022ad4     libvcruntime:undname.obj
 0002:00000ad8       ??_C@_01FGNFDNOH@?$CF?$AA@ 0000000180022ad8     libvcruntime:undname.obj
 0002:00000adc       ??_C@_01MNNFJEPP@?$DM?$AA@ 0000000180022adc     libvcruntime:undname.obj
 0002:00000ae0       ??_C@_02EHCHHCKH@?$DM?$DN?$AA@ 0000000180022ae0     libvcruntime:undname.obj
 0002:00000ae4       ??_C@_01PPODPGHN@?$DO?$AA@ 0000000180022ae4     libvcruntime:undname.obj
 0002:00000ae8       ??_C@_02EEKDKGMJ@?$DO?$DN?$AA@ 0000000180022ae8     libvcruntime:undname.obj
 0002:00000aec       ??_C@_01IHBHIGKO@?0?$AA@   0000000180022aec     libvcruntime:undname.obj
 0002:00000af0       ??_C@_02HCKGKOFO@?$CI?$CJ?$AA@ 0000000180022af0     libvcruntime:undname.obj
 0002:00000af4       ??_C@_01PJKLJHI@?$HO?$AA@  0000000180022af4     libvcruntime:undname.obj
 0002:00000af8       ??_C@_01JKBOJNNK@?$FO?$AA@ 0000000180022af8     libvcruntime:undname.obj
 0002:00000afc       ??_C@_01DNKMNLPK@?$HM?$AA@ 0000000180022afc     libvcruntime:undname.obj
 0002:00000b00       ??_C@_02PPKAJPJL@?$CG?$CG?$AA@ 0000000180022b00     libvcruntime:undname.obj
 0002:00000b04       ??_C@_02NONPIBCD@?$HM?$HM?$AA@ 0000000180022b04     libvcruntime:undname.obj
 0002:00000b08       ??_C@_02FPIMKNGF@?$CK?$DN?$AA@ 0000000180022b08     libvcruntime:undname.obj
 0002:00000b0c       ??_C@_02FOEOMHFC@?$CL?$DN?$AA@ 0000000180022b0c     libvcruntime:undname.obj
 0002:00000b10       ??_C@_02FKMDLLOA@?9?$DN?$AA@ 0000000180022b10     libvcruntime:undname.obj
 0002:00000b14       ??_C@_02FJEHGPIO@?1?$DN?$AA@ 0000000180022b14     libvcruntime:undname.obj
 0002:00000b18       ??_C@_02FENAOKFI@?$CF?$DN?$AA@ 0000000180022b18     libvcruntime:undname.obj
 0002:00000b1c       ??_C@_03IKFCCPFF@?$DO?$DO?$DN?$AA@ 0000000180022b1c     libvcruntime:undname.obj
 0002:00000b20       ??_C@_03CDNPDDLA@?$DM?$DM?$DN?$AA@ 0000000180022b20     libvcruntime:undname.obj
 0002:00000b24       ??_C@_02FGJGFEAB@?$CG?$DN?$AA@ 0000000180022b24     libvcruntime:undname.obj
 0002:00000b28       ??_C@_02DHLNPPGH@?$HM?$DN?$AA@ 0000000180022b28     libvcruntime:undname.obj
 0002:00000b2c       ??_C@_02MHEGNOJ@?$FO?$DN?$AA@ 0000000180022b2c     libvcruntime:undname.obj
 0002:00000b30       ??_C@_09IFPLHPGF@?$GAvftable?8?$AA@ 0000000180022b30     libvcruntime:undname.obj
 0002:00000b40       ??_C@_09BLBHBJP@?$GAvbtable?8?$AA@ 0000000180022b40     libvcruntime:undname.obj
 0002:00000b50       ??_C@_07FEEIOKP@?$GAvcall?8?$AA@ 0000000180022b50     libvcruntime:undname.obj
 0002:00000b58       ??_C@_08LLFFHHDJ@?$GAtypeof?8?$AA@ 0000000180022b58     libvcruntime:undname.obj
 0002:00000b68       ??_C@_0BF@KDPPACIK@?$GAlocal?5static?5guard?8?$AA@ 0000000180022b68     libvcruntime:undname.obj
 0002:00000b80       ??_C@_08OBABFOLI@?$GAstring?8?$AA@ 0000000180022b80     libvcruntime:undname.obj
 0002:00000b90       ??_C@_0BD@JDLKDPAB@?$GAvbase?5destructor?8?$AA@ 0000000180022b90     libvcruntime:undname.obj
 0002:00000ba8       ??_C@_0BN@DEGPLNFK@?$GAvector?5deleting?5destructor?8?$AA@ 0000000180022ba8     libvcruntime:undname.obj
 0002:00000bc8       ??_C@_0BO@OBMKPJIG@?$GAdefault?5constructor?5closure?8?$AA@ 0000000180022bc8     libvcruntime:undname.obj
 0002:00000be8       ??_C@_0BN@IMDCHIKM@?$GAscalar?5deleting?5destructor?8?$AA@ 0000000180022be8     libvcruntime:undname.obj
 0002:00000c08       ??_C@_0BO@PFGOCPJJ@?$GAvector?5constructor?5iterator?8?$AA@ 0000000180022c08     libvcruntime:undname.obj
 0002:00000c28       ??_C@_0BN@LFPFMEDL@?$GAvector?5destructor?5iterator?8?$AA@ 0000000180022c28     libvcruntime:undname.obj
 0002:00000c48       ??_C@_0CE@IKBNEHA@?$GAvector?5vbase?5constructor?5iterat@ 0000000180022c48     libvcruntime:undname.obj
 0002:00000c70       ??_C@_0BL@NILFHHPC@?$GAvirtual?5displacement?5map?8?$AA@ 0000000180022c70     libvcruntime:undname.obj
 0002:00000c90       ??_C@_0CB@JONCMFFK@?$GAeh?5vector?5constructor?5iterator?8@ 0000000180022c90     libvcruntime:undname.obj
 0002:00000cb8       ??_C@_0CA@GCEOPDGL@?$GAeh?5vector?5destructor?5iterator?8?$AA@ 0000000180022cb8     libvcruntime:undname.obj
 0002:00000cd8       ??_C@_0CH@OOJPLCPH@?$GAeh?5vector?5vbase?5constructor?5ite@ 0000000180022cd8     libvcruntime:undname.obj
 0002:00000d00       ??_C@_0BL@LLKPOHJI@?$GAcopy?5constructor?5closure?8?$AA@ 0000000180022d00     libvcruntime:undname.obj
 0002:00000d20       ??_C@_0BA@KBCDOMBN@?$GAudt?5returning?8?$AA@ 0000000180022d20     libvcruntime:undname.obj
 0002:00000d30       ??_C@_03KLGMFNMG@?$GAEH?$AA@ 0000000180022d30     libvcruntime:undname.obj
 0002:00000d34       ??_C@_05KHLCHHI@?$GARTTI?$AA@ 0000000180022d34     libvcruntime:undname.obj
 0002:00000d40       ??_C@_0BA@KKLDJDLB@?$GAlocal?5vftable?8?$AA@ 0000000180022d40     libvcruntime:undname.obj
 0002:00000d50       ??_C@_0CE@IIHCMGGL@?$GAlocal?5vftable?5constructor?5closu@ 0000000180022d50     libvcruntime:undname.obj
 0002:00000d74       ??_C@_06FHBGPFGH@?5new?$FL?$FN?$AA@ 0000000180022d74     libvcruntime:undname.obj
 0002:00000d80       ??_C@_09LBNFPBCA@?5delete?$FL?$FN?$AA@ 0000000180022d80     libvcruntime:undname.obj
 0002:00000d90       ??_C@_0P@HJKNJFNN@?$GAomni?5callsig?8?$AA@ 0000000180022d90     libvcruntime:undname.obj
 0002:00000da0       ??_C@_0BL@CNOONJFP@?$GAplacement?5delete?5closure?8?$AA@ 0000000180022da0     libvcruntime:undname.obj
 0002:00000dc0       ??_C@_0BN@CKNJLHMB@?$GAplacement?5delete?$FL?$FN?5closure?8?$AA@ 0000000180022dc0     libvcruntime:undname.obj
 0002:00000de0       ??_C@_0CG@CFDHKGGD@?$GAmanaged?5vector?5constructor?5iter@ 0000000180022de0     libvcruntime:undname.obj
 0002:00000e08       ??_C@_0CF@IMGKMJNO@?$GAmanaged?5vector?5destructor?5itera@ 0000000180022e08     libvcruntime:undname.obj
 0002:00000e30       ??_C@_0CG@HLDDJMAG@?$GAeh?5vector?5copy?5constructor?5iter@ 0000000180022e30     libvcruntime:undname.obj
 0002:00000e58       ??_C@_0CM@FCBBDIGB@?$GAeh?5vector?5vbase?5copy?5constructo@ 0000000180022e58     libvcruntime:undname.obj
 0002:00000e88       ??_C@_0BL@CLIPGLGB@?$GAdynamic?5initializer?5for?5?8?$AA@ 0000000180022e88     libvcruntime:undname.obj
 0002:00000ea8       ??_C@_0CB@PDBIFEP@?$GAdynamic?5atexit?5destructor?5for?5?8@ 0000000180022ea8     libvcruntime:undname.obj
 0002:00000ed0       ??_C@_0CD@CGAJBKEJ@?$GAvector?5copy?5constructor?5iterato@ 0000000180022ed0     libvcruntime:undname.obj
 0002:00000ef8       ??_C@_0CJ@GJELGAMM@?$GAvector?5vbase?5copy?5constructor?5i@ 0000000180022ef8     libvcruntime:undname.obj
 0002:00000f28       ??_C@_0CL@FGIJHLCE@?$GAmanaged?5vector?5copy?5constructor@ 0000000180022f28     libvcruntime:undname.obj
 0002:00000f58       ??_C@_0BM@PMGGMLDN@?$GAlocal?5static?5thread?5guard?8?$AA@ 0000000180022f58     libvcruntime:undname.obj
 0002:00000f78       ??_C@_0N@BDNMDMOL@operator?5?$CC?$CC?5?$AA@ 0000000180022f78     libvcruntime:undname.obj
 0002:00000f88       ??_C@_0BC@DAFEJGAK@?5Type?5Descriptor?8?$AA@ 0000000180022f88     libvcruntime:undname.obj
 0002:00000fa0       ??_C@_0BM@LDKODKLH@?5Base?5Class?5Descriptor?5at?5?$CI?$AA@ 0000000180022fa0     libvcruntime:undname.obj
 0002:00000fc0       ??_C@_0BD@LGICGFMM@?5Base?5Class?5Array?8?$AA@ 0000000180022fc0     libvcruntime:undname.obj
 0002:00000fd8       ??_C@_0BN@MECKDCOJ@?5Class?5Hierarchy?5Descriptor?8?$AA@ 0000000180022fd8     libvcruntime:undname.obj
 0002:00000ff8       ??_C@_0BK@CFCOFLF@?5Complete?5Object?5Locator?8?$AA@ 0000000180022ff8     libvcruntime:undname.obj
 0002:00001190       ??_C@_1EK@MBDPDCGA@?$AAM?$AAi?$AAc?$AAr?$AAo?$AAs?$AAo?$AAf?$AAt?$AA?5?$AAV?$AAi?$AAs?$AAu?$AAa?$AAl?$AA?5?$AAC?$AA?$CL?$AA?$CL?$AA?5?$AAR?$AAu?$AAn?$AAt?$AAi?$AAm?$AAe?$AA?5?$AAL?$AAi?$AAb@ 0000000180023190     libucrt:assert.obj
 0002:000011e0       ??_C@_1FE@LHBLIKM@?$AAA?$AAs?$AAs?$AAe?$AAr?$AAt?$AAi?$AAo?$AAn?$AA?5?$AAf?$AAa?$AAi?$AAl?$AAe?$AAd?$AA?3?$AA?5?$AA?$CF?$AAT?$AAs?$AA?0?$AA?5?$AAf?$AAi?$AAl?$AAe?$AA?5?$AA?$CF?$AAT?$AAs?$AA?0@ 00000001800231e0     libucrt:assert.obj
 0002:00001238       ??_C@_1CE@OJBNHDMO@?$AAA?$AAs?$AAs?$AAe?$AAr?$AAt?$AAi?$AAo?$AAn?$AA?5?$AAf?$AAa?$AAi?$AAl?$AAe?$AAd?$AA?$CB?$AA?$AA@ 0000000180023238     libucrt:assert.obj
 0002:00001260       ??_C@_1BE@PHKBBGE@?$AAP?$AAr?$AAo?$AAg?$AAr?$AAa?$AAm?$AA?3?$AA?5?$AA?$AA@ 0000000180023260     libucrt:assert.obj
 0002:00001278       ??_C@_1O@HEMHKNDC@?$AAF?$AAi?$AAl?$AAe?$AA?3?$AA?5?$AA?$AA@ 0000000180023278     libucrt:assert.obj
 0002:00001288       ??_C@_1O@KCAFKHJE@?$AAL?$AAi?$AAn?$AAe?$AA?3?$AA?5?$AA?$AA@ 0000000180023288     libucrt:assert.obj
 0002:00001298       ??_C@_1BK@PEDCIPMA@?$AAE?$AAx?$AAp?$AAr?$AAe?$AAs?$AAs?$AAi?$AAo?$AAn?$AA?3?$AA?5?$AA?$AA@ 0000000180023298     libucrt:assert.obj
 0002:000012c0       ??_C@_1OA@EGMLFBHJ@?$AAF?$AAo?$AAr?$AA?5?$AAi?$AAn?$AAf?$AAo?$AAr?$AAm?$AAa?$AAt?$AAi?$AAo?$AAn?$AA?5?$AAo?$AAn?$AA?5?$AAh?$AAo?$AAw?$AA?5?$AAy?$AAo?$AAu?$AAr?$AA?5?$AAp?$AAr?$AAo?$AAg@ 00000001800232c0     libucrt:assert.obj
 0002:000013a0       ??_C@_1HK@POCJMFGK@?$AA?$CI?$AAP?$AAr?$AAe?$AAs?$AAs?$AA?5?$AAR?$AAe?$AAt?$AAr?$AAy?$AA?5?$AAt?$AAo?$AA?5?$AAd?$AAe?$AAb?$AAu?$AAg?$AA?5?$AAt?$AAh?$AAe?$AA?5?$AAa?$AAp?$AAp?$AAl?$AAi?$AAc@ 00000001800233a0     libucrt:assert.obj
 0002:00001420       ??_C@_17LGKOMLJ@?$AA?4?$AA?4?$AA?4?$AA?$AA@ 0000000180023420     libucrt:assert.obj
 0002:00001428       ??_C@_13LBAGMAIH@?$AA?6?$AA?$AA@ 0000000180023428     libucrt:assert.obj
 0002:0000142c       ??_C@_15IABLJNFO@?$AA?6?$AA?6?$AA?$AA@ 000000018002342c     libucrt:assert.obj
 0002:00001438       ??_C@_1CO@EAEJAADC@?$AA?$DM?$AAp?$AAr?$AAo?$AAg?$AAr?$AAa?$AAm?$AA?5?$AAn?$AAa?$AAm?$AAe?$AA?5?$AAu?$AAn?$AAk?$AAn?$AAo?$AAw?$AAn?$AA?$DO?$AA?$AA@ 0000000180023438     libucrt:assert.obj
 0002:00001470       standard_lookup_table      0000000180023470     libucrt:output.obj
 0002:000014cc       ??_C@_06OJHGLDPL@?$CInull?$CJ?$AA@ 00000001800234cc     libucrt:output.obj
 0002:000014d8       ??_C@_1O@CEDCILHN@?$AA?$CI?$AAn?$AAu?$AAl?$AAl?$AA?$CJ?$AA?$AA@ 00000001800234d8     libucrt:output.obj
 0002:000014f0       __acrt_exception_action_table 00000001800234f0     libucrt:exception_filter.obj
 0002:000015b0       __acrt_signal_action_table_count 00000001800235b0     libucrt:exception_filter.obj
 0002:000015b8       __acrt_signal_action_first_fpe_index 00000001800235b8     libucrt:exception_filter.obj
 0002:000015c0       __acrt_signal_action_fpe_count 00000001800235c0     libucrt:exception_filter.obj
 0002:000015c8       ??_C@_1BI@BGOHAHKC@?$AAm?$AAs?$AAc?$AAo?$AAr?$AAe?$AAe?$AA?4?$AAd?$AAl?$AAl?$AA?$AA@ 00000001800235c8     libucrt:exit.obj
 0002:000015e0       ??_C@_0P@MIGLKIOC@CorExitProcess?$AA@ 00000001800235e0     libucrt:exit.obj
 0002:000016e0       ??_C@_03OEIAHPBN@INF?$AA@  00000001800236e0     libucrt:cvt.obj
 0002:000016e4       ??_C@_03OJHLLCGB@inf?$AA@  00000001800236e4     libucrt:cvt.obj
 0002:000016e8       ??_C@_03LKNCIKJB@NAN?$AA@  00000001800236e8     libucrt:cvt.obj
 0002:000016ec       ??_C@_03LHCJEHON@nan?$AA@  00000001800236ec     libucrt:cvt.obj
 0002:000016f0       ??_C@_09OFJJIMPC@NAN?$CISNAN?$CJ?$AA@ 00000001800236f0     libucrt:cvt.obj
 0002:00001700       ??_C@_09IPFBKMDL@nan?$CIsnan?$CJ?$AA@ 0000000180023700     libucrt:cvt.obj
 0002:00001710       ??_C@_08IKHNHAJ@NAN?$CIIND?$CJ?$AA@ 0000000180023710     libucrt:cvt.obj
 0002:00001720       ??_C@_08OFCDMILK@nan?$CIind?$CJ?$AA@ 0000000180023720     libucrt:cvt.obj
 0002:0000172c       ??_C@_05KLBDPFGC@e?$CL000?$AA@ 000000018002372c     libucrt:cvt.obj
 0002:00001740       __lc_time_c                0000000180023740     libucrt:nlsdata.obj
 0002:00001a00       ??_C@_03KOEHGMDN@Sun?$AA@  0000000180023a00     libucrt:nlsdata.obj
 0002:00001a04       ??_C@_03PDAGKDH@Mon?$AA@   0000000180023a04     libucrt:nlsdata.obj
 0002:00001a08       ??_C@_03NAGEINEP@Tue?$AA@  0000000180023a08     libucrt:nlsdata.obj
 0002:00001a0c       ??_C@_03MHOMLAJA@Wed?$AA@  0000000180023a0c     libucrt:nlsdata.obj
 0002:00001a10       ??_C@_03IOFIKPDN@Thu?$AA@  0000000180023a10     libucrt:nlsdata.obj
 0002:00001a14       ??_C@_03IDIOELNC@Fri?$AA@  0000000180023a14     libucrt:nlsdata.obj
 0002:00001a18       ??_C@_03FEFJNEK@Sat?$AA@   0000000180023a18     libucrt:nlsdata.obj
 0002:00001a1c       ??_C@_06OOPIFAJ@Sunday?$AA@ 0000000180023a1c     libucrt:nlsdata.obj
 0002:00001a24       ??_C@_06JLEDEDGH@Monday?$AA@ 0000000180023a24     libucrt:nlsdata.obj
 0002:00001a30       ??_C@_07BAAGCFCM@Tuesday?$AA@ 0000000180023a30     libucrt:nlsdata.obj
 0002:00001a38       ??_C@_09DLIGFAKA@Wednesday?$AA@ 0000000180023a38     libucrt:nlsdata.obj
 0002:00001a48       ??_C@_08HACCIKIA@Thursday?$AA@ 0000000180023a48     libucrt:nlsdata.obj
 0002:00001a54       ??_C@_06JECMNKMI@Friday?$AA@ 0000000180023a54     libucrt:nlsdata.obj
 0002:00001a60       ??_C@_08INBOOONO@Saturday?$AA@ 0000000180023a60     libucrt:nlsdata.obj
 0002:00001a6c       ??_C@_03JIHJHPIE@Jan?$AA@  0000000180023a6c     libucrt:nlsdata.obj
 0002:00001a70       ??_C@_03HJBDCHOM@Feb?$AA@  0000000180023a70     libucrt:nlsdata.obj
 0002:00001a74       ??_C@_03ODNJBKGA@Mar?$AA@  0000000180023a74     libucrt:nlsdata.obj
 0002:00001a78       ??_C@_03LEOLGMJP@Apr?$AA@  0000000180023a78     libucrt:nlsdata.obj
 0002:00001a7c       ??_C@_03CNMDKL@May?$AA@    0000000180023a7c     libucrt:nlsdata.obj
 0002:00001a80       ??_C@_03IDFGHECI@Jun?$AA@  0000000180023a80     libucrt:nlsdata.obj
 0002:00001a84       ??_C@_03LBGABGKK@Jul?$AA@  0000000180023a84     libucrt:nlsdata.obj
 0002:00001a88       ??_C@_03IFJFEIGA@Aug?$AA@  0000000180023a88     libucrt:nlsdata.obj
 0002:00001a8c       ??_C@_03GGCAPAJC@Sep?$AA@  0000000180023a8c     libucrt:nlsdata.obj
 0002:00001a90       ??_C@_03BMAOKBAD@Oct?$AA@  0000000180023a90     libucrt:nlsdata.obj
 0002:00001a94       ??_C@_03JPJOFNIA@Nov?$AA@  0000000180023a94     libucrt:nlsdata.obj
 0002:00001a98       ??_C@_03MKABNOCG@Dec?$AA@  0000000180023a98     libucrt:nlsdata.obj
 0002:00001aa0       ??_C@_07CGJPFGJA@January?$AA@ 0000000180023aa0     libucrt:nlsdata.obj
 0002:00001aa8       ??_C@_08GNJGEPFN@February?$AA@ 0000000180023aa8     libucrt:nlsdata.obj
 0002:00001ab4       ??_C@_05HPCKOFNC@March?$AA@ 0000000180023ab4     libucrt:nlsdata.obj
 0002:00001abc       ??_C@_05DMJDNLEJ@April?$AA@ 0000000180023abc     libucrt:nlsdata.obj
 0002:00001ac4       ??_C@_04CNLMGBGM@June?$AA@ 0000000180023ac4     libucrt:nlsdata.obj
 0002:00001acc       ??_C@_04MIEPOIFP@July?$AA@ 0000000180023acc     libucrt:nlsdata.obj
 0002:00001ad4       ??_C@_06LBBHFDDG@August?$AA@ 0000000180023ad4     libucrt:nlsdata.obj
 0002:00001ae0       ??_C@_09BHHEALKD@September?$AA@ 0000000180023ae0     libucrt:nlsdata.obj
 0002:00001af0       ??_C@_07JJNFCEND@October?$AA@ 0000000180023af0     libucrt:nlsdata.obj
 0002:00001af8       ??_C@_08HCHEGEOA@November?$AA@ 0000000180023af8     libucrt:nlsdata.obj
 0002:00001b08       ??_C@_08EDHMEBNP@December?$AA@ 0000000180023b08     libucrt:nlsdata.obj
 0002:00001b14       ??_C@_02DEDBPAFC@AM?$AA@   0000000180023b14     libucrt:nlsdata.obj
 0002:00001b18       ??_C@_02CJNFDJBF@PM?$AA@   0000000180023b18     libucrt:nlsdata.obj
 0002:00001b20       ??_C@_08BPBNCDIB@MM?1dd?1yy?$AA@ 0000000180023b20     libucrt:nlsdata.obj
 0002:00001b30       ??_C@_0BE@CKGJFCPC@dddd?0?5MMMM?5dd?0?5yyyy?$AA@ 0000000180023b30     libucrt:nlsdata.obj
 0002:00001b48       ??_C@_08JCCMCCIL@HH?3mm?3ss?$AA@ 0000000180023b48     libucrt:nlsdata.obj
 0002:00001b58       ??_C@_17MBGCMIPB@?$AAS?$AAu?$AAn?$AA?$AA@ 0000000180023b58     libucrt:nlsdata.obj
 0002:00001b60       ??_C@_17KBOMKBF@?$AAM?$AAo?$AAn?$AA?$AA@ 0000000180023b60     libucrt:nlsdata.obj
 0002:00001b68       ??_C@_17BMKGEGOJ@?$AAT?$AAu?$AAe?$AA?$AA@ 0000000180023b68     libucrt:nlsdata.obj
 0002:00001b70       ??_C@_17CJEDCEPE@?$AAW?$AAe?$AAd?$AA?$AA@ 0000000180023b70     libucrt:nlsdata.obj
 0002:00001b78       ??_C@_17PDPHAADD@?$AAT?$AAh?$AAu?$AA?$AA@ 0000000180023b78     libucrt:nlsdata.obj
 0002:00001b80       ??_C@_17HFOLPPLP@?$AAF?$AAr?$AAi?$AA?$AA@ 0000000180023b80     libucrt:nlsdata.obj
 0002:00001b88       ??_C@_17GGIBDPIH@?$AAS?$AAa?$AAt?$AA?$AA@ 0000000180023b88     libucrt:nlsdata.obj
 0002:00001b90       ??_C@_1O@IHNHDHPB@?$AAS?$AAu?$AAn?$AAd?$AAa?$AAy?$AA?$AA@ 0000000180023b90     libucrt:nlsdata.obj
 0002:00001ba0       ??_C@_1O@MMNBFLIA@?$AAM?$AAo?$AAn?$AAd?$AAa?$AAy?$AA?$AA@ 0000000180023ba0     libucrt:nlsdata.obj
 0002:00001bb0       ??_C@_1BA@ENFBFFEK@?$AAT?$AAu?$AAe?$AAs?$AAd?$AAa?$AAy?$AA?$AA@ 0000000180023bb0     libucrt:nlsdata.obj
 0002:00001bc0       ??_C@_1BE@EBOGMDOH@?$AAW?$AAe?$AAd?$AAn?$AAe?$AAs?$AAd?$AAa?$AAy?$AA?$AA@ 0000000180023bc0     libucrt:nlsdata.obj
 0002:00001bd8       ??_C@_1BC@HHMNLIHE@?$AAT?$AAh?$AAu?$AAr?$AAs?$AAd?$AAa?$AAy?$AA?$AA@ 0000000180023bd8     libucrt:nlsdata.obj
 0002:00001bf0       ??_C@_1O@PDICJHAG@?$AAF?$AAr?$AAi?$AAd?$AAa?$AAy?$AA?$AA@ 0000000180023bf0     libucrt:nlsdata.obj
 0002:00001c00       ??_C@_1BC@ENMNNPAJ@?$AAS?$AAa?$AAt?$AAu?$AAr?$AAd?$AAa?$AAy?$AA?$AA@ 0000000180023c00     libucrt:nlsdata.obj
 0002:00001c18       ??_C@_17DKNBKCHM@?$AAJ?$AAa?$AAn?$AA?$AA@ 0000000180023c18     libucrt:nlsdata.obj
 0002:00001c20       ??_C@_17LMDJEKJN@?$AAF?$AAe?$AAb?$AA?$AA@ 0000000180023c20     libucrt:nlsdata.obj
 0002:00001c28       ??_C@_17CKNLEDEC@?$AAM?$AAa?$AAr?$AA?$AA@ 0000000180023c28     libucrt:nlsdata.obj
 0002:00001c30       ??_C@_17LFPOIHDD@?$AAA?$AAp?$AAr?$AA?$AA@ 0000000180023c30     libucrt:nlsdata.obj
 0002:00001c38       ??_C@_17PNNKMEED@?$AAM?$AAa?$AAy?$AA?$AA@ 0000000180023c38     libucrt:nlsdata.obj
 0002:00001c40       ??_C@_17KCJGOCPB@?$AAJ?$AAu?$AAn?$AA?$AA@ 0000000180023c40     libucrt:nlsdata.obj
 0002:00001c48       ??_C@_17IJPCKHK@?$AAJ?$AAu?$AAl?$AA?$AA@ 0000000180023c48     libucrt:nlsdata.obj
 0002:00001c50       ??_C@_17ICPELBCN@?$AAA?$AAu?$AAg?$AA?$AA@ 0000000180023c50     libucrt:nlsdata.obj
 0002:00001c58       ??_C@_17HCHCOKMG@?$AAS?$AAe?$AAp?$AA?$AA@ 0000000180023c58     libucrt:nlsdata.obj
 0002:00001c60       ??_C@_17FNLKOI@?$AAO?$AAc?$AAt?$AA?$AA@ 0000000180023c60     libucrt:nlsdata.obj
 0002:00001c68       ??_C@_17BBDMLCIG@?$AAN?$AAo?$AAv?$AA?$AA@ 0000000180023c68     libucrt:nlsdata.obj
 0002:00001c70       ??_C@_17EGKACKIF@?$AAD?$AAe?$AAc?$AA?$AA@ 0000000180023c70     libucrt:nlsdata.obj
 0002:00001c78       ??_C@_1BA@EFMEIEBA@?$AAJ?$AAa?$AAn?$AAu?$AAa?$AAr?$AAy?$AA?$AA@ 0000000180023c78     libucrt:nlsdata.obj
 0002:00001c88       ??_C@_1BC@JGDDFFAM@?$AAF?$AAe?$AAb?$AAr?$AAu?$AAa?$AAr?$AAy?$AA?$AA@ 0000000180023c88     libucrt:nlsdata.obj
 0002:00001ca0       ??_C@_1M@IKEENEDF@?$AAM?$AAa?$AAr?$AAc?$AAh?$AA?$AA@ 0000000180023ca0     libucrt:nlsdata.obj
 0002:00001cb0       ??_C@_1M@GJNLMHFD@?$AAA?$AAp?$AAr?$AAi?$AAl?$AA?$AA@ 0000000180023cb0     libucrt:nlsdata.obj
 0002:00001cc0       ??_C@_19EPFLPGAP@?$AAJ?$AAu?$AAn?$AAe?$AA?$AA@ 0000000180023cc0     libucrt:nlsdata.obj
 0002:00001cd0       ??_C@_19BIFMLPCD@?$AAJ?$AAu?$AAl?$AAy?$AA?$AA@ 0000000180023cd0     libucrt:nlsdata.obj
 0002:00001ce0       ??_C@_1O@PAHLKOAC@?$AAA?$AAu?$AAg?$AAu?$AAs?$AAt?$AA?$AA@ 0000000180023ce0     libucrt:nlsdata.obj
 0002:00001cf0       ??_C@_1BE@DKAAMBJL@?$AAS?$AAe?$AAp?$AAt?$AAe?$AAm?$AAb?$AAe?$AAr?$AA?$AA@ 0000000180023cf0     libucrt:nlsdata.obj
 0002:00001d08       ??_C@_1BA@EPANDLNG@?$AAO?$AAc?$AAt?$AAo?$AAb?$AAe?$AAr?$AA?$AA@ 0000000180023d08     libucrt:nlsdata.obj
 0002:00001d18       ??_C@_1BC@BGLIFPF@?$AAN?$AAo?$AAv?$AAe?$AAm?$AAb?$AAe?$AAr?$AA?$AA@ 0000000180023d18     libucrt:nlsdata.obj
 0002:00001d30       ??_C@_1BC@FEMKIFH@?$AAD?$AAe?$AAc?$AAe?$AAm?$AAb?$AAe?$AAr?$AA?$AA@ 0000000180023d30     libucrt:nlsdata.obj
 0002:00001d44       ??_C@_15ODEHAHHF@?$AAA?$AAM?$AA?$AA@ 0000000180023d44     libucrt:nlsdata.obj
 0002:00001d4c       ??_C@_15CLMNNGEL@?$AAP?$AAM?$AA?$AA@ 0000000180023d4c     libucrt:nlsdata.obj
 0002:00001d58       ??_C@_1BC@IEBCMHCM@?$AAM?$AAM?$AA?1?$AAd?$AAd?$AA?1?$AAy?$AAy?$AA?$AA@ 0000000180023d58     libucrt:nlsdata.obj
 0002:00001d70       ??_C@_1CI@KNAKOEBC@?$AAd?$AAd?$AAd?$AAd?$AA?0?$AA?5?$AAM?$AAM?$AAM?$AAM?$AA?5?$AAd?$AAd?$AA?0?$AA?5?$AAy?$AAy?$AAy?$AAy?$AA?$AA@ 0000000180023d70     libucrt:nlsdata.obj
 0002:00001d98       ??_C@_1BC@GDGBMEMK@?$AAH?$AAH?$AA?3?$AAm?$AAm?$AA?3?$AAs?$AAs?$AA?$AA@ 0000000180023d98     libucrt:nlsdata.obj
 0002:00001db0       ??_C@_1M@BMHNFIME@?$AAe?$AAn?$AA?9?$AAU?$AAS?$AA?$AA@ 0000000180023db0     libucrt:nlsdata.obj
 0002:00001e60       ??_C@_1EG@CNNIPFIM@?$AAa?$AAp?$AAi?$AA?9?$AAm?$AAs?$AA?9?$AAw?$AAi?$AAn?$AA?9?$AAa?$AAp?$AAp?$AAm?$AAo?$AAd?$AAe?$AAl?$AA?9?$AAr?$AAu?$AAn?$AAt?$AAi?$AAm?$AAe?$AA?9?$AAl?$AA1?$AA?9?$AA1@ 0000000180023e60     libucrt:winapi_thunks.obj
 0002:00001eb0       ??_C@_1EA@JGEFHKEI@?$AAa?$AAp?$AAi?$AA?9?$AAm?$AAs?$AA?9?$AAw?$AAi?$AAn?$AA?9?$AAc?$AAo?$AAr?$AAe?$AA?9?$AAd?$AAa?$AAt?$AAe?$AAt?$AAi?$AAm?$AAe?$AA?9?$AAl?$AA1?$AA?9?$AA1?$AA?9?$AA1?$AA?$AA@ 0000000180023eb0     libucrt:winapi_thunks.obj
 0002:00001ef0       ??_C@_1DI@GCIAAENM@?$AAa?$AAp?$AAi?$AA?9?$AAm?$AAs?$AA?9?$AAw?$AAi?$AAn?$AA?9?$AAc?$AAo?$AAr?$AAe?$AA?9?$AAf?$AAi?$AAl?$AAe?$AA?9?$AAl?$AA2?$AA?9?$AA1?$AA?9?$AA1?$AA?$AA@ 0000000180023ef0     libucrt:winapi_thunks.obj
 0002:00001f30       ??_C@_1EI@MPIAOHOC@?$AAa?$AAp?$AAi?$AA?9?$AAm?$AAs?$AA?9?$AAw?$AAi?$AAn?$AA?9?$AAc?$AAo?$AAr?$AAe?$AA?9?$AAl?$AAo?$AAc?$AAa?$AAl?$AAi?$AAz?$AAa?$AAt?$AAi?$AAo?$AAn?$AA?9?$AAl?$AA1?$AA?9@ 0000000180023f30     libucrt:winapi_thunks.obj
 0002:00001f80       ??_C@_1FK@FPHCKFIE@?$AAa?$AAp?$AAi?$AA?9?$AAm?$AAs?$AA?9?$AAw?$AAi?$AAn?$AA?9?$AAc?$AAo?$AAr?$AAe?$AA?9?$AAl?$AAo?$AAc?$AAa?$AAl?$AAi?$AAz?$AAa?$AAt?$AAi?$AAo?$AAn?$AA?9?$AAo?$AAb?$AAs@ 0000000180023f80     libucrt:winapi_thunks.obj
 0002:00001fe0       ??_C@_1EM@DILCGIIO@?$AAa?$AAp?$AAi?$AA?9?$AAm?$AAs?$AA?9?$AAw?$AAi?$AAn?$AA?9?$AAc?$AAo?$AAr?$AAe?$AA?9?$AAp?$AAr?$AAo?$AAc?$AAe?$AAs?$AAs?$AAt?$AAh?$AAr?$AAe?$AAa?$AAd?$AAs?$AA?9?$AAl@ 0000000180023fe0     libucrt:winapi_thunks.obj
 0002:00002030       ??_C@_1DM@LNCGDDPN@?$AAa?$AAp?$AAi?$AA?9?$AAm?$AAs?$AA?9?$AAw?$AAi?$AAn?$AA?9?$AAc?$AAo?$AAr?$AAe?$AA?9?$AAs?$AAt?$AAr?$AAi?$AAn?$AAg?$AA?9?$AAl?$AA1?$AA?9?$AA1?$AA?9?$AA0?$AA?$AA@ 0000000180024030     libucrt:winapi_thunks.obj
 0002:00002070       ??_C@_1DO@FPAPJEMD@?$AAa?$AAp?$AAi?$AA?9?$AAm?$AAs?$AA?9?$AAw?$AAi?$AAn?$AA?9?$AAc?$AAo?$AAr?$AAe?$AA?9?$AAs?$AAy?$AAs?$AAi?$AAn?$AAf?$AAo?$AA?9?$AAl?$AA1?$AA?9?$AA2?$AA?9?$AA1?$AA?$AA@ 0000000180024070     libucrt:winapi_thunks.obj
 0002:000020b0       ??_C@_1DK@NDHNAHIO@?$AAa?$AAp?$AAi?$AA?9?$AAm?$AAs?$AA?9?$AAw?$AAi?$AAn?$AA?9?$AAc?$AAo?$AAr?$AAe?$AA?9?$AAw?$AAi?$AAn?$AAr?$AAt?$AA?9?$AAl?$AA1?$AA?9?$AA1?$AA?9?$AA0?$AA?$AA@ 00000001800240b0     libucrt:winapi_thunks.obj
 0002:000020f0       ??_C@_1DM@KGHDGBCM@?$AAa?$AAp?$AAi?$AA?9?$AAm?$AAs?$AA?9?$AAw?$AAi?$AAn?$AA?9?$AAc?$AAo?$AAr?$AAe?$AA?9?$AAx?$AAs?$AAt?$AAa?$AAt?$AAe?$AA?9?$AAl?$AA2?$AA?9?$AA1?$AA?9?$AA0?$AA?$AA@ 00000001800240f0     libucrt:winapi_thunks.obj
 0002:00002130       ??_C@_1EO@IJIOEFOH@?$AAa?$AAp?$AAi?$AA?9?$AAm?$AAs?$AA?9?$AAw?$AAi?$AAn?$AA?9?$AAr?$AAt?$AAc?$AAo?$AAr?$AAe?$AA?9?$AAn?$AAt?$AAu?$AAs?$AAe?$AAr?$AA?9?$AAw?$AAi?$AAn?$AAd?$AAo?$AAw?$AA?9@ 0000000180024130     libucrt:winapi_thunks.obj
 0002:00002180       ??_C@_1FG@HHGEKANL@?$AAa?$AAp?$AAi?$AA?9?$AAm?$AAs?$AA?9?$AAw?$AAi?$AAn?$AA?9?$AAs?$AAe?$AAc?$AAu?$AAr?$AAi?$AAt?$AAy?$AA?9?$AAs?$AAy?$AAs?$AAt?$AAe?$AAm?$AAf?$AAu?$AAn?$AAc?$AAt?$AAi@ 0000000180024180     libucrt:winapi_thunks.obj
 0002:000021e0       ??_C@_1FG@NCKKOLKO@?$AAe?$AAx?$AAt?$AA?9?$AAm?$AAs?$AA?9?$AAw?$AAi?$AAn?$AA?9?$AAk?$AAe?$AAr?$AAn?$AAe?$AAl?$AA3?$AA2?$AA?9?$AAp?$AAa?$AAc?$AAk?$AAa?$AAg?$AAe?$AA?9?$AAc?$AAu?$AAr?$AAr@ 00000001800241e0     libucrt:winapi_thunks.obj
 0002:00002240       ??_C@_1EG@DBIOJECG@?$AAe?$AAx?$AAt?$AA?9?$AAm?$AAs?$AA?9?$AAw?$AAi?$AAn?$AA?9?$AAn?$AAt?$AAu?$AAs?$AAe?$AAr?$AA?9?$AAd?$AAi?$AAa?$AAl?$AAo?$AAg?$AAb?$AAo?$AAx?$AA?9?$AAl?$AA1?$AA?9?$AA1@ 0000000180024240     libucrt:winapi_thunks.obj
 0002:00002290       ??_C@_1EO@FIHMJCLF@?$AAe?$AAx?$AAt?$AA?9?$AAm?$AAs?$AA?9?$AAw?$AAi?$AAn?$AA?9?$AAn?$AAt?$AAu?$AAs?$AAe?$AAr?$AA?9?$AAw?$AAi?$AAn?$AAd?$AAo?$AAw?$AAs?$AAt?$AAa?$AAt?$AAi?$AAo?$AAn?$AA?9@ 0000000180024290     libucrt:winapi_thunks.obj
 0002:000022e0       ??_C@_1O@BCCLBEOE@?$AAu?$AAs?$AAe?$AAr?$AA3?$AA2?$AA?$AA@ 00000001800242e0     libucrt:winapi_thunks.obj
 0002:00002318       ??_C@_0BA@HNOPNCHB@GetActiveWindow?$AA@ 0000000180024318     libucrt:winapi_thunks.obj
 0002:00002330       ??_C@_0BE@JOGNEJCI@GetCurrentPackageId?$AA@ 0000000180024330     libucrt:winapi_thunks.obj
 0002:00002350       ??_C@_0BD@HHGDFDBJ@GetLastActivePopup?$AA@ 0000000180024350     libucrt:winapi_thunks.obj
 0002:00002370       ??_C@_0BI@DFKBFLJE@GetProcessWindowStation?$AA@ 0000000180024370     libucrt:winapi_thunks.obj
 0002:00002390       ??_C@_0BK@DEKFELLI@GetUserObjectInformationW?$AA@ 0000000180024390     libucrt:winapi_thunks.obj
 0002:000023c0       ??_C@_0O@KKBNKAPF@LCMapStringEx?$AA@ 00000001800243c0     libucrt:winapi_thunks.obj
 0002:000023d8       ??_C@_0BB@HBDEELFH@LocaleNameToLCID?$AA@ 00000001800243d8     libucrt:winapi_thunks.obj
 0002:000023f8       ??_C@_0M@CHKKJDAI@MessageBoxA?$AA@ 00000001800243f8     libucrt:winapi_thunks.obj
 0002:00002410       ??_C@_0M@DLDCCGNP@MessageBoxW?$AA@ 0000000180024410     libucrt:winapi_thunks.obj
 0002:00002440       ??_C@_1M@HPNHIDJI@?$AAj?$AAa?$AA?9?$AAJ?$AAP?$AA?$AA@ 0000000180024440     libucrt:mbctype.obj
 0002:00002450       ??_C@_1M@BIBDDEMK@?$AAz?$AAh?$AA?9?$AAC?$AAN?$AA?$AA@ 0000000180024450     libucrt:mbctype.obj
 0002:00002460       ??_C@_1M@JLOOOEGK@?$AAk?$AAo?$AA?9?$AAK?$AAR?$AA?$AA@ 0000000180024460     libucrt:mbctype.obj
 0002:00002470       ??_C@_1M@CLNBBOPM@?$AAz?$AAh?$AA?9?$AAT?$AAW?$AA?$AA@ 0000000180024470     libucrt:mbctype.obj
 0002:00002480       __newctype                 0000000180024480     libucrt:ctype.obj
 0002:00002780       __newclmap                 0000000180024780     libucrt:ctype.obj
 0002:00002900       __newcumap                 0000000180024900     libucrt:ctype.obj
 0002:00002a80       _wctype                    0000000180024a80     libucrt:ctype.obj
 0002:00002c90       ?large_power_data@?1??multiply_by_power_of_ten@__crt_strtox@@YA_NAEAUbig_integer@2@I@Z@4QBIB 0000000180024c90     libucrt:cfout.obj
 0002:000035a0       ?large_power_indices@?1??multiply_by_power_of_ten@__crt_strtox@@YA_NAEAUbig_integer@2@I@Z@4QBUunpack_index@?1??12@YA_N0I@Z@B 00000001800255a0     libucrt:cfout.obj
 0002:00003638       ?small_powers_of_ten@?6??multiply_by_power_of_ten@__crt_strtox@@YA_NAEAUbig_integer@2@I@Z@4QBIB 0000000180025638     libucrt:cfout.obj
 0002:0000365c       ??_C@_01GBGANLPD@0?$AA@    000000018002565c     libucrt:cfout.obj
 0002:00003660       ??_C@_05DNEBIAHO@1?$CDINF?$AA@ 0000000180025660     libucrt:cfout.obj
 0002:00003668       ??_C@_06IMKFLFPG@1?$CDQNAN?$AA@ 0000000180025668     libucrt:cfout.obj
 0002:00003670       ??_C@_06PGGFOGJG@1?$CDSNAN?$AA@ 0000000180025670     libucrt:cfout.obj
 0002:00003678       ??_C@_05PHHOCPM@1?$CDIND?$AA@ 0000000180025678     libucrt:cfout.obj
 0002:00003680       ??_C@_15PJPFLCCM@?$AAu?$AAk?$AA?$AA@ 0000000180025680     libucrt:get_qualified_locale.obj
 0002:000044d0       ??_C@_15EMKDOKLE@?$AAa?$AAr?$AA?$AA@ 00000001800264d0     libucrt:lcidtoname_downlevel.obj
 0002:000044d8       ??_C@_15KNPADPLH@?$AAb?$AAg?$AA?$AA@ 00000001800264d8     libucrt:lcidtoname_downlevel.obj
 0002:000044e0       ??_C@_15EDMHLDMO@?$AAc?$AAa?$AA?$AA@ 00000001800264e0     libucrt:lcidtoname_downlevel.obj
 0002:000044e8       ??_C@_1O@BPEAJADD@?$AAz?$AAh?$AA?9?$AAC?$AAH?$AAS?$AA?$AA@ 00000001800264e8     libucrt:lcidtoname_downlevel.obj
 0002:000044f8       ??_C@_15LJNHCMNK@?$AAc?$AAs?$AA?$AA@ 00000001800264f8     libucrt:lcidtoname_downlevel.obj
 0002:00004500       ??_C@_15FOMCIDHG@?$AAd?$AAa?$AA?$AA@ 0000000180026500     libucrt:lcidtoname_downlevel.obj
 0002:00004508       ??_C@_15NBKABECB@?$AAd?$AAe?$AA?$AA@ 0000000180026508     libucrt:lcidtoname_downlevel.obj
 0002:00004510       ??_C@_15GHPEIIAO@?$AAe?$AAl?$AA?$AA@ 0000000180026510     libucrt:lcidtoname_downlevel.obj
 0002:00004518       ??_C@_15MNPNEAIF@?$AAe?$AAn?$AA?$AA@ 0000000180026518     libucrt:lcidtoname_downlevel.obj
 0002:00004520       ??_C@_15GPIOMPMH@?$AAe?$AAs?$AA?$AA@ 0000000180026520     libucrt:lcidtoname_downlevel.obj
 0002:00004528       ??_C@_15NGLOAKJC@?$AAf?$AAi?$AA?$AA@ 0000000180026528     libucrt:lcidtoname_downlevel.obj
 0002:00004530       ??_C@_15FBKGNKAM@?$AAf?$AAr?$AA?$AA@ 0000000180026530     libucrt:lcidtoname_downlevel.obj
 0002:00004538       ??_C@_15KGGCNEFK@?$AAh?$AAe?$AA?$AA@ 0000000180026538     libucrt:lcidtoname_downlevel.obj
 0002:00004540       ??_C@_15PGHLIDMF@?$AAh?$AAu?$AA?$AA@ 0000000180026540     libucrt:lcidtoname_downlevel.obj
 0002:00004548       ??_C@_15BIEMAPLM@?$AAi?$AAs?$AA?$AA@ 0000000180026548     libucrt:lcidtoname_downlevel.obj
 0002:00004550       ??_C@_15IFJLDHAF@?$AAi?$AAt?$AA?$AA@ 0000000180026550     libucrt:lcidtoname_downlevel.obj
 0002:00004558       ??_C@_15GEMIOCAG@?$AAj?$AAa?$AA?$AA@ 0000000180026558     libucrt:lcidtoname_downlevel.obj
 0002:00004560       ??_C@_15EPELEGJA@?$AAk?$AAo?$AA?$AA@ 0000000180026560     libucrt:lcidtoname_downlevel.obj
 0002:00004568       ??_C@_15NDDHIMN@?$AAn?$AAl?$AA?$AA@ 0000000180026568     libucrt:lcidtoname_downlevel.obj
 0002:00004570       ??_C@_15BPIGNHCD@?$AAn?$AAo?$AA?$AA@ 0000000180026570     libucrt:lcidtoname_downlevel.obj
 0002:00004578       ??_C@_15DEOPBLCG@?$AAp?$AAl?$AA?$AA@ 0000000180026578     libucrt:lcidtoname_downlevel.obj
 0002:00004580       ??_C@_15KBECGEFG@?$AAp?$AAt?$AA?$AA@ 0000000180026580     libucrt:lcidtoname_downlevel.obj
 0002:00004588       ??_C@_15GLJCBFMD@?$AAr?$AAo?$AA?$AA@ 0000000180026588     libucrt:lcidtoname_downlevel.obj
 0002:00004590       ??_C@_15FEDGKCDI@?$AAr?$AAu?$AA?$AA@ 0000000180026590     libucrt:lcidtoname_downlevel.obj
 0002:00004598       ??_C@_15GLKMLLHM@?$AAh?$AAr?$AA?$AA@ 0000000180026598     libucrt:lcidtoname_downlevel.obj
 0002:000045a0       ??_C@_15CPKMFBDB@?$AAs?$AAk?$AA?$AA@ 00000001800265a0     libucrt:lcidtoname_downlevel.obj
 0002:000045a8       ??_C@_15BAAIOGMK@?$AAs?$AAq?$AA?$AA@ 00000001800265a8     libucrt:lcidtoname_downlevel.obj
 0002:000045b0       ??_C@_15INNPNOHD@?$AAs?$AAv?$AA?$AA@ 00000001800265b0     libucrt:lcidtoname_downlevel.obj
 0002:000045b8       ??_C@_15CABMMOGH@?$AAt?$AAh?$AA?$AA@ 00000001800265b8     libucrt:lcidtoname_downlevel.obj
 0002:000045c0       ??_C@_15BPLIHJJM@?$AAt?$AAr?$AA?$AA@ 00000001800265c0     libucrt:lcidtoname_downlevel.obj
 0002:000045c8       ??_C@_15NEOEKKDJ@?$AAu?$AAr?$AA?$AA@ 00000001800265c8     libucrt:lcidtoname_downlevel.obj
 0002:000045d0       ??_C@_15NFICGAJK@?$AAi?$AAd?$AA?$AA@ 00000001800265d0     libucrt:lcidtoname_downlevel.obj
 0002:000045d8       ??_C@_15HPJPHDM@?$AAb?$AAe?$AA?$AA@ 00000001800265d8     libucrt:lcidtoname_downlevel.obj
 0002:000045e0       ??_C@_15LCHLGJII@?$AAs?$AAl?$AA?$AA@ 00000001800265e0     libucrt:lcidtoname_downlevel.obj
 0002:000045e8       ??_C@_15PCFJPHHO@?$AAe?$AAt?$AA?$AA@ 00000001800265e8     libucrt:lcidtoname_downlevel.obj
 0002:000045f0       ??_C@_15HPFPGODN@?$AAl?$AAv?$AA?$AA@ 00000001800265f0     libucrt:lcidtoname_downlevel.obj
 0002:000045f8       ??_C@_15NFFGKGLG@?$AAl?$AAt?$AA?$AA@ 00000001800265f8     libucrt:lcidtoname_downlevel.obj
 0002:00004600       ??_C@_15BDAKCCHN@?$AAf?$AAa?$AA?$AA@ 0000000180026600     libucrt:lcidtoname_downlevel.obj
 0002:00004608       ??_C@_15NFGIAIAJ@?$AAv?$AAi?$AA?$AA@ 0000000180026608     libucrt:lcidtoname_downlevel.obj
 0002:00004610       ??_C@_15LMKNDMHN@?$AAh?$AAy?$AA?$AA@ 0000000180026610     libucrt:lcidtoname_downlevel.obj
 0002:00004618       ??_C@_15IJBHMCFL@?$AAa?$AAz?$AA?$AA@ 0000000180026618     libucrt:lcidtoname_downlevel.obj
 0002:00004620       ??_C@_15EKOFJABL@?$AAe?$AAu?$AA?$AA@ 0000000180026620     libucrt:lcidtoname_downlevel.obj
 0002:00004628       ??_C@_15BGHADCNK@?$AAm?$AAk?$AA?$AA@ 0000000180026628     libucrt:lcidtoname_downlevel.obj
 0002:00004630       ??_C@_15JDNICKHM@?$AAa?$AAf?$AA?$AA@ 0000000180026630     libucrt:lcidtoname_downlevel.obj
 0002:00004638       ??_C@_15KPJEDBKD@?$AAk?$AAa?$AA?$AA@ 0000000180026638     libucrt:lcidtoname_downlevel.obj
 0002:00004640       ??_C@_15PDNFFFEO@?$AAf?$AAo?$AA?$AA@ 0000000180026640     libucrt:lcidtoname_downlevel.obj
 0002:00004648       ??_C@_15OMLEGLOC@?$AAh?$AAi?$AA?$AA@ 0000000180026648     libucrt:lcidtoname_downlevel.obj
 0002:00004650       ??_C@_15IDNNENKK@?$AAm?$AAs?$AA?$AA@ 0000000180026650     libucrt:lcidtoname_downlevel.obj
 0002:00004658       ??_C@_15MACJNBMH@?$AAk?$AAk?$AA?$AA@ 0000000180026658     libucrt:lcidtoname_downlevel.obj
 0002:00004660       ??_C@_15DKDJEOND@?$AAk?$AAy?$AA?$AA@ 0000000180026660     libucrt:lcidtoname_downlevel.obj
 0002:00004668       ??_C@_15DFGDLJBG@?$AAs?$AAw?$AA?$AA@ 0000000180026668     libucrt:lcidtoname_downlevel.obj
 0002:00004670       ??_C@_15BBFAICNG@?$AAu?$AAz?$AA?$AA@ 0000000180026670     libucrt:lcidtoname_downlevel.obj
 0002:00004678       ??_C@_15DKNDCGEA@?$AAt?$AAt?$AA?$AA@ 0000000180026678     libucrt:lcidtoname_downlevel.obj
 0002:00004680       ??_C@_15MGIFMDPL@?$AAp?$AAa?$AA?$AA@ 0000000180026680     libucrt:lcidtoname_downlevel.obj
 0002:00004688       ??_C@_15HCNDBBA@?$AAg?$AAu?$AA?$AA@ 0000000180026688     libucrt:lcidtoname_downlevel.obj
 0002:00004690       ??_C@_15FNBEIBON@?$AAt?$AAa?$AA?$AA@ 0000000180026690     libucrt:lcidtoname_downlevel.obj
 0002:00004698       ??_C@_15NCHGBGLK@?$AAt?$AAe?$AA?$AA@ 0000000180026698     libucrt:lcidtoname_downlevel.obj
 0002:000046a0       ??_C@_15PHPHCBPF@?$AAk?$AAn?$AA?$AA@ 00000001800266a0     libucrt:lcidtoname_downlevel.obj
 0002:000046a8       ??_C@_15DLGBCKMP@?$AAm?$AAr?$AA?$AA@ 00000001800266a8     libucrt:lcidtoname_downlevel.obj
 0002:000046b0       ??_C@_15EABBLBFF@?$AAs?$AAa?$AA?$AA@ 00000001800266b0     libucrt:lcidtoname_downlevel.obj
 0002:000046b8       ??_C@_15CBKOMCOI@?$AAm?$AAn?$AA?$AA@ 00000001800266b8     libucrt:lcidtoname_downlevel.obj
 0002:000046c0       ??_C@_15CKDMCJAF@?$AAg?$AAl?$AA?$AA@ 00000001800266c0     libucrt:lcidtoname_downlevel.obj
 0002:000046c8       ??_C@_17CNJFBPG@?$AAk?$AAo?$AAk?$AA?$AA@ 00000001800266c8     libucrt:lcidtoname_downlevel.obj
 0002:000046d0       ??_C@_17FFBJICPL@?$AAs?$AAy?$AAr?$AA?$AA@ 00000001800266d0     libucrt:lcidtoname_downlevel.obj
 0002:000046d8       ??_C@_17KPNDCPAF@?$AAd?$AAi?$AAv?$AA?$AA@ 00000001800266d8     libucrt:lcidtoname_downlevel.obj
 0002:000046e0       ??_C@_11LOCGONAA@?$AA?$AA@ 00000001800266e0     libucrt:lcidtoname_downlevel.obj
 0002:000046e8       ??_C@_1M@OKAHONE@?$AAa?$AAr?$AA?9?$AAS?$AAA?$AA?$AA@ 00000001800266e8     libucrt:lcidtoname_downlevel.obj
 0002:000046f8       ??_C@_1M@FFFIGIGK@?$AAb?$AAg?$AA?9?$AAB?$AAG?$AA?$AA@ 00000001800266f8     libucrt:lcidtoname_downlevel.obj
 0002:00004708       ??_C@_1M@BJNKEDC@?$AAc?$AAa?$AA?9?$AAE?$AAS?$AA?$AA@ 0000000180026708     libucrt:lcidtoname_downlevel.obj
 0002:00004718       ??_C@_1M@IJJHFJHA@?$AAc?$AAs?$AA?9?$AAC?$AAZ?$AA?$AA@ 0000000180026718     libucrt:lcidtoname_downlevel.obj
 0002:00004728       ??_C@_1M@CLPEOBGI@?$AAd?$AAa?$AA?9?$AAD?$AAK?$AA?$AA@ 0000000180026728     libucrt:lcidtoname_downlevel.obj
 0002:00004738       ??_C@_1M@MCMADGCB@?$AAd?$AAe?$AA?9?$AAD?$AAE?$AA?$AA@ 0000000180026738     libucrt:lcidtoname_downlevel.obj
 0002:00004748       ??_C@_1M@OOCKEMAM@?$AAe?$AAl?$AA?9?$AAG?$AAR?$AA?$AA@ 0000000180026748     libucrt:lcidtoname_downlevel.obj
 0002:00004758       ??_C@_1M@DDNJFGID@?$AAf?$AAi?$AA?9?$AAF?$AAI?$AA?$AA@ 0000000180026758     libucrt:lcidtoname_downlevel.obj
 0002:00004768       ??_C@_1M@GLIPPMAC@?$AAf?$AAr?$AA?9?$AAF?$AAR?$AA?$AA@ 0000000180026768     libucrt:lcidtoname_downlevel.obj
 0002:00004778       ??_C@_1M@GFMCHPE@?$AAh?$AAe?$AA?9?$AAI?$AAL?$AA?$AA@ 0000000180026778     libucrt:lcidtoname_downlevel.obj
 0002:00004788       ??_C@_1M@MHLPGNKM@?$AAh?$AAu?$AA?9?$AAH?$AAU?$AA?$AA@ 0000000180026788     libucrt:lcidtoname_downlevel.obj
 0002:00004798       ??_C@_1M@LPDDNNPN@?$AAi?$AAs?$AA?9?$AAI?$AAS?$AA?$AA@ 0000000180026798     libucrt:lcidtoname_downlevel.obj
 0002:000047a8       ??_C@_1M@MADIPODN@?$AAi?$AAt?$AA?9?$AAI?$AAT?$AA?$AA@ 00000001800267a8     libucrt:lcidtoname_downlevel.obj
 0002:000047b8       ??_C@_1M@IHBJJGG@?$AAn?$AAl?$AA?9?$AAN?$AAL?$AA?$AA@ 00000001800267b8     libucrt:lcidtoname_downlevel.obj
 0002:000047c8       ??_C@_1M@EANAGDL@?$AAn?$AAb?$AA?9?$AAN?$AAO?$AA?$AA@ 00000001800267c8     libucrt:lcidtoname_downlevel.obj
 0002:000047d8       ??_C@_1M@NEIEMEGP@?$AAp?$AAl?$AA?9?$AAP?$AAL?$AA?$AA@ 00000001800267d8     libucrt:lcidtoname_downlevel.obj
 0002:000047e8       ??_C@_1M@BOCFIGEP@?$AAp?$AAt?$AA?9?$AAB?$AAR?$AA?$AA@ 00000001800267e8     libucrt:lcidtoname_downlevel.obj
 0002:000047f8       ??_C@_1M@IMPFOPBG@?$AAr?$AAo?$AA?9?$AAR?$AAO?$AA?$AA@ 00000001800267f8     libucrt:lcidtoname_downlevel.obj
 0002:00004808       ??_C@_1M@IDNNEJMM@?$AAr?$AAu?$AA?9?$AAR?$AAU?$AA?$AA@ 0000000180026808     libucrt:lcidtoname_downlevel.obj
 0002:00004818       ??_C@_1M@LILEEOGM@?$AAh?$AAr?$AA?9?$AAH?$AAR?$AA?$AA@ 0000000180026818     libucrt:lcidtoname_downlevel.obj
 0002:00004828       ??_C@_1M@FKIFEHPB@?$AAs?$AAk?$AA?9?$AAS?$AAK?$AA?$AA@ 0000000180026828     libucrt:lcidtoname_downlevel.obj
 0002:00004838       ??_C@_1M@LJMAMNPJ@?$AAs?$AAq?$AA?9?$AAA?$AAL?$AA?$AA@ 0000000180026838     libucrt:lcidtoname_downlevel.obj
 0002:00004848       ??_C@_1M@GIAKDKJK@?$AAs?$AAv?$AA?9?$AAS?$AAE?$AA?$AA@ 0000000180026848     libucrt:lcidtoname_downlevel.obj
 0002:00004858       ??_C@_1M@MKJKIKCL@?$AAt?$AAh?$AA?9?$AAT?$AAH?$AA?$AA@ 0000000180026858     libucrt:lcidtoname_downlevel.obj
 0002:00004868       ??_C@_1M@MFLCCMPB@?$AAt?$AAr?$AA?9?$AAT?$AAR?$AA?$AA@ 0000000180026868     libucrt:lcidtoname_downlevel.obj
 0002:00004878       ??_C@_1M@OIJHDKJN@?$AAu?$AAr?$AA?9?$AAP?$AAK?$AA?$AA@ 0000000180026878     libucrt:lcidtoname_downlevel.obj
 0002:00004888       ??_C@_1M@LHIPCIEK@?$AAi?$AAd?$AA?9?$AAI?$AAD?$AA?$AA@ 0000000180026888     libucrt:lcidtoname_downlevel.obj
 0002:00004898       ??_C@_1M@MFMOBGI@?$AAu?$AAk?$AA?9?$AAU?$AAA?$AA?$AA@ 0000000180026898     libucrt:lcidtoname_downlevel.obj
 0002:000048a8       ??_C@_1M@OBGLJIPL@?$AAb?$AAe?$AA?9?$AAB?$AAY?$AA?$AA@ 00000001800268a8     libucrt:lcidtoname_downlevel.obj
 0002:000048b8       ??_C@_1M@BCFAJEAD@?$AAs?$AAl?$AA?9?$AAS?$AAI?$AA?$AA@ 00000001800268b8     libucrt:lcidtoname_downlevel.obj
 0002:000048c8       ??_C@_1M@FKFFEDDN@?$AAe?$AAt?$AA?9?$AAE?$AAE?$AA?$AA@ 00000001800268c8     libucrt:lcidtoname_downlevel.obj
 0002:000048d8       ??_C@_1M@KGKKAACI@?$AAl?$AAv?$AA?9?$AAL?$AAV?$AA?$AA@ 00000001800268d8     libucrt:lcidtoname_downlevel.obj
 0002:000048e8       ??_C@_1M@IFGBIJO@?$AAl?$AAt?$AA?9?$AAL?$AAT?$AA?$AA@ 00000001800268e8     libucrt:lcidtoname_downlevel.obj
 0002:000048f8       ??_C@_1M@FGEAHEDM@?$AAf?$AAa?$AA?9?$AAI?$AAR?$AA?$AA@ 00000001800268f8     libucrt:lcidtoname_downlevel.obj
 0002:00004908       ??_C@_1M@KBMAIBFN@?$AAv?$AAi?$AA?9?$AAV?$AAN?$AA?$AA@ 0000000180026908     libucrt:lcidtoname_downlevel.obj
 0002:00004918       ??_C@_1M@GPCBKDJK@?$AAh?$AAy?$AA?9?$AAA?$AAM?$AA?$AA@ 0000000180026918     libucrt:lcidtoname_downlevel.obj
 0002:00004928       ??_C@_1BG@BECMDDJB@?$AAa?$AAz?$AA?9?$AAA?$AAZ?$AA?9?$AAL?$AAa?$AAt?$AAn?$AA?$AA@ 0000000180026928     libucrt:lcidtoname_downlevel.obj
 0002:00004940       ??_C@_1M@MAOFCAEA@?$AAe?$AAu?$AA?9?$AAE?$AAS?$AA?$AA@ 0000000180026940     libucrt:lcidtoname_downlevel.obj
 0002:00004950       ??_C@_1M@IGHABKPI@?$AAm?$AAk?$AA?9?$AAM?$AAK?$AA?$AA@ 0000000180026950     libucrt:lcidtoname_downlevel.obj
 0002:00004960       ??_C@_1M@IAIGNEJG@?$AAt?$AAn?$AA?9?$AAZ?$AAA?$AA?$AA@ 0000000180026960     libucrt:lcidtoname_downlevel.obj
 0002:00004970       ??_C@_1M@IIJCOJFA@?$AAx?$AAh?$AA?9?$AAZ?$AAA?$AA?$AA@ 0000000180026970     libucrt:lcidtoname_downlevel.obj
 0002:00004980       ??_C@_1M@LGPJHNJH@?$AAz?$AAu?$AA?9?$AAZ?$AAA?$AA?$AA@ 0000000180026980     libucrt:lcidtoname_downlevel.obj
 0002:00004990       ??_C@_1M@HOKAOIO@?$AAa?$AAf?$AA?9?$AAZ?$AAA?$AA?$AA@ 0000000180026990     libucrt:lcidtoname_downlevel.obj
 0002:000049a0       ??_C@_1M@DPCLHLIE@?$AAk?$AAa?$AA?9?$AAG?$AAE?$AA?$AA@ 00000001800269a0     libucrt:lcidtoname_downlevel.obj
 0002:000049b0       ??_C@_1M@BLKMHJBI@?$AAf?$AAo?$AA?9?$AAF?$AAO?$AA?$AA@ 00000001800269b0     libucrt:lcidtoname_downlevel.obj
 0002:000049c0       ??_C@_1M@LGGJAPPB@?$AAh?$AAi?$AA?9?$AAI?$AAN?$AA?$AA@ 00000001800269c0     libucrt:lcidtoname_downlevel.obj
 0002:000049d0       ??_C@_1M@FIKPIHFE@?$AAm?$AAt?$AA?9?$AAM?$AAT?$AA?$AA@ 00000001800269d0     libucrt:lcidtoname_downlevel.obj
 0002:000049e0       ??_C@_1M@HEGGPBFA@?$AAs?$AAe?$AA?9?$AAN?$AAO?$AA?$AA@ 00000001800269e0     libucrt:lcidtoname_downlevel.obj
 0002:000049f0       ??_C@_1M@EIBJEEPA@?$AAm?$AAs?$AA?9?$AAM?$AAY?$AA?$AA@ 00000001800269f0     libucrt:lcidtoname_downlevel.obj
 0002:00004a00       ??_C@_1M@FHLBGMPP@?$AAk?$AAk?$AA?9?$AAK?$AAZ?$AA?$AA@ 0000000180026a00     libucrt:lcidtoname_downlevel.obj
 0002:00004a10       ??_C@_1M@NGJJLCGI@?$AAk?$AAy?$AA?9?$AAK?$AAG?$AA?$AA@ 0000000180026a10     libucrt:lcidtoname_downlevel.obj
 0002:00004a20       ??_C@_1M@GIENNBFC@?$AAs?$AAw?$AA?9?$AAK?$AAE?$AA?$AA@ 0000000180026a20     libucrt:lcidtoname_downlevel.obj
 0002:00004a30       ??_C@_1BG@NDGMJIMJ@?$AAu?$AAz?$AA?9?$AAU?$AAZ?$AA?9?$AAL?$AAa?$AAt?$AAn?$AA?$AA@ 0000000180026a30     libucrt:lcidtoname_downlevel.obj
 0002:00004a48       ??_C@_1M@IDCCIHBC@?$AAt?$AAt?$AA?9?$AAR?$AAU?$AA?$AA@ 0000000180026a48     libucrt:lcidtoname_downlevel.obj
 0002:00004a58       ??_C@_1M@LOICPMOJ@?$AAb?$AAn?$AA?9?$AAI?$AAN?$AA?$AA@ 0000000180026a58     libucrt:lcidtoname_downlevel.obj
 0002:00004a68       ??_C@_1M@KPKKNEAH@?$AAp?$AAa?$AA?9?$AAI?$AAN?$AA?$AA@ 0000000180026a68     libucrt:lcidtoname_downlevel.obj
 0002:00004a78       ??_C@_1M@PJGPPBOG@?$AAg?$AAu?$AA?9?$AAI?$AAN?$AA?$AA@ 0000000180026a78     libucrt:lcidtoname_downlevel.obj
 0002:00004a88       ??_C@_1M@KMKMOPHI@?$AAt?$AAa?$AA?9?$AAI?$AAN?$AA?$AA@ 0000000180026a88     libucrt:lcidtoname_downlevel.obj
 0002:00004a98       ??_C@_1M@KFEHEPAC@?$AAt?$AAe?$AA?9?$AAI?$AAN?$AA?$AA@ 0000000180026a98     libucrt:lcidtoname_downlevel.obj
 0002:00004aa8       ??_C@_1M@CDCLMGHI@?$AAk?$AAn?$AA?9?$AAI?$AAN?$AA?$AA@ 0000000180026aa8     libucrt:lcidtoname_downlevel.obj
 0002:00004ab8       ??_C@_1M@MIODLDKF@?$AAm?$AAl?$AA?9?$AAI?$AAN?$AA?$AA@ 0000000180026ab8     libucrt:lcidtoname_downlevel.obj
 0002:00004ac8       ??_C@_1M@PBIEACPO@?$AAm?$AAr?$AA?9?$AAI?$AAN?$AA?$AA@ 0000000180026ac8     libucrt:lcidtoname_downlevel.obj
 0002:00004ad8       ??_C@_1M@NIDEAGPH@?$AAs?$AAa?$AA?9?$AAI?$AAN?$AA?$AA@ 0000000180026ad8     libucrt:lcidtoname_downlevel.obj
 0002:00004ae8       ??_C@_1M@FHIHCBIO@?$AAm?$AAn?$AA?9?$AAM?$AAN?$AA?$AA@ 0000000180026ae8     libucrt:lcidtoname_downlevel.obj
 0002:00004af8       ??_C@_1M@JAIJPENP@?$AAc?$AAy?$AA?9?$AAG?$AAB?$AA?$AA@ 0000000180026af8     libucrt:lcidtoname_downlevel.obj
 0002:00004b08       ??_C@_1M@PHGFBEPN@?$AAg?$AAl?$AA?9?$AAE?$AAS?$AA?$AA@ 0000000180026b08     libucrt:lcidtoname_downlevel.obj
 0002:00004b18       ??_C@_1O@KPIPDNCP@?$AAk?$AAo?$AAk?$AA?9?$AAI?$AAN?$AA?$AA@ 0000000180026b18     libucrt:lcidtoname_downlevel.obj
 0002:00004b28       ??_C@_1O@KNHJLDJA@?$AAs?$AAy?$AAr?$AA?9?$AAS?$AAY?$AA?$AA@ 0000000180026b28     libucrt:lcidtoname_downlevel.obj
 0002:00004b38       ??_C@_1O@MKEKBLAH@?$AAd?$AAi?$AAv?$AA?9?$AAM?$AAV?$AA?$AA@ 0000000180026b38     libucrt:lcidtoname_downlevel.obj
 0002:00004b48       ??_C@_1O@OHDCKDDF@?$AAq?$AAu?$AAz?$AA?9?$AAB?$AAO?$AA?$AA@ 0000000180026b48     libucrt:lcidtoname_downlevel.obj
 0002:00004b58       ??_C@_1M@LEPJNLFD@?$AAn?$AAs?$AA?9?$AAZ?$AAA?$AA?$AA@ 0000000180026b58     libucrt:lcidtoname_downlevel.obj
 0002:00004b68       ??_C@_1M@OMLEIIJB@?$AAm?$AAi?$AA?9?$AAN?$AAZ?$AA?$AA@ 0000000180026b68     libucrt:lcidtoname_downlevel.obj
 0002:00004b78       ??_C@_1M@PMPEAILG@?$AAa?$AAr?$AA?9?$AAI?$AAQ?$AA?$AA@ 0000000180026b78     libucrt:lcidtoname_downlevel.obj
 0002:00004b88       ??_C@_1M@CNKPNOEE@?$AAd?$AAe?$AA?9?$AAC?$AAH?$AA?$AA@ 0000000180026b88     libucrt:lcidtoname_downlevel.obj
 0002:00004b98       ??_C@_1M@LKMGMLKO@?$AAe?$AAn?$AA?9?$AAG?$AAB?$AA?$AA@ 0000000180026b98     libucrt:lcidtoname_downlevel.obj
 0002:00004ba8       ??_C@_1M@PGKJFFGL@?$AAe?$AAs?$AA?9?$AAM?$AAX?$AA?$AA@ 0000000180026ba8     libucrt:lcidtoname_downlevel.obj
 0002:00004bb8       ??_C@_1M@DNNANBDC@?$AAf?$AAr?$AA?9?$AAB?$AAE?$AA?$AA@ 0000000180026bb8     libucrt:lcidtoname_downlevel.obj
 0002:00004bc8       ??_C@_1M@HLGMDFHM@?$AAi?$AAt?$AA?9?$AAC?$AAH?$AA?$AA@ 0000000180026bc8     libucrt:lcidtoname_downlevel.obj
 0002:00004bd8       ??_C@_1M@CLLBGJH@?$AAn?$AAl?$AA?9?$AAB?$AAE?$AA?$AA@ 0000000180026bd8     libucrt:lcidtoname_downlevel.obj
 0002:00004be8       ??_C@_1M@BODBOGLF@?$AAn?$AAn?$AA?9?$AAN?$AAO?$AA?$AA@ 0000000180026be8     libucrt:lcidtoname_downlevel.obj
 0002:00004bf8       ??_C@_1M@HFFAHKAD@?$AAp?$AAt?$AA?9?$AAP?$AAT?$AA?$AA@ 0000000180026bf8     libucrt:lcidtoname_downlevel.obj
 0002:00004c08       ??_C@_1BG@LNOAKHIE@?$AAs?$AAr?$AA?9?$AAS?$AAP?$AA?9?$AAL?$AAa?$AAt?$AAn?$AA?$AA@ 0000000180026c08     libucrt:lcidtoname_downlevel.obj
 0002:00004c20       ??_C@_1M@HBMHBGAK@?$AAs?$AAv?$AA?9?$AAF?$AAI?$AA?$AA@ 0000000180026c20     libucrt:lcidtoname_downlevel.obj
 0002:00004c30       ??_C@_1BG@DGCJGJBE@?$AAa?$AAz?$AA?9?$AAA?$AAZ?$AA?9?$AAC?$AAy?$AAr?$AAl?$AA?$AA@ 0000000180026c30     libucrt:lcidtoname_downlevel.obj
 0002:00004c48       ??_C@_1M@KEJDAAHB@?$AAs?$AAe?$AA?9?$AAS?$AAE?$AA?$AA@ 0000000180026c48     libucrt:lcidtoname_downlevel.obj
 0002:00004c58       ??_C@_1M@HEIBJJAD@?$AAm?$AAs?$AA?9?$AAB?$AAN?$AA?$AA@ 0000000180026c58     libucrt:lcidtoname_downlevel.obj
 0002:00004c68       ??_C@_1BG@PBGJMCEM@?$AAu?$AAz?$AA?9?$AAU?$AAZ?$AA?9?$AAC?$AAy?$AAr?$AAl?$AA?$AA@ 0000000180026c68     libucrt:lcidtoname_downlevel.obj
 0002:00004c80       ??_C@_1O@LAOBCMDF@?$AAq?$AAu?$AAz?$AA?9?$AAE?$AAC?$AA?$AA@ 0000000180026c80     libucrt:lcidtoname_downlevel.obj
 0002:00004c90       ??_C@_1M@POEEMAIO@?$AAa?$AAr?$AA?9?$AAE?$AAG?$AA?$AA@ 0000000180026c90     libucrt:lcidtoname_downlevel.obj
 0002:00004ca0       ??_C@_1M@EFAKDEDL@?$AAz?$AAh?$AA?9?$AAH?$AAK?$AA?$AA@ 0000000180026ca0     libucrt:lcidtoname_downlevel.obj
 0002:00004cb0       ??_C@_1M@HKKIJHGI@?$AAd?$AAe?$AA?9?$AAA?$AAT?$AA?$AA@ 0000000180026cb0     libucrt:lcidtoname_downlevel.obj
 0002:00004cc0       ??_C@_1M@KBFBEHJF@?$AAe?$AAn?$AA?9?$AAA?$AAU?$AA?$AA@ 0000000180026cc0     libucrt:lcidtoname_downlevel.obj
 0002:00004cd0       ??_C@_1M@MNPLFAAH@?$AAe?$AAs?$AA?9?$AAE?$AAS?$AA?$AA@ 0000000180026cd0     libucrt:lcidtoname_downlevel.obj
 0002:00004ce0       ??_C@_1M@HJOOJFMA@?$AAf?$AAr?$AA?9?$AAC?$AAA?$AA?$AA@ 0000000180026ce0     libucrt:lcidtoname_downlevel.obj
 0002:00004cf0       ??_C@_1BG@JPOFPNAB@?$AAs?$AAr?$AA?9?$AAS?$AAP?$AA?9?$AAC?$AAy?$AAr?$AAl?$AA?$AA@ 0000000180026cf0     libucrt:lcidtoname_downlevel.obj
 0002:00004d08       ??_C@_1M@LNFOCMOB@?$AAs?$AAe?$AA?9?$AAF?$AAI?$AA?$AA@ 0000000180026d08     libucrt:lcidtoname_downlevel.obj
 0002:00004d18       ??_C@_1O@MGJBOAMB@?$AAq?$AAu?$AAz?$AA?9?$AAP?$AAE?$AA?$AA@ 0000000180026d18     libucrt:lcidtoname_downlevel.obj
 0002:00004d28       ??_C@_1M@GJINLBOK@?$AAa?$AAr?$AA?9?$AAL?$AAY?$AA?$AA@ 0000000180026d28     libucrt:lcidtoname_downlevel.obj
 0002:00004d38       ??_C@_1M@GGMNHJNL@?$AAz?$AAh?$AA?9?$AAS?$AAG?$AA?$AA@ 0000000180026d38     libucrt:lcidtoname_downlevel.obj
 0002:00004d48       ??_C@_1M@HOIKODND@?$AAd?$AAe?$AA?9?$AAL?$AAU?$AA?$AA@ 0000000180026d48     libucrt:lcidtoname_downlevel.obj
 0002:00004d58       ??_C@_1M@DDOCCGFG@?$AAe?$AAn?$AA?9?$AAC?$AAA?$AA?$AA@ 0000000180026d58     libucrt:lcidtoname_downlevel.obj
 0002:00004d68       ??_C@_1M@BNOEMJLF@?$AAe?$AAs?$AA?9?$AAG?$AAT?$AA?$AA@ 0000000180026d68     libucrt:lcidtoname_downlevel.obj
 0002:00004d78       ??_C@_1M@EOGNKEK@?$AAf?$AAr?$AA?9?$AAC?$AAH?$AA?$AA@ 0000000180026d78     libucrt:lcidtoname_downlevel.obj
 0002:00004d88       ??_C@_1M@FLIDJFHL@?$AAh?$AAr?$AA?9?$AAB?$AAA?$AA?$AA@ 0000000180026d88     libucrt:lcidtoname_downlevel.obj
 0002:00004d98       ??_C@_1O@FMCELNAJ@?$AAs?$AAm?$AAj?$AA?9?$AAN?$AAO?$AA?$AA@ 0000000180026d98     libucrt:lcidtoname_downlevel.obj
 0002:00004da8       ??_C@_1M@JHGLJMGJ@?$AAa?$AAr?$AA?9?$AAD?$AAZ?$AA?$AA@ 0000000180026da8     libucrt:lcidtoname_downlevel.obj
 0002:00004db8       ??_C@_1M@JKKFDCNP@?$AAz?$AAh?$AA?9?$AAM?$AAO?$AA?$AA@ 0000000180026db8     libucrt:lcidtoname_downlevel.obj
 0002:00004dc8       ??_C@_1M@GEEFALPE@?$AAd?$AAe?$AA?9?$AAL?$AAI?$AA?$AA@ 0000000180026dc8     libucrt:lcidtoname_downlevel.obj
 0002:00004dd8       ??_C@_1M@IGEOFBG@?$AAe?$AAn?$AA?9?$AAN?$AAZ?$AA?$AA@ 0000000180026dd8     libucrt:lcidtoname_downlevel.obj
 0002:00004de8       ??_C@_1M@KDBONEHP@?$AAe?$AAs?$AA?9?$AAC?$AAR?$AA?$AA@ 0000000180026de8     libucrt:lcidtoname_downlevel.obj
 0002:00004df8       ??_C@_1M@FHMDOHNN@?$AAf?$AAr?$AA?9?$AAL?$AAU?$AA?$AA@ 0000000180026df8     libucrt:lcidtoname_downlevel.obj
 0002:00004e08       ??_C@_1BG@NFKKMAFG@?$AAb?$AAs?$AA?9?$AAB?$AAA?$AA?9?$AAL?$AAa?$AAt?$AAn?$AA?$AA@ 0000000180026e08     libucrt:lcidtoname_downlevel.obj
 0002:00004e20       ??_C@_1O@IMNBEMCI@?$AAs?$AAm?$AAj?$AA?9?$AAS?$AAE?$AA?$AA@ 0000000180026e20     libucrt:lcidtoname_downlevel.obj
 0002:00004e30       ??_C@_1M@DHHMBNDP@?$AAa?$AAr?$AA?9?$AAM?$AAA?$AA?$AA@ 0000000180026e30     libucrt:lcidtoname_downlevel.obj
 0002:00004e40       ??_C@_1M@BNBLJCGH@?$AAe?$AAn?$AA?9?$AAI?$AAE?$AA?$AA@ 0000000180026e40     libucrt:lcidtoname_downlevel.obj
 0002:00004e50       ??_C@_1M@GEPAFMDL@?$AAe?$AAs?$AA?9?$AAP?$AAA?$AA?$AA@ 0000000180026e50     libucrt:lcidtoname_downlevel.obj
 0002:00004e60       ??_C@_1M@OJONDMDL@?$AAf?$AAr?$AA?9?$AAM?$AAC?$AA?$AA@ 0000000180026e60     libucrt:lcidtoname_downlevel.obj
 0002:00004e70       ??_C@_1BG@OBCNFJB@?$AAs?$AAr?$AA?9?$AAB?$AAA?$AA?9?$AAL?$AAa?$AAt?$AAn?$AA?$AA@ 0000000180026e70     libucrt:lcidtoname_downlevel.obj
 0002:00004e88       ??_C@_1O@KEMEEGPO@?$AAs?$AAm?$AAa?$AA?9?$AAN?$AAO?$AA?$AA@ 0000000180026e88     libucrt:lcidtoname_downlevel.obj
 0002:00004e98       ??_C@_1M@ELMGFODK@?$AAa?$AAr?$AA?9?$AAT?$AAN?$AA?$AA@ 0000000180026e98     libucrt:lcidtoname_downlevel.obj
 0002:00004ea8       ??_C@_1M@BHDLHFAF@?$AAe?$AAn?$AA?9?$AAZ?$AAA?$AA?$AA@ 0000000180026ea8     libucrt:lcidtoname_downlevel.obj
 0002:00004eb8       ??_C@_1M@BMGIGLIF@?$AAe?$AAs?$AA?9?$AAD?$AAO?$AA?$AA@ 0000000180026eb8     libucrt:lcidtoname_downlevel.obj
 0002:00004ec8       ??_C@_1BG@CMBHIPBE@?$AAs?$AAr?$AA?9?$AAB?$AAA?$AA?9?$AAC?$AAy?$AAr?$AAl?$AA?$AA@ 0000000180026ec8     libucrt:lcidtoname_downlevel.obj
 0002:00004ee0       ??_C@_1O@HEDBLHNP@?$AAs?$AAm?$AAa?$AA?9?$AAS?$AAE?$AA?$AA@ 0000000180026ee0     libucrt:lcidtoname_downlevel.obj
 0002:00004ef0       ??_C@_1M@DAGCADIM@?$AAa?$AAr?$AA?9?$AAO?$AAM?$AA?$AA@ 0000000180026ef0     libucrt:lcidtoname_downlevel.obj
 0002:00004f00       ??_C@_1M@FODLMICG@?$AAe?$AAn?$AA?9?$AAJ?$AAM?$AA?$AA@ 0000000180026f00     libucrt:lcidtoname_downlevel.obj
 0002:00004f10       ??_C@_1M@DNMLCIHB@?$AAe?$AAs?$AA?9?$AAV?$AAE?$AA?$AA@ 0000000180026f10     libucrt:lcidtoname_downlevel.obj
 0002:00004f20       ??_C@_1O@EOKHMKJK@?$AAs?$AAm?$AAs?$AA?9?$AAF?$AAI?$AA?$AA@ 0000000180026f20     libucrt:lcidtoname_downlevel.obj
 0002:00004f30       ??_C@_1M@CAFJMKOF@?$AAa?$AAr?$AA?9?$AAY?$AAE?$AA?$AA@ 0000000180026f30     libucrt:lcidtoname_downlevel.obj
 0002:00004f40       ??_C@_1M@CBFHIJLI@?$AAe?$AAn?$AA?9?$AAC?$AAB?$AA?$AA@ 0000000180026f40     libucrt:lcidtoname_downlevel.obj
 0002:00004f50       ??_C@_1M@BGNFLDN@?$AAe?$AAs?$AA?9?$AAC?$AAO?$AA?$AA@ 0000000180026f50     libucrt:lcidtoname_downlevel.obj
 0002:00004f60       ??_C@_1O@JMPHMAMC@?$AAs?$AAm?$AAn?$AA?9?$AAF?$AAI?$AA?$AA@ 0000000180026f60     libucrt:lcidtoname_downlevel.obj
 0002:00004f70       ??_C@_1M@JLANABKE@?$AAa?$AAr?$AA?9?$AAS?$AAY?$AA?$AA@ 0000000180026f70     libucrt:lcidtoname_downlevel.obj
 0002:00004f80       ??_C@_1M@HPKGCFGN@?$AAe?$AAn?$AA?9?$AAB?$AAZ?$AA?$AA@ 0000000180026f80     libucrt:lcidtoname_downlevel.obj
 0002:00004f90       ??_C@_1M@OLJCMLGM@?$AAe?$AAs?$AA?9?$AAP?$AAE?$AA?$AA@ 0000000180026f90     libucrt:lcidtoname_downlevel.obj
 0002:00004fa0       ??_C@_1M@MKKGFKLE@?$AAa?$AAr?$AA?9?$AAJ?$AAO?$AA?$AA@ 0000000180026fa0     libucrt:lcidtoname_downlevel.obj
 0002:00004fb0       ??_C@_1M@EKPGLDNI@?$AAe?$AAn?$AA?9?$AAT?$AAT?$AA?$AA@ 0000000180026fb0     libucrt:lcidtoname_downlevel.obj
 0002:00004fc0       ??_C@_1M@OONGHFHE@?$AAe?$AAs?$AA?9?$AAA?$AAR?$AA?$AA@ 0000000180026fc0     libucrt:lcidtoname_downlevel.obj
 0002:00004fd0       ??_C@_1M@OOJFGBHE@?$AAa?$AAr?$AA?9?$AAL?$AAB?$AA?$AA@ 0000000180026fd0     libucrt:lcidtoname_downlevel.obj
 0002:00004fe0       ??_C@_1M@GCEJHNEG@?$AAe?$AAn?$AA?9?$AAZ?$AAW?$AA?$AA@ 0000000180026fe0     libucrt:lcidtoname_downlevel.obj
 0002:00004ff0       ??_C@_1M@JNOCAHJI@?$AAe?$AAs?$AA?9?$AAE?$AAC?$AA?$AA@ 0000000180026ff0     libucrt:lcidtoname_downlevel.obj
 0002:00005000       ??_C@_1M@JEFHPGGB@?$AAa?$AAr?$AA?9?$AAK?$AAW?$AA?$AA@ 0000000180027000     libucrt:lcidtoname_downlevel.obj
 0002:00005010       ??_C@_1M@MLKIBJOJ@?$AAe?$AAn?$AA?9?$AAP?$AAH?$AA?$AA@ 0000000180027010     libucrt:lcidtoname_downlevel.obj
 0002:00005020       ??_C@_1M@BDNIPEND@?$AAe?$AAs?$AA?9?$AAC?$AAL?$AA?$AA@ 0000000180027020     libucrt:lcidtoname_downlevel.obj
 0002:00005030       ??_C@_1M@MPNMEKBD@?$AAa?$AAr?$AA?9?$AAA?$AAE?$AA?$AA@ 0000000180027030     libucrt:lcidtoname_downlevel.obj
 0002:00005040       ??_C@_1M@KBJALCPI@?$AAe?$AAs?$AA?9?$AAU?$AAY?$AA?$AA@ 0000000180027040     libucrt:lcidtoname_downlevel.obj
 0002:00005050       ??_C@_1M@LLCCOAGA@?$AAa?$AAr?$AA?9?$AAB?$AAH?$AA?$AA@ 0000000180027050     libucrt:lcidtoname_downlevel.obj
 0002:00005060       ??_C@_1M@PBFNCDEL@?$AAe?$AAs?$AA?9?$AAP?$AAY?$AA?$AA@ 0000000180027060     libucrt:lcidtoname_downlevel.obj
 0002:00005070       ??_C@_1M@EDGINPNP@?$AAa?$AAr?$AA?9?$AAQ?$AAA?$AA?$AA@ 0000000180027070     libucrt:lcidtoname_downlevel.obj
 0002:00005080       ??_C@_1M@MKDBIIJI@?$AAe?$AAs?$AA?9?$AAB?$AAO?$AA?$AA@ 0000000180027080     libucrt:lcidtoname_downlevel.obj
 0002:00005090       ??_C@_1M@CPKKEBLD@?$AAe?$AAs?$AA?9?$AAS?$AAV?$AA?$AA@ 0000000180027090     libucrt:lcidtoname_downlevel.obj
 0002:000050a0       ??_C@_1M@NDBGMMJL@?$AAe?$AAs?$AA?9?$AAH?$AAN?$AA?$AA@ 00000001800270a0     libucrt:lcidtoname_downlevel.obj
 0002:000050b0       ??_C@_1M@JIJIBHDP@?$AAe?$AAs?$AA?9?$AAN?$AAI?$AA?$AA@ 00000001800270b0     libucrt:lcidtoname_downlevel.obj
 0002:000050c0       ??_C@_1M@CGFMKEEK@?$AAe?$AAs?$AA?9?$AAP?$AAR?$AA?$AA@ 00000001800270c0     libucrt:lcidtoname_downlevel.obj
 0002:000050d0       ??_C@_1O@ICJHKIIK@?$AAz?$AAh?$AA?9?$AAC?$AAH?$AAT?$AA?$AA@ 00000001800270d0     libucrt:lcidtoname_downlevel.obj
 0002:000050e0       ??_C@_15CLNEJCE@?$AAs?$AAr?$AA?$AA@ 00000001800270e0     libucrt:lcidtoname_downlevel.obj
 0002:00005f30       ??_C@_1M@KAHEKEIG@?$AAa?$AAf?$AA?9?$AAz?$AAa?$AA?$AA@ 0000000180027f30     libucrt:lcidtoname_downlevel.obj
 0002:00005f40       ??_C@_1M@GIECOABL@?$AAa?$AAr?$AA?9?$AAa?$AAe?$AA?$AA@ 0000000180027f40     libucrt:lcidtoname_downlevel.obj
 0002:00005f50       ??_C@_1M@BMLMEKGI@?$AAa?$AAr?$AA?9?$AAb?$AAh?$AA?$AA@ 0000000180027f50     libucrt:lcidtoname_downlevel.obj
 0002:00005f60       ??_C@_1M@DAPFDGGB@?$AAa?$AAr?$AA?9?$AAd?$AAz?$AA?$AA@ 0000000180027f60     libucrt:lcidtoname_downlevel.obj
 0002:00005f70       ??_C@_1M@FJNKGKIG@?$AAa?$AAr?$AA?9?$AAe?$AAg?$AA?$AA@ 0000000180027f70     libucrt:lcidtoname_downlevel.obj
 0002:00005f80       ??_C@_1M@FLGKKCLO@?$AAa?$AAr?$AA?9?$AAi?$AAq?$AA?$AA@ 0000000180027f80     libucrt:lcidtoname_downlevel.obj
 0002:00005f90       ??_C@_1M@GNDIPALM@?$AAa?$AAr?$AA?9?$AAj?$AAo?$AA?$AA@ 0000000180027f90     libucrt:lcidtoname_downlevel.obj
 0002:00005fa0       ??_C@_1M@DDMJFMGJ@?$AAa?$AAr?$AA?9?$AAk?$AAw?$AA?$AA@ 0000000180027fa0     libucrt:lcidtoname_downlevel.obj
 0002:00005fb0       ??_C@_1M@EJALMLHM@?$AAa?$AAr?$AA?9?$AAl?$AAb?$AA?$AA@ 0000000180027fb0     libucrt:lcidtoname_downlevel.obj
 0002:00005fc0       ??_C@_1M@MOBDBLOC@?$AAa?$AAr?$AA?9?$AAl?$AAy?$AA?$AA@ 0000000180027fc0     libucrt:lcidtoname_downlevel.obj
 0002:00005fd0       ??_C@_1M@JAOCLHDH@?$AAa?$AAr?$AA?9?$AAm?$AAa?$AA?$AA@ 0000000180027fd0     libucrt:lcidtoname_downlevel.obj
 0002:00005fe0       ??_C@_1M@JHPMKJIE@?$AAa?$AAr?$AA?9?$AAo?$AAm?$AA?$AA@ 0000000180027fe0     libucrt:lcidtoname_downlevel.obj
 0002:00005ff0       ??_C@_1M@OEPGHFNH@?$AAa?$AAr?$AA?9?$AAq?$AAa?$AA?$AA@ 0000000180027ff0     libucrt:lcidtoname_downlevel.obj
 0002:00006000       ??_C@_1M@KJDONENM@?$AAa?$AAr?$AA?9?$AAs?$AAa?$AA?$AA@ 0000000180028000     libucrt:lcidtoname_downlevel.obj
 0002:00006010       ??_C@_1M@DMJDKLKM@?$AAa?$AAr?$AA?9?$AAs?$AAy?$AA?$AA@ 0000000180028010     libucrt:lcidtoname_downlevel.obj
 0002:00006020       ??_C@_1M@OMFIPEDC@?$AAa?$AAr?$AA?9?$AAt?$AAn?$AA?$AA@ 0000000180028020     libucrt:lcidtoname_downlevel.obj
 0002:00006030       ??_C@_1M@IHMHGAON@?$AAa?$AAr?$AA?9?$AAy?$AAe?$AA?$AA@ 0000000180028030     libucrt:lcidtoname_downlevel.obj
 0002:00006040       ??_C@_1BG@KDCPGJGB@?$AAa?$AAz?$AA?9?$AAa?$AAz?$AA?9?$AAc?$AAy?$AAr?$AAl?$AA?$AA@ 0000000180028040     libucrt:lcidtoname_downlevel.obj
 0002:00006058       ??_C@_1BG@IBCKDDOE@?$AAa?$AAz?$AA?9?$AAa?$AAz?$AA?9?$AAl?$AAa?$AAt?$AAn?$AA?$AA@ 0000000180028058     libucrt:lcidtoname_downlevel.obj
 0002:00006070       ??_C@_1M@EGPFDCPD@?$AAb?$AAe?$AA?9?$AAb?$AAy?$AA?$AA@ 0000000180028070     libucrt:lcidtoname_downlevel.obj
 0002:00006080       ??_C@_1M@PCMGMCGC@?$AAb?$AAg?$AA?9?$AAb?$AAg?$AA?$AA@ 0000000180028080     libucrt:lcidtoname_downlevel.obj
 0002:00006090       ??_C@_1M@BJBMFGOB@?$AAb?$AAn?$AA?9?$AAi?$AAn?$AA?$AA@ 0000000180028090     libucrt:lcidtoname_downlevel.obj
 0002:000060a0       ??_C@_1BG@EAKMMACD@?$AAb?$AAs?$AA?9?$AAb?$AAa?$AA?9?$AAl?$AAa?$AAt?$AAn?$AA?$AA@ 00000001800280a0     libucrt:lcidtoname_downlevel.obj
 0002:000060b8       ??_C@_1M@KGADAODK@?$AAc?$AAa?$AA?9?$AAe?$AAs?$AA?$AA@ 00000001800280b8     libucrt:lcidtoname_downlevel.obj
 0002:000060c8       ??_C@_1M@COAJPDHI@?$AAc?$AAs?$AA?9?$AAc?$AAz?$AA?$AA@ 00000001800280c8     libucrt:lcidtoname_downlevel.obj
 0002:000060d8       ??_C@_1M@DHBHFONH@?$AAc?$AAy?$AA?9?$AAg?$AAb?$AA?$AA@ 00000001800280d8     libucrt:lcidtoname_downlevel.obj
 0002:000060e8       ??_C@_1M@IMGKELGA@?$AAd?$AAa?$AA?9?$AAd?$AAk?$AA?$AA@ 00000001800280e8     libucrt:lcidtoname_downlevel.obj
 0002:000060f8       ??_C@_1M@NNDGDNGA@?$AAd?$AAe?$AA?9?$AAa?$AAt?$AA?$AA@ 00000001800280f8     libucrt:lcidtoname_downlevel.obj
 0002:00006108       ??_C@_1M@IKDBHEEM@?$AAd?$AAe?$AA?9?$AAc?$AAh?$AA?$AA@ 0000000180028108     libucrt:lcidtoname_downlevel.obj
 0002:00006118       ??_C@_1M@GFFOJMCJ@?$AAd?$AAe?$AA?9?$AAd?$AAe?$AA?$AA@ 0000000180028118     libucrt:lcidtoname_downlevel.obj
 0002:00006128       ??_C@_1M@MDNLKBPM@?$AAd?$AAe?$AA?9?$AAl?$AAi?$AA?$AA@ 0000000180028128     libucrt:lcidtoname_downlevel.obj
 0002:00006138       ??_C@_1M@NJBEEJNL@?$AAd?$AAe?$AA?9?$AAl?$AAu?$AA?$AA@ 0000000180028138     libucrt:lcidtoname_downlevel.obj
 0002:00006148       ??_C@_1O@GNNELBAP@?$AAd?$AAi?$AAv?$AA?9?$AAm?$AAv?$AA?$AA@ 0000000180028148     libucrt:lcidtoname_downlevel.obj
 0002:00006158       ??_C@_1M@EJLEOGAE@?$AAe?$AAl?$AA?9?$AAg?$AAr?$AA?$AA@ 0000000180028158     libucrt:lcidtoname_downlevel.obj
 0002:00006168       ??_C@_1M@GMPONJN@?$AAe?$AAn?$AA?9?$AAa?$AAu?$AA?$AA@ 0000000180028168     libucrt:lcidtoname_downlevel.obj
 0002:00006178       ??_C@_1M@NIDIIPGF@?$AAe?$AAn?$AA?9?$AAb?$AAz?$AA?$AA@ 0000000180028178     libucrt:lcidtoname_downlevel.obj
 0002:00006188       ??_C@_1M@JEHMIMFO@?$AAe?$AAn?$AA?9?$AAc?$AAa?$AA?$AA@ 0000000180028188     libucrt:lcidtoname_downlevel.obj
 0002:00006198       ??_C@_1M@IGMJCDLA@?$AAe?$AAn?$AA?9?$AAc?$AAb?$AA?$AA@ 0000000180028198     libucrt:lcidtoname_downlevel.obj
 0002:000061a8       ??_C@_1M@BNFIGBKG@?$AAe?$AAn?$AA?9?$AAg?$AAb?$AA?$AA@ 00000001800281a8     libucrt:lcidtoname_downlevel.obj
 0002:000061b8       ??_C@_1M@LKIFDIGP@?$AAe?$AAn?$AA?9?$AAi?$AAe?$AA?$AA@ 00000001800281b8     libucrt:lcidtoname_downlevel.obj
 0002:000061c8       ??_C@_1M@PJKFGCCO@?$AAe?$AAn?$AA?9?$AAj?$AAm?$AA?$AA@ 00000001800281c8     libucrt:lcidtoname_downlevel.obj
 0002:000061d8       ??_C@_1M@KPPKEPBO@?$AAe?$AAn?$AA?9?$AAn?$AAz?$AA?$AA@ 00000001800281d8     libucrt:lcidtoname_downlevel.obj
 0002:000061e8       ??_C@_1M@GMDGLDOB@?$AAe?$AAn?$AA?9?$AAp?$AAh?$AA?$AA@ 00000001800281e8     libucrt:lcidtoname_downlevel.obj
 0002:000061f8       ??_C@_1M@ONGIBJNA@?$AAe?$AAn?$AA?9?$AAt?$AAt?$AA?$AA@ 00000001800281f8     libucrt:lcidtoname_downlevel.obj
 0002:00006208       ??_C@_1M@LLODPCMM@?$AAe?$AAn?$AA?9?$AAu?$AAs?$AA?$AA@ 0000000180028208     libucrt:lcidtoname_downlevel.obj
 0002:00006218       ??_C@_1M@LAKFNPAN@?$AAe?$AAn?$AA?9?$AAz?$AAa?$AA?$AA@ 0000000180028218     libucrt:lcidtoname_downlevel.obj
 0002:00006228       ??_C@_1M@MFNHNHEO@?$AAe?$AAn?$AA?9?$AAz?$AAw?$AA?$AA@ 0000000180028228     libucrt:lcidtoname_downlevel.obj
 0002:00006238       ??_C@_1M@EJEINPHM@?$AAe?$AAs?$AA?9?$AAa?$AAr?$AA?$AA@ 0000000180028238     libucrt:lcidtoname_downlevel.obj
 0002:00006248       ??_C@_1M@GNKPCCJA@?$AAe?$AAs?$AA?9?$AAb?$AAo?$AA?$AA@ 0000000180028248     libucrt:lcidtoname_downlevel.obj
 0002:00006258       ??_C@_1M@LEEGFONL@?$AAe?$AAs?$AA?9?$AAc?$AAl?$AA?$AA@ 0000000180028258     libucrt:lcidtoname_downlevel.obj
 0002:00006268       ??_C@_1M@KGPDPBDF@?$AAe?$AAs?$AA?9?$AAc?$AAo?$AA?$AA@ 0000000180028268     libucrt:lcidtoname_downlevel.obj
 0002:00006278       ??_C@_1M@EIAHOHH@?$AAe?$AAs?$AA?9?$AAc?$AAr?$AA?$AA@ 0000000180028278     libucrt:lcidtoname_downlevel.obj
 0002:00006288       ??_C@_1M@LLPGMBIN@?$AAe?$AAs?$AA?9?$AAd?$AAo?$AA?$AA@ 0000000180028288     libucrt:lcidtoname_downlevel.obj
 0002:00006298       ??_C@_1M@DKHMKNJA@?$AAe?$AAs?$AA?9?$AAe?$AAc?$AA?$AA@ 0000000180028298     libucrt:lcidtoname_downlevel.obj
 0002:000062a8       ??_C@_1M@GKGFPKAP@?$AAe?$AAs?$AA?9?$AAe?$AAs?$AA?$AA@ 00000001800282a8     libucrt:lcidtoname_downlevel.obj
 0002:000062b8       ??_C@_1M@LKHKGDLN@?$AAe?$AAs?$AA?9?$AAg?$AAt?$AA?$AA@ 00000001800282b8     libucrt:lcidtoname_downlevel.obj
 0002:000062c8       ??_C@_1M@HEIIGGJD@?$AAe?$AAs?$AA?9?$AAh?$AAn?$AA?$AA@ 00000001800282c8     libucrt:lcidtoname_downlevel.obj
 0002:000062d8       ??_C@_1M@FBDHPPGD@?$AAe?$AAs?$AA?9?$AAm?$AAx?$AA?$AA@ 00000001800282d8     libucrt:lcidtoname_downlevel.obj
 0002:000062e8       ??_C@_1M@DPAGLNDH@?$AAe?$AAs?$AA?9?$AAn?$AAi?$AA?$AA@ 00000001800282e8     libucrt:lcidtoname_downlevel.obj
 0002:000062f8       ??_C@_1M@MDGOPGDD@?$AAe?$AAs?$AA?9?$AAp?$AAa?$AA?$AA@ 00000001800282f8     libucrt:lcidtoname_downlevel.obj
 0002:00006308       ??_C@_1M@EMAMGBGE@?$AAe?$AAs?$AA?9?$AAp?$AAe?$AA?$AA@ 0000000180028308     libucrt:lcidtoname_downlevel.obj
 0002:00006318       ??_C@_1M@IBMCAOEC@?$AAe?$AAs?$AA?9?$AAp?$AAr?$AA?$AA@ 0000000180028318     libucrt:lcidtoname_downlevel.obj
 0002:00006328       ??_C@_1M@FGMDIJED@?$AAe?$AAs?$AA?9?$AAp?$AAy?$AA?$AA@ 0000000180028328     libucrt:lcidtoname_downlevel.obj
 0002:00006338       ??_C@_1M@IIDEOLLL@?$AAe?$AAs?$AA?9?$AAs?$AAv?$AA?$AA@ 0000000180028338     libucrt:lcidtoname_downlevel.obj
 0002:00006348       ??_C@_1M@GAOBIPA@?$AAe?$AAs?$AA?9?$AAu?$AAy?$AA?$AA@ 0000000180028348     libucrt:lcidtoname_downlevel.obj
 0002:00006358       ??_C@_1M@JKFFICHJ@?$AAe?$AAs?$AA?9?$AAv?$AAe?$AA?$AA@ 0000000180028358     libucrt:lcidtoname_downlevel.obj
 0002:00006368       ??_C@_1M@PNMLOJDF@?$AAe?$AAt?$AA?9?$AAe?$AAe?$AA?$AA@ 0000000180028368     libucrt:lcidtoname_downlevel.obj
 0002:00006378       ??_C@_1M@GHHLIKEI@?$AAe?$AAu?$AA?9?$AAe?$AAs?$AA?$AA@ 0000000180028378     libucrt:lcidtoname_downlevel.obj
 0002:00006388       ??_C@_1M@PBNONODE@?$AAf?$AAa?$AA?9?$AAi?$AAr?$AA?$AA@ 0000000180028388     libucrt:lcidtoname_downlevel.obj
 0002:00006398       ??_C@_1M@JEEHPMIL@?$AAf?$AAi?$AA?9?$AAf?$AAi?$AA?$AA@ 0000000180028398     libucrt:lcidtoname_downlevel.obj
 0002:000063a8       ??_C@_1M@LMDCNDBA@?$AAf?$AAo?$AA?9?$AAf?$AAo?$AA?$AA@ 00000001800283a8     libucrt:lcidtoname_downlevel.obj
 0002:000063b8       ??_C@_1M@JKEOHLDK@?$AAf?$AAr?$AA?9?$AAb?$AAe?$AA?$AA@ 00000001800283b8     libucrt:lcidtoname_downlevel.obj
 0002:000063c8       ??_C@_1M@NOHADPMI@?$AAf?$AAr?$AA?9?$AAc?$AAa?$AA?$AA@ 00000001800283c8     libucrt:lcidtoname_downlevel.obj
 0002:000063d8       ??_C@_1M@KDHIHAEC@?$AAf?$AAr?$AA?9?$AAc?$AAh?$AA?$AA@ 00000001800283d8     libucrt:lcidtoname_downlevel.obj
 0002:000063e8       ??_C@_1M@MMBBFGAK@?$AAf?$AAr?$AA?9?$AAf?$AAr?$AA?$AA@ 00000001800283e8     libucrt:lcidtoname_downlevel.obj
 0002:000063f8       ??_C@_1M@PAFNENNF@?$AAf?$AAr?$AA?9?$AAl?$AAu?$AA?$AA@ 00000001800283f8     libucrt:lcidtoname_downlevel.obj
 0002:00006408       ??_C@_1M@EOHDJGDD@?$AAf?$AAr?$AA?9?$AAm?$AAc?$AA?$AA@ 0000000180028408     libucrt:lcidtoname_downlevel.obj
 0002:00006418       ??_C@_1M@FAPLLOPF@?$AAg?$AAl?$AA?9?$AAe?$AAs?$AA?$AA@ 0000000180028418     libucrt:lcidtoname_downlevel.obj
 0002:00006428       ??_C@_1M@FOPBFLOO@?$AAg?$AAu?$AA?9?$AAi?$AAn?$AA?$AA@ 0000000180028428     libucrt:lcidtoname_downlevel.obj
 0002:00006438       ??_C@_1M@KBMCINPM@?$AAh?$AAe?$AA?9?$AAi?$AAl?$AA?$AA@ 0000000180028438     libucrt:lcidtoname_downlevel.obj
 0002:00006448       ??_C@_1M@BBPHKFPJ@?$AAh?$AAi?$AA?9?$AAi?$AAn?$AA?$AA@ 0000000180028448     libucrt:lcidtoname_downlevel.obj
 0002:00006458       ??_C@_1M@PMBNDPHD@?$AAh?$AAr?$AA?9?$AAb?$AAa?$AA?$AA@ 0000000180028458     libucrt:lcidtoname_downlevel.obj
 0002:00006468       ??_C@_1M@BPCKOEGE@?$AAh?$AAr?$AA?9?$AAh?$AAr?$AA?$AA@ 0000000180028468     libucrt:lcidtoname_downlevel.obj
 0002:00006478       ??_C@_1M@GACBMHKE@?$AAh?$AAu?$AA?9?$AAh?$AAu?$AA?$AA@ 0000000180028478     libucrt:lcidtoname_downlevel.obj
 0002:00006488       ??_C@_1M@MILPAJJC@?$AAh?$AAy?$AA?9?$AAa?$AAm?$AA?$AA@ 0000000180028488     libucrt:lcidtoname_downlevel.obj
 0002:00006498       ??_C@_1M@BABBICEC@?$AAi?$AAd?$AA?9?$AAi?$AAd?$AA?$AA@ 0000000180028498     libucrt:lcidtoname_downlevel.obj
 0002:000064a8       ??_C@_1M@BIKNHHPF@?$AAi?$AAs?$AA?9?$AAi?$AAs?$AA?$AA@ 00000001800284a8     libucrt:lcidtoname_downlevel.obj
 0002:000064b8       ??_C@_1M@NMPCJPHE@?$AAi?$AAt?$AA?9?$AAc?$AAh?$AA?$AA@ 00000001800284b8     libucrt:lcidtoname_downlevel.obj
 0002:000064c8       ??_C@_1M@GHKGFEDF@?$AAi?$AAt?$AA?9?$AAi?$AAt?$AA?$AA@ 00000001800284c8     libucrt:lcidtoname_downlevel.obj
 0002:000064d8       ??_C@_1M@NIEJCJJA@?$AAj?$AAa?$AA?9?$AAj?$AAp?$AA?$AA@ 00000001800284d8     libucrt:lcidtoname_downlevel.obj
 0002:000064e8       ??_C@_1M@JILFNBIM@?$AAk?$AAa?$AA?9?$AAg?$AAe?$AA?$AA@ 00000001800284e8     libucrt:lcidtoname_downlevel.obj
 0002:000064f8       ??_C@_1M@PACPMGPH@?$AAk?$AAk?$AA?9?$AAk?$AAz?$AA?$AA@ 00000001800284f8     libucrt:lcidtoname_downlevel.obj
 0002:00006508       ??_C@_1M@IELFGMHA@?$AAk?$AAn?$AA?9?$AAi?$AAn?$AA?$AA@ 0000000180028508     libucrt:lcidtoname_downlevel.obj
 0002:00006518       ??_C@_1O@IBBJHCH@?$AAk?$AAo?$AAk?$AA?9?$AAi?$AAn?$AA?$AA@ 0000000180028518     libucrt:lcidtoname_downlevel.obj
 0002:00006528       ??_C@_1M@DMHAEOGC@?$AAk?$AAo?$AA?9?$AAk?$AAr?$AA?$AA@ 0000000180028528     libucrt:lcidtoname_downlevel.obj
 0002:00006538       ??_C@_1M@HBAHBIGA@?$AAk?$AAy?$AA?9?$AAk?$AAg?$AA?$AA@ 0000000180028538     libucrt:lcidtoname_downlevel.obj
 0002:00006548       ??_C@_1M@KPMILCJG@?$AAl?$AAt?$AA?9?$AAl?$AAt?$AA?$AA@ 0000000180028548     libucrt:lcidtoname_downlevel.obj
 0002:00006558       ??_C@_1M@BDEKKCA@?$AAl?$AAv?$AA?9?$AAl?$AAv?$AA?$AA@ 0000000180028558     libucrt:lcidtoname_downlevel.obj
 0002:00006568       ??_C@_1M@ELCKCCJJ@?$AAm?$AAi?$AA?9?$AAn?$AAz?$AA?$AA@ 0000000180028568     libucrt:lcidtoname_downlevel.obj
 0002:00006578       ??_C@_1M@CBOOLAPA@?$AAm?$AAk?$AA?9?$AAm?$AAk?$AA?$AA@ 0000000180028578     libucrt:lcidtoname_downlevel.obj
 0002:00006588       ??_C@_1M@GPHNBJKN@?$AAm?$AAl?$AA?9?$AAi?$AAn?$AA?$AA@ 0000000180028588     libucrt:lcidtoname_downlevel.obj
 0002:00006598       ??_C@_1M@PABJILIG@?$AAm?$AAn?$AA?9?$AAm?$AAn?$AA?$AA@ 0000000180028598     libucrt:lcidtoname_downlevel.obj
 0002:000065a8       ??_C@_1M@FGBKKIPG@?$AAm?$AAr?$AA?9?$AAi?$AAn?$AA?$AA@ 00000001800285a8     libucrt:lcidtoname_downlevel.obj
 0002:000065b8       ??_C@_1M@NDBPDDAL@?$AAm?$AAs?$AA?9?$AAb?$AAn?$AA?$AA@ 00000001800285b8     libucrt:lcidtoname_downlevel.obj
 0002:000065c8       ??_C@_1M@OPIHOOPI@?$AAm?$AAs?$AA?9?$AAm?$AAy?$AA?$AA@ 00000001800285c8     libucrt:lcidtoname_downlevel.obj
 0002:000065d8       ??_C@_1M@PPDBCNFM@?$AAm?$AAt?$AA?9?$AAm?$AAt?$AA?$AA@ 00000001800285d8     libucrt:lcidtoname_downlevel.obj
 0002:000065e8       ??_C@_1M@KDJDKMDD@?$AAn?$AAb?$AA?9?$AAn?$AAo?$AA?$AA@ 00000001800285e8     libucrt:lcidtoname_downlevel.obj
 0002:000065f8       ??_C@_1M@KFCFLMJP@?$AAn?$AAl?$AA?9?$AAb?$AAe?$AA?$AA@ 00000001800285f8     libucrt:lcidtoname_downlevel.obj
 0002:00006608       ??_C@_1M@KPOPDDGO@?$AAn?$AAl?$AA?9?$AAn?$AAl?$AA?$AA@ 0000000180028608     libucrt:lcidtoname_downlevel.obj
 0002:00006618       ??_C@_1M@LJKPEMLN@?$AAn?$AAn?$AA?9?$AAn?$AAo?$AA?$AA@ 0000000180028618     libucrt:lcidtoname_downlevel.obj
 0002:00006628       ??_C@_1M@BDGHHBFL@?$AAn?$AAs?$AA?9?$AAz?$AAa?$AA?$AA@ 0000000180028628     libucrt:lcidtoname_downlevel.obj
 0002:00006638       ??_C@_1M@IDEHOAP@?$AAp?$AAa?$AA?9?$AAi?$AAn?$AA?$AA@ 0000000180028638     libucrt:lcidtoname_downlevel.obj
 0002:00006648       ??_C@_1M@HDBKGOGH@?$AAp?$AAl?$AA?9?$AAp?$AAl?$AA?$AA@ 0000000180028648     libucrt:lcidtoname_downlevel.obj
 0002:00006658       ??_C@_1M@LJLLCMEH@?$AAp?$AAt?$AA?9?$AAb?$AAr?$AA?$AA@ 0000000180028658     libucrt:lcidtoname_downlevel.obj
 0002:00006668       ??_C@_1M@NCMONAAL@?$AAp?$AAt?$AA?9?$AAp?$AAt?$AA?$AA@ 0000000180028668     libucrt:lcidtoname_downlevel.obj
 0002:00006678       ??_C@_1O@EAKMAJDN@?$AAq?$AAu?$AAz?$AA?9?$AAb?$AAo?$AA?$AA@ 0000000180028678     libucrt:lcidtoname_downlevel.obj
 0002:00006688       ??_C@_1O@BHHPIGDN@?$AAq?$AAu?$AAz?$AA?9?$AAe?$AAc?$AA?$AA@ 0000000180028688     libucrt:lcidtoname_downlevel.obj
 0002:00006698       ??_C@_1O@GBAPEKMJ@?$AAq?$AAu?$AAz?$AA?9?$AAp?$AAe?$AA?$AA@ 0000000180028698     libucrt:lcidtoname_downlevel.obj
 0002:000066a8       ??_C@_1M@CLGLEFBO@?$AAr?$AAo?$AA?9?$AAr?$AAo?$AA?$AA@ 00000001800286a8     libucrt:lcidtoname_downlevel.obj
 0002:000066b8       ??_C@_1M@CEEDODME@?$AAr?$AAu?$AA?9?$AAr?$AAu?$AA?$AA@ 00000001800286b8     libucrt:lcidtoname_downlevel.obj
 0002:000066c8       ??_C@_1M@HPKKKMPP@?$AAs?$AAa?$AA?9?$AAi?$AAn?$AA?$AA@ 00000001800286c8     libucrt:lcidtoname_downlevel.obj
 0002:000066d8       ??_C@_1M@BKMAIGOJ@?$AAs?$AAe?$AA?9?$AAf?$AAi?$AA?$AA@ 00000001800286d8     libucrt:lcidtoname_downlevel.obj
 0002:000066e8       ??_C@_1M@NDPIFLFI@?$AAs?$AAe?$AA?9?$AAn?$AAo?$AA?$AA@ 00000001800286e8     libucrt:lcidtoname_downlevel.obj
 0002:000066f8       ??_C@_1M@DANKKHJ@?$AAs?$AAe?$AA?9?$AAs?$AAe?$AA?$AA@ 00000001800286f8     libucrt:lcidtoname_downlevel.obj
 0002:00006708       ??_C@_1M@PNBLONPJ@?$AAs?$AAk?$AA?9?$AAs?$AAk?$AA?$AA@ 0000000180028708     libucrt:lcidtoname_downlevel.obj
 0002:00006718       ??_C@_1M@LFMODOAL@?$AAs?$AAl?$AA?9?$AAs?$AAi?$AA?$AA@ 0000000180028718     libucrt:lcidtoname_downlevel.obj
 0002:00006728       ??_C@_1O@DFKOMPG@?$AAs?$AAm?$AAa?$AA?9?$AAn?$AAo?$AA?$AA@ 0000000180028728     libucrt:lcidtoname_downlevel.obj
 0002:00006738       ??_C@_1O@NDKPBNNH@?$AAs?$AAm?$AAa?$AA?9?$AAs?$AAe?$AA?$AA@ 0000000180028738     libucrt:lcidtoname_downlevel.obj
 0002:00006748       ??_C@_1O@PLLKBHAB@?$AAs?$AAm?$AAj?$AA?9?$AAn?$AAo?$AA?$AA@ 0000000180028748     libucrt:lcidtoname_downlevel.obj
 0002:00006758       ??_C@_1O@CLEPOGCA@?$AAs?$AAm?$AAj?$AA?9?$AAs?$AAe?$AA?$AA@ 0000000180028758     libucrt:lcidtoname_downlevel.obj
 0002:00006768       ??_C@_1O@DLGJGKMK@?$AAs?$AAm?$AAn?$AA?9?$AAf?$AAi?$AA?$AA@ 0000000180028768     libucrt:lcidtoname_downlevel.obj
 0002:00006778       ??_C@_1O@OJDJGAJC@?$AAs?$AAm?$AAs?$AA?9?$AAf?$AAi?$AA?$AA@ 0000000180028778     libucrt:lcidtoname_downlevel.obj
 0002:00006788       ??_C@_1M@BOFOGHPB@?$AAs?$AAq?$AA?9?$AAa?$AAl?$AA?$AA@ 0000000180028788     libucrt:lcidtoname_downlevel.obj
 0002:00006798       ??_C@_1BG@LJBBIPGB@?$AAs?$AAr?$AA?9?$AAb?$AAa?$AA?9?$AAc?$AAy?$AAr?$AAl?$AA?$AA@ 0000000180028798     libucrt:lcidtoname_downlevel.obj
 0002:000067b0       ??_C@_1BG@JLBENFOE@?$AAs?$AAr?$AA?9?$AAb?$AAa?$AA?9?$AAl?$AAa?$AAt?$AAn?$AA?$AA@ 00000001800287b0     libucrt:lcidtoname_downlevel.obj
 0002:000067c8       ??_C@_1BG@KODPNHE@?$AAs?$AAr?$AA?9?$AAs?$AAp?$AA?9?$AAc?$AAy?$AAr?$AAl?$AA?$AA@ 00000001800287c8     libucrt:lcidtoname_downlevel.obj
 0002:000067e0       ??_C@_1BG@CIOGKHPB@?$AAs?$AAr?$AA?9?$AAs?$AAp?$AA?9?$AAl?$AAa?$AAt?$AAn?$AA?$AA@ 00000001800287e0     libucrt:lcidtoname_downlevel.obj
 0002:000067f8       ??_C@_1M@NGFJLMAC@?$AAs?$AAv?$AA?9?$AAf?$AAi?$AA?$AA@ 00000001800287f8     libucrt:lcidtoname_downlevel.obj
 0002:00006808       ??_C@_1M@MPJEJAJC@?$AAs?$AAv?$AA?9?$AAs?$AAe?$AA?$AA@ 0000000180028808     libucrt:lcidtoname_downlevel.obj
 0002:00006818       ??_C@_1M@MPNDHLFK@?$AAs?$AAw?$AA?9?$AAk?$AAe?$AA?$AA@ 0000000180028818     libucrt:lcidtoname_downlevel.obj
 0002:00006828       ??_C@_1O@KOHBJJI@?$AAs?$AAy?$AAr?$AA?9?$AAs?$AAy?$AA?$AA@ 0000000180028828     libucrt:lcidtoname_downlevel.obj
 0002:00006838       ??_C@_1M@LDCEFHA@?$AAt?$AAa?$AA?9?$AAi?$AAn?$AA?$AA@ 0000000180028838     libucrt:lcidtoname_downlevel.obj
 0002:00006848       ??_C@_1M@CNJOFAK@?$AAt?$AAe?$AA?9?$AAi?$AAn?$AA?$AA@ 0000000180028848     libucrt:lcidtoname_downlevel.obj
 0002:00006858       ??_C@_1M@GNAECACD@?$AAt?$AAh?$AA?9?$AAt?$AAh?$AA?$AA@ 0000000180028858     libucrt:lcidtoname_downlevel.obj
 0002:00006868       ??_C@_1M@CHBIHOJO@?$AAt?$AAn?$AA?9?$AAz?$AAa?$AA?$AA@ 0000000180028868     libucrt:lcidtoname_downlevel.obj
 0002:00006878       ??_C@_1M@GCCMIGPJ@?$AAt?$AAr?$AA?9?$AAt?$AAr?$AA?$AA@ 0000000180028878     libucrt:lcidtoname_downlevel.obj
 0002:00006888       ??_C@_1M@CELMCNBK@?$AAt?$AAt?$AA?9?$AAr?$AAu?$AA?$AA@ 0000000180028888     libucrt:lcidtoname_downlevel.obj
 0002:00006898       ??_C@_1M@KLMCELGA@?$AAu?$AAk?$AA?9?$AAu?$AAa?$AA?$AA@ 0000000180028898     libucrt:lcidtoname_downlevel.obj
 0002:000068a8       ??_C@_1M@EPAJJAJF@?$AAu?$AAr?$AA?9?$AAp?$AAk?$AA?$AA@ 00000001800288a8     libucrt:lcidtoname_downlevel.obj
 0002:000068b8       ??_C@_1BG@GEGPMCDJ@?$AAu?$AAz?$AA?9?$AAu?$AAz?$AA?9?$AAc?$AAy?$AAr?$AAl?$AA?$AA@ 00000001800288b8     libucrt:lcidtoname_downlevel.obj
 0002:000068d0       ??_C@_1BG@EGGKJILM@?$AAu?$AAz?$AA?9?$AAu?$AAz?$AA?9?$AAl?$AAa?$AAt?$AAn?$AA?$AA@ 00000001800288d0     libucrt:lcidtoname_downlevel.obj
 0002:000068e8       ??_C@_1M@GFOCLFF@?$AAv?$AAi?$AA?9?$AAv?$AAn?$AA?$AA@ 00000001800288e8     libucrt:lcidtoname_downlevel.obj
 0002:000068f8       ??_C@_1M@CPAMEDFI@?$AAx?$AAh?$AA?9?$AAz?$AAa?$AA?$AA@ 00000001800288f8     libucrt:lcidtoname_downlevel.obj
 0002:00006908       ??_C@_1O@EBKIFIGN@?$AAz?$AAh?$AA?9?$AAc?$AAh?$AAs?$AA?$AA@ 0000000180028908     libucrt:lcidtoname_downlevel.obj
 0002:00006918       ??_C@_1O@NMHPGANE@?$AAz?$AAh?$AA?9?$AAc?$AAh?$AAt?$AA?$AA@ 0000000180028918     libucrt:lcidtoname_downlevel.obj
 0002:00006928       ??_C@_1M@LPINJOMC@?$AAz?$AAh?$AA?9?$AAc?$AAn?$AA?$AA@ 0000000180028928     libucrt:lcidtoname_downlevel.obj
 0002:00006938       ??_C@_1M@OCJEJODD@?$AAz?$AAh?$AA?9?$AAh?$AAk?$AA?$AA@ 0000000180028938     libucrt:lcidtoname_downlevel.obj
 0002:00006948       ??_C@_1M@DNDLJINH@?$AAz?$AAh?$AA?9?$AAm?$AAo?$AA?$AA@ 0000000180028948     libucrt:lcidtoname_downlevel.obj
 0002:00006958       ??_C@_1M@MBFDNDND@?$AAz?$AAh?$AA?9?$AAs?$AAg?$AA?$AA@ 0000000180028958     libucrt:lcidtoname_downlevel.obj
 0002:00006968       ??_C@_1M@IMEPLEPE@?$AAz?$AAh?$AA?9?$AAt?$AAw?$AA?$AA@ 0000000180028968     libucrt:lcidtoname_downlevel.obj
 0002:00006978       ??_C@_1M@BBGHNHJP@?$AAz?$AAu?$AA?9?$AAz?$AAa?$AA?$AA@ 0000000180028978     libucrt:lcidtoname_downlevel.obj
 0002:00006be0       ??_C@_1BA@BALFACEM@?$AAC?$AAO?$AAN?$AAO?$AAU?$AAT?$AA$?$AA?$AA@ 0000000180028be0     libucrt:initcon.obj
 0002:00006bf0       __log10_256_lead           0000000180028bf0     libucrt:log10_256_lead_tail_table.obj
 0002:00007400       __log10_256_tail           0000000180029400     libucrt:log10_256_lead_tail_table.obj
 0002:00007c10       __log_F_inv_qword          0000000180029c10     libucrt:log_f_inv_qword_table.obj
 0002:00008420       ??_C@_05HGHHAHAP@log10?$AA@ 000000018002a420     libucrt:log_special.obj
 0002:00008440       ??_C@_1BK@DBDEIDLH@?$AAK?$AAE?$AAR?$AAN?$AAE?$AAL?$AA3?$AA2?$AA?4?$AAD?$AAL?$AAL?$AA?$AA@ 000000018002a440     DelayImp:delayhlp.obj
 0002:00008460       ??_C@_0BI@OMNLIJDB@AcquireSRWLockExclusive?$AA@ 000000018002a460     DelayImp:delayhlp.obj
 0002:00008478       ??_C@_0BI@HMIEPCNJ@ReleaseSRWLockExclusive?$AA@ 000000018002a478     DelayImp:delayhlp.obj
 0002:00008490       __pfnDliFailureHook2       000000018002a490     DelayImp:delayhk1.obj
 0002:000084a0       _load_config_used          000000018002a4a0     LIBCMT:loadcfg.obj
 0002:00008538       ??_C@_0BC@BDKFLDHL@unknown?5exception?$AA@ 000000018002a538     ffi.obj
 0002:00008550       ??_C@_07CIFAGBMG@unknown?$AA@ 000000018002a550     ffi.obj
 0002:00008558       ??_C@_0BJ@GLEIFKFN@napi_get_last_error_info?$AA@ 000000018002a558     ffi.obj
 0002:00008578       ??_C@_0L@HGGLHLEF@Error?3?3New?$AA@ 000000018002a578     ffi.obj
 0002:00008588       ??_C@_0CC@POCGFFOK@napi_get_and_clear_last_exceptio@ 000000018002a588     ffi.obj
 0002:000085b0       ??_C@_0BJ@JAPLLJGC@Error?5in?5native?5callback?$AA@ 000000018002a5b0     ffi.obj
 0002:000085d0       ??_C@_0BK@JOKHAPGN@napi_is_exception_pending?$AA@ 000000018002a5d0     ffi.obj
 0002:000085f0       ??_C@_0BI@LICPADOD@napi_create_string_utf8?$AA@ 000000018002a5f0     ffi.obj
 0002:00008608       ??_C@_0BC@MIFMGDHH@napi_create_error?$AA@ 000000018002a608     ffi.obj
 0002:00008620       ??_C@_0BG@LGKKPCKG@napi_create_reference?$AA@ 000000018002a620     ffi.obj
 0002:00008638       ??_C@_0N@JLICLJJF@Error?3?3Error?$AA@ 000000018002a638     ffi.obj
 0002:00008648       ??_C@_07ONPBMBOP@message?$AA@ 000000018002a648     ffi.obj
 0002:00008650       ??_C@_1NC@OINPKOPP@?$AAC?$AA?3?$AA?2?$AAU?$AAs?$AAe?$AAr?$AAs?$AA?2?$AAa?$AAd?$AAm?$AA?2?$AAD?$AAe?$AAs?$AAk?$AAt?$AAo?$AAp?$AA?2?$AAE?$AAl?$AAe?$AAc?$AAt?$AAr?$AAo?$AAn?$AAT?$AAe?$AAs@ 000000018002a650     ffi.obj
 0002:00008728       ??_C@_1CE@GGAIDOJL@?$AAs?$AAt?$AAa?$AAt?$AAu?$AAs?$AA?5?$AA?$DN?$AA?$DN?$AA?5?$AAn?$AAa?$AAp?$AAi?$AA_?$AAo?$AAk?$AA?$AA@ 000000018002a728     ffi.obj
 0002:0000874c       ??_C@_06KHGDIILE@dlopen?$AA@ 000000018002a74c     ffi.obj
 0002:00008758       ??_C@_07HNLAOBEA@dlclose?$AA@ 000000018002a758     ffi.obj
 0002:00008760       ??_C@_05HDGDMABL@dlsym?$AA@ 000000018002a760     ffi.obj
 0002:00008768       ??_C@_07MGPFHKHO@dlerror?$AA@ 000000018002a768     ffi.obj
 0002:00008770       ??_C@_06NDPGNMM@_errno?$AA@ 000000018002a770     ffi.obj
 0002:00008778       ??_C@_07CPCPJPKL@version?$AA@ 000000018002a778     ffi.obj
 0002:00008780       ??_C@_06MEIGBDJG@3?40?411?$AA@ 000000018002a780     ffi.obj
 0002:00008788       ??_C@_0N@NBHPAHKM@ffi_prep_cif?$AA@ 000000018002a788     ffi.obj
 0002:00008798       ??_C@_0BB@PLIKCKHK@ffi_prep_cif_var?$AA@ 000000018002a798     ffi.obj
 0002:000087b0       ??_C@_08BGHAICED@ffi_call?$AA@ 000000018002a7b0     ffi.obj
 0002:000087c0       ??_C@_0P@IDJHAKII@ffi_call_async?$AA@ 000000018002a7c0     ffi.obj
 0002:000087d0       ??_C@_06DCIPPAEM@FFI_OK?$AA@ 000000018002a7d0     ffi.obj
 0002:000087d8       ??_C@_0BA@IJCDEOKH@FFI_BAD_TYPEDEF?$AA@ 000000018002a7d8     ffi.obj
 0002:000087e8       ??_C@_0M@HMIOGDGG@FFI_BAD_ABI?$AA@ 000000018002a7e8     ffi.obj
 0002:000087f8       ??_C@_0BA@ELLEFFKB@FFI_DEFAULT_ABI?$AA@ 000000018002a7f8     ffi.obj
 0002:00008808       ??_C@_0O@HECBJFOB@FFI_FIRST_ABI?$AA@ 000000018002a808     ffi.obj
 0002:00008818       ??_C@_0N@EEFKFOLP@FFI_LAST_ABI?$AA@ 000000018002a818     ffi.obj
 0002:00008828       ??_C@_09GFHJJNNH@FFI_WIN64?$AA@ 000000018002a828     ffi.obj
 0002:00008838       ??_C@_09JHNCKAH@RTLD_LAZY?$AA@ 000000018002a838     ffi.obj
 0002:00008848       ??_C@_08MMOIFOJA@RTLD_NOW?$AA@ 000000018002a848     ffi.obj
 0002:00008858       ??_C@_0L@ECLFLMDM@RTLD_LOCAL?$AA@ 000000018002a858     ffi.obj
 0002:00008868       ??_C@_0M@CIOPDONK@RTLD_GLOBAL?$AA@ 000000018002a868     ffi.obj
 0002:00008878       ??_C@_09EKPFEEBD@RTLD_NEXT?$AA@ 000000018002a878     ffi.obj
 0002:00008888       ??_C@_0N@BMDKOFEE@RTLD_DEFAULT?$AA@ 000000018002a888     ffi.obj
 0002:00008898       ??_C@_0N@LDLPBE@FFI_ARG_SIZE?$AA@ 000000018002a898     ffi.obj
 0002:000088a8       ??_C@_0O@EJOMENGB@FFI_SARG_SIZE?$AA@ 000000018002a8a8     ffi.obj
 0002:000088b8       ??_C@_0O@GJJCKACF@FFI_TYPE_SIZE?$AA@ 000000018002a8b8     ffi.obj
 0002:000088c8       ??_C@_0N@KJODLBFL@FFI_CIF_SIZE?$AA@ 000000018002a8c8     ffi.obj
 0002:000088d8       ??_C@_04GKJNKENE@void?$AA@ 000000018002a8d8     ffi.obj
 0002:000088e0       ??_C@_05BOGOCLFF@uint8?$AA@ 000000018002a8e0     ffi.obj
 0002:000088e8       ??_C@_04DCGBOBJJ@int8?$AA@ 000000018002a8e8     ffi.obj
 0002:000088f0       ??_C@_06JNNCGBKK@uint16?$AA@ 000000018002a8f0     ffi.obj
 0002:000088f8       ??_C@_05PCMOAPL@int16?$AA@ 000000018002a8f8     ffi.obj
 0002:00008900       ??_C@_06PKDKHAMA@uint32?$AA@ 000000018002a900     ffi.obj
 0002:00008908       ??_C@_05GIMEPBJB@int32?$AA@ 000000018002a908     ffi.obj
 0002:00008910       ??_C@_06KKKLBFKN@uint64?$AA@ 000000018002a910     ffi.obj
 0002:00008918       ??_C@_05DIFFJEPM@int64?$AA@ 000000018002a918     ffi.obj
 0002:00008920       ??_C@_05GBMOKKDM@uchar?$AA@ 000000018002a920     ffi.obj
 0002:00008928       ??_C@_04ENMBGAPA@char?$AA@ 000000018002a928     ffi.obj
 0002:00008930       ??_C@_06IHFEHLHH@ushort?$AA@ 000000018002a930     ffi.obj
 0002:00008938       ??_C@_05BFKKPKCG@short?$AA@ 000000018002a938     ffi.obj
 0002:00008940       ??_C@_04EHNLIFAM@uint?$AA@ 000000018002a940     ffi.obj
 0002:00008948       ??_C@_03JBIPMCLC@int?$AA@  000000018002a948     ffi.obj
 0002:0000894c       ??_C@_05KNFBNCOH@float?$AA@ 000000018002a94c     ffi.obj
 0002:00008954       ??_C@_06BNJCAIGJ@double?$AA@ 000000018002a954     ffi.obj
 0002:00008960       ??_C@_07PFMCDPMA@pointer?$AA@ 000000018002a960     ffi.obj
 0002:00008968       ??_C@_09CGIDHHPL@ulonglong?$AA@ 000000018002a968     ffi.obj
 0002:00008978       ??_C@_08DDGAEFPP@longlong?$AA@ 000000018002a978     ffi.obj
 0002:00008988       ??_C@_09EPMAHDDO@FFI_TYPES?$AA@ 000000018002a988     ffi.obj
 0002:00008998       ??_C@_0CG@IIJPODDI@prepCif?$CI?$CJ?3?5Buffer?5required?5as?5ci@ 000000018002a998     ffi.obj
 0002:000089c0       ??_C@_0CI@LMNBMCFJ@prepCif?$CI?$CJ?3?5Buffer?5required?5as?5rt@ 000000018002a9c0     ffi.obj
 0002:000089e8       ??_C@_0CJ@LIGLPFHC@prepCif?$CI?$CJ?3?5Buffer?5required?5as?5at@ 000000018002a9e8     ffi.obj
 0002:00008a18       ??_C@_0CJ@HPJKGIOI@prepCifVar?$CI?$CJ?3?5Buffer?5required?5as@ 000000018002aa18     ffi.obj
 0002:00008a48       ??_C@_0CL@EHIDKKOL@prepCifVar?$CI?$CJ?3?5Buffer?5required?5as@ 000000018002aa48     ffi.obj
 0002:00008a78       ??_C@_0CM@JNPPHFLK@prepCifVar?$CI?$CJ?3?5Buffer?5required?5as@ 000000018002aa78     ffi.obj
 0002:00008aa8       ??_C@_0CI@NIKHANPG@ffi_call?$CI?$CJ?5requires?54?5Buffer?5arg@ 000000018002aaa8     ffi.obj
 0002:00008ad0       ??_C@_0CO@NNPLMJGO@ffi_call_async?$CI?$CJ?5requires?54?5Buff@ 000000018002aad0     ffi.obj
 0002:00008b00       ??_C@_0CO@FDOGOMLP@ffi_call_async?$CI?$CJ?5requires?5a?5func@ 000000018002ab00     ffi.obj
 0002:00008b30       ??_C@_0BA@BOIHMNDD@StaticFunctions?$AA@ 000000018002ab30     ffi.obj
 0002:00008b40       ??_C@_08HNHIOOFI@Callback?$AA@ 000000018002ab40     ffi.obj
 0002:00008b50       ??_C@_0O@EMAMNEKD@?4?4?2src?2ffi?4cc?$AA@ 000000018002ab50     ffi.obj
 0002:00008b60       ??_C@_0N@JPIAKLE@ffi_bindings?$AA@ 000000018002ab60     ffi.obj
 0002:00008b70       ??_C@_0BA@JFNIOLAK@string?5too?5long?$AA@ 000000018002ab70     ffi.obj
 0002:00008b80       ??_C@_0BI@CFPLBAOH@invalid?5string?5position?$AA@ 000000018002ab80     ffi.obj
 0002:00008b98       ??_C@_0BI@NHGHJMKC@Reference?$DMT?$DO?3?3Reference?$AA@ 000000018002ab98     ffi.obj
 0002:00008bb0       ??_C@_0BD@OLBABOEK@vector?$DMT?$DO?5too?5long?$AA@ 000000018002abb0     ffi.obj
 0002:00008bc8       ??_7exception@stdext@@6B@  000000018002abc8     ffi.obj
 0002:00008be0       ??_7TypeError@Napi@@6B@    000000018002abe0     ffi.obj
 0002:00008be0       ??_7Error@Napi@@6B@        000000018002abe0     ffi.obj
 0002:00008bf8       ??_C@_0DA@KGNPNPE@ffi?5fatal?3?5callback?5has?5been?5gar@ 000000018002abf8     callback_info.obj
 0002:00008c28       ??_C@_0DA@DIHLPNBB@Signature?3?5Buffer?0?5int?0?5int?0?5Fun@ 000000018002ac28     callback_info.obj
 0002:00008c58       ??_C@_0CD@PPEAHEKO@ffi_closure_alloc?$CI?$CJ?5Returned?5Err@ 000000018002ac58     callback_info.obj
 0002:00008c80       ??_C@_0CC@JEGCEPCG@ffi_prep_closure?$CI?$CJ?5Returned?5Erro@ 000000018002ac80     callback_info.obj
 0002:00008ca4       ??_C@_06DJIHEMFI@status?$AA@ 000000018002aca4     callback_info.obj
 0002:00008cb0       ??_C@_0BC@KBDMBKEH@deque?$DMT?$DO?5too?5long?$AA@ 000000018002acb0     callback_info.obj
 0002:00008cc8       ??_C@_0BB@MOGOBHAF@list?$DMT?$DO?5too?5long?$AA@ 000000018002acc8     callback_info.obj
 0002:00008ce8       __pfnDliNotifyHook2        000000018002ace8     win_delay_load_hook.obj
 0002:00008cf0       ffi_type_sint16            000000018002acf0     libffi:types.obj
 0002:00008d08       ffi_type_void              000000018002ad08     libffi:types.obj
 0002:00008d20       ffi_type_sint32            000000018002ad20     libffi:types.obj
 0002:00008d38       ffi_type_uint16            000000018002ad38     libffi:types.obj
 0002:00008d50       ffi_type_pointer           000000018002ad50     libffi:types.obj
 0002:00008d68       ffi_type_uint64            000000018002ad68     libffi:types.obj
 0002:00008d80       ffi_type_uint8             000000018002ad80     libffi:types.obj
 0002:00008d98       ffi_type_sint8             000000018002ad98     libffi:types.obj
 0002:00008db0       ffi_type_sint64            000000018002adb0     libffi:types.obj
 0002:00008dc8       ffi_type_uint32            000000018002adc8     libffi:types.obj
 0002:00008de0       ffi_type_float             000000018002ade0     libffi:types.obj
 0002:00008df8       ffi_type_double            000000018002adf8     libffi:types.obj
 0002:00008e10       ??_C@_0BA@OIIBEHIA@Win32?5error?5?$CFlu?$AA@ 000000018002ae10     win32-dlfcn.obj
 0002:00008e20       ??_C@_08JDDNMFDB@node?4exe?$AA@ 000000018002ae20     win_delay_load_hook.obj
 0002:000090d8       __real@3f800000            000000018002b0d8     callback_info.obj
 0002:000090e0       __real@3ff0000000000000    000000018002b0e0     ffi.obj
 0002:000090e8       __real@4000000000000000    000000018002b0e8     ffi.obj
 0002:000090f0       __real@4020000000000000    000000018002b0f0     ffi.obj
 0002:000090f8       __real@4038000000000000    000000018002b0f8     ffi.obj
 0002:00009100       __real@4040000000000000    000000018002b100     ffi.obj
 0002:00009108       __real@5f800000            000000018002b108     callback_info.obj
 0002:000092c0       ??_R4exception@std@@6B@    000000018002b2c0     libcpmt:xthrow.obj
 0002:000092e8       ??_R3exception@std@@8      000000018002b2e8     libcpmt:xthrow.obj
 0002:00009300       ??_R2exception@std@@8      000000018002b300     libcpmt:xthrow.obj
 0002:00009310       ??_R1A@?0A@EA@exception@std@@8 000000018002b310     libcpmt:xthrow.obj
 0002:00009338       ??_R4bad_alloc@std@@6B@    000000018002b338     libcpmt:xthrow.obj
 0002:00009360       ??_R3bad_alloc@std@@8      000000018002b360     libcpmt:xthrow.obj
 0002:00009378       ??_R2bad_alloc@std@@8      000000018002b378     libcpmt:xthrow.obj
 0002:00009390       ??_R1A@?0A@EA@bad_alloc@std@@8 000000018002b390     libcpmt:xthrow.obj
 0002:000093b8       ??_R4logic_error@std@@6B@  000000018002b3b8     libcpmt:xthrow.obj
 0002:000093e0       ??_R3logic_error@std@@8    000000018002b3e0     libcpmt:xthrow.obj
 0002:000093f8       ??_R2logic_error@std@@8    000000018002b3f8     libcpmt:xthrow.obj
 0002:00009410       ??_R1A@?0A@EA@logic_error@std@@8 000000018002b410     libcpmt:xthrow.obj
 0002:00009438       ??_R4length_error@std@@6B@ 000000018002b438     libcpmt:xthrow.obj
 0002:00009460       ??_R3length_error@std@@8   000000018002b460     libcpmt:xthrow.obj
 0002:00009478       ??_R2length_error@std@@8   000000018002b478     libcpmt:xthrow.obj
 0002:00009498       ??_R1A@?0A@EA@length_error@std@@8 000000018002b498     libcpmt:xthrow.obj
 0002:000094c0       ??_R4out_of_range@std@@6B@ 000000018002b4c0     libcpmt:xthrow.obj
 0002:000094e8       ??_R3out_of_range@std@@8   000000018002b4e8     libcpmt:xthrow.obj
 0002:00009500       ??_R2out_of_range@std@@8   000000018002b500     libcpmt:xthrow.obj
 0002:00009520       ??_R1A@?0A@EA@out_of_range@std@@8 000000018002b520     libcpmt:xthrow.obj
 0002:00009548       ??_R4type_info@@6B@        000000018002b548     LIBCMT:std_type_info_static.obj
 0002:00009570       ??_R3type_info@@8          000000018002b570     LIBCMT:std_type_info_static.obj
 0002:00009588       ??_R2type_info@@8          000000018002b588     LIBCMT:std_type_info_static.obj
 0002:00009598       ??_R1A@?0A@EA@type_info@@8 000000018002b598     LIBCMT:std_type_info_static.obj
 0002:000095c0       ??_R4bad_array_new_length@std@@6B@ 000000018002b5c0     LIBCMT:throw_bad_alloc.obj
 0002:000095e8       ??_R3bad_array_new_length@std@@8 000000018002b5e8     LIBCMT:throw_bad_alloc.obj
 0002:00009600       ??_R2bad_array_new_length@std@@8 000000018002b600     LIBCMT:throw_bad_alloc.obj
 0002:00009620       ??_R1A@?0A@EA@bad_array_new_length@std@@8 000000018002b620     LIBCMT:throw_bad_alloc.obj
 0002:00009648       ??_R4bad_exception@std@@6B@ 000000018002b648     libvcruntime:frame.obj
 0002:00009670       ??_R3bad_exception@std@@8  000000018002b670     libvcruntime:frame.obj
 0002:00009688       ??_R2bad_exception@std@@8  000000018002b688     libvcruntime:frame.obj
 0002:000096a0       ??_R1A@?0A@EA@bad_exception@std@@8 000000018002b6a0     libvcruntime:frame.obj
 0002:00009ad8       __rtc_iaa                  000000018002bad8     LIBCMT:_initsect_.obj
 0002:00009ae0       __rtc_izz                  000000018002bae0     LIBCMT:_initsect_.obj
 0002:00009ae8       __rtc_taa                  000000018002bae8     LIBCMT:_initsect_.obj
 0002:00009af0       __rtc_tzz                  000000018002baf0     LIBCMT:_initsect_.obj
 0002:0000c290       _TI2?AVbad_alloc@std@@     000000018002e290     libcpmt:xthrow.obj
 0002:0000c2b0       _CTA2?AVbad_alloc@std@@    000000018002e2b0     libcpmt:xthrow.obj
 0002:0000c2c8       _CT??_R0?AVbad_alloc@std@@@8??0bad_alloc@std@@QEAA@AEBV01@@Z24 000000018002e2c8     libcpmt:xthrow.obj
 0002:0000c2f0       _CT??_R0?AVexception@std@@@8??0exception@std@@QEAA@AEBV01@@Z24 000000018002e2f0     libcpmt:xthrow.obj
 0002:0000c318       _CT??_R0?AVlogic_error@std@@@8??0logic_error@std@@QEAA@AEBV01@@Z24 000000018002e318     libcpmt:xthrow.obj
 0002:0000c340       _TI3?AVlength_error@std@@  000000018002e340     libcpmt:xthrow.obj
 0002:0000c360       _CTA3?AVlength_error@std@@ 000000018002e360     libcpmt:xthrow.obj
 0002:0000c380       _CT??_R0?AVlength_error@std@@@8??0length_error@std@@QEAA@AEBV01@@Z24 000000018002e380     libcpmt:xthrow.obj
 0002:0000c3a8       _TI3?AVout_of_range@std@@  000000018002e3a8     libcpmt:xthrow.obj
 0002:0000c3c8       _CTA3?AVout_of_range@std@@ 000000018002e3c8     libcpmt:xthrow.obj
 0002:0000c3e8       _CT??_R0?AVout_of_range@std@@@8??0out_of_range@std@@QEAA@AEBV01@@Z24 000000018002e3e8     libcpmt:xthrow.obj
 0002:0000c410       _TI3?AVbad_array_new_length@std@@ 000000018002e410     LIBCMT:throw_bad_alloc.obj
 0002:0000c430       _CTA3?AVbad_array_new_length@std@@ 000000018002e430     LIBCMT:throw_bad_alloc.obj
 0002:0000c450       _CT??_R0?AVbad_array_new_length@std@@@8??0bad_array_new_length@std@@QEAA@AEBV01@@Z24 000000018002e450     LIBCMT:throw_bad_alloc.obj
 0002:0000c478       _TI2?AVbad_exception@std@@ 000000018002e478     libvcruntime:frame.obj
 0002:0000c498       _CTA2?AVbad_exception@std@@ 000000018002e498     libvcruntime:frame.obj
 0002:0000c4b0       _CT??_R0?AVbad_exception@std@@@8??0bad_exception@std@@QEAA@AEBV01@@Z24 000000018002e4b0     libvcruntime:frame.obj
 0002:0000c4d8       _TI4?AVError@Napi@@        000000018002e4d8     ffi.obj
 0002:0000c4f8       _CTA5?AVTypeError@Napi@@   000000018002e4f8     ffi.obj
 0002:0000c528       _CT??_R0?AVTypeError@Napi@@@872 000000018002e528     ffi.obj
 0002:0000c550       _CT??_R0?AVObjectReference@Napi@@@82416 000000018002e550     ffi.obj
 0002:0000c578       _CT??_R0?AVError@Napi@@@872 000000018002e578     ffi.obj
 0002:0000c5a0       _TI5?AVTypeError@Napi@@    000000018002e5a0     ffi.obj
 0002:0000c5c0       _CT??_R0?AV?$Reference@VObject@Napi@@@Napi@@@82416 000000018002e5c0     ffi.obj
 0002:0000c5e8       _CTA4?AVError@Napi@@       000000018002e5e8     ffi.obj
 0002:0000c610       _CT??_R0?AVexception@stdext@@@816 000000018002e610     ffi.obj
 0002:0000c634       __DELAY_IMPORT_DESCRIPTOR_node_exe 000000018002e634     node:node.exe
 0002:0000c654       __NULL_DELAY_IMPORT_DESCRIPTOR 000000018002e654     node:node.exe
 0002:0000c840       \177node_NULL_THUNK_DATA_DLN 000000018002e840     node:node.exe
 0002:0000cd40       \177node_NULL_THUNK_DATA_DLB 000000018002ed40     node:node.exe
 0002:0000cf6c       __IMPORT_DESCRIPTOR_KERNEL32 000000018002ef6c     kernel32:KERNEL32.dll
 0002:0000cf80       __NULL_IMPORT_DESCRIPTOR   000000018002ef80     kernel32:KERNEL32.dll
 0003:00000000       __scrt_native_dllmain_reason 0000000180030000     LIBCMT:utility.obj
 0003:00000010       __security_cookie          0000000180030010     LIBCMT:gs_cookie.obj
 0003:00000018       __security_cookie_complement 0000000180030018     LIBCMT:gs_cookie.obj
 0003:00000020       __isa_available            0000000180030020     LIBCMT:_cpu_disp_.obj
 0003:00000024       __isa_enabled              0000000180030024     LIBCMT:_cpu_disp_.obj
 0003:00000028       __memcpy_nt_iters          0000000180030028     LIBCMT:_cpu_disp_.obj
 0003:00000048       __abort_behavior           0000000180030048     libucrt:abort.obj
 0003:00000050       _iob                       0000000180030050     libucrt:_file.obj
 0003:00000160       __acrt_initial_locale_data 0000000180030160     libucrt:nlsdata.obj
 0003:000002b8       __acrt_initial_locale_pointers 00000001800302b8     libucrt:nlsdata.obj
 0003:000002c8       __acrt_wide_c_locale_string 00000001800302c8     libucrt:nlsdata.obj
 0003:000002d0       __badioinfo                00000001800302d0     libucrt:ioinit.obj
 0003:00000310       __acrt_initial_multibyte_data 0000000180030310     libucrt:mbctype.obj
 0003:00000538       __acrt_current_multibyte_data 0000000180030538     libucrt:mbctype.obj
 0003:00000640       _mbctype                   0000000180030640     libucrt:mbctype.obj
 0003:00000750       _mbcasemap                 0000000180030750     libucrt:mbctype.obj
 0003:00000850       _pwctype                   0000000180030850     libucrt:ctype.obj
 0003:00000858       __globallocalestatus       0000000180030858     libucrt:glstatus.obj
 0003:00000860       __acrt_lconv_c             0000000180030860     libucrt:localeconv.obj
 0003:000008f8       __acrt_lconv_static_decimal 00000001800308f8     libucrt:localeconv.obj
 0003:000008fc       __acrt_lconv_static_W_decimal 00000001800308fc     libucrt:localeconv.obj
 0003:00000900       __dcrt_lowio_console_output_handle 0000000180030900     libucrt:initcon.obj
 0003:00000914       _fltused                   0000000180030914     LIBCMT:fltused.obj
 0003:00000968       ??_R0?AVbad_alloc@std@@@8  0000000180030968     libcpmt:xthrow.obj
 0003:00000990       ??_R0?AVexception@std@@@8  0000000180030990     libcpmt:xthrow.obj
 0003:000009b8       ??_R0?AVlogic_error@std@@@8 00000001800309b8     libcpmt:xthrow.obj
 0003:000009e0       ??_R0?AVlength_error@std@@@8 00000001800309e0     libcpmt:xthrow.obj
 0003:00000a08       ??_R0?AVout_of_range@std@@@8 0000000180030a08     libcpmt:xthrow.obj
 0003:00000a30       ??_R0?AVtype_info@@@8      0000000180030a30     LIBCMT:std_type_info_static.obj
 0003:00000a50       ??_R0?AVbad_array_new_length@std@@@8 0000000180030a50     LIBCMT:throw_bad_alloc.obj
 0003:00000a80       ??_R0?AVbad_exception@std@@@8 0000000180030a80     libvcruntime:frame.obj
 0003:00000aa8       ??_R0?AVexception@stdext@@@8 0000000180030aa8     ffi.obj
 0003:00000ad0       ??_R0?AVObjectReference@Napi@@@8 0000000180030ad0     ffi.obj
 0003:00000b00       ??_R0?AVTypeError@Napi@@@8 0000000180030b00     ffi.obj
 0003:00000b28       ??_R0?AV?$Reference@VObject@Napi@@@Napi@@@8 0000000180030b28     ffi.obj
 0003:00000b60       ??_R0?AVError@Napi@@@8     0000000180030b60     ffi.obj
 0003:00000b88       __imp_napi_create_function 0000000180030b88     node:node.exe
 0003:00000b90       __imp_napi_open_handle_scope 0000000180030b90     node:node.exe
 0003:00000b98       __imp_napi_coerce_to_number 0000000180030b98     node:node.exe
 0003:00000ba0       __imp_napi_get_uv_event_loop 0000000180030ba0     node:node.exe
 0003:00000ba8       __imp_napi_get_last_error_info 0000000180030ba8     node:node.exe
 0003:00000bb0       __imp_napi_create_error    0000000180030bb0     node:node.exe
 0003:00000bb8       __imp_uv_queue_work        0000000180030bb8     node:node.exe
 0003:00000bc0       __imp_napi_is_buffer       0000000180030bc0     node:node.exe
 0003:00000bc8       __imp_napi_get_null        0000000180030bc8     node:node.exe
 0003:00000bd0       __imp_napi_delete_reference 0000000180030bd0     node:node.exe
 0003:00000bd8       __imp_napi_fatal_error     0000000180030bd8     node:node.exe
 0003:00000be0       __imp_napi_is_exception_pending 0000000180030be0     node:node.exe
 0003:00000be8       __imp_napi_create_symbol   0000000180030be8     node:node.exe
 0003:00000bf0       __imp_napi_get_value_string_utf8 0000000180030bf0     node:node.exe
 0003:00000bf8       __imp_napi_close_escapable_handle_scope 0000000180030bf8     node:node.exe
 0003:00000c00       __imp_napi_escape_handle   0000000180030c00     node:node.exe
 0003:00000c08       __imp_napi_get_buffer_info 0000000180030c08     node:node.exe
 0003:00000c10       __imp_napi_create_type_error 0000000180030c10     node:node.exe
 0003:00000c18       __imp_napi_create_external 0000000180030c18     node:node.exe
 0003:00000c20       __imp_napi_create_string_utf8 0000000180030c20     node:node.exe
 0003:00000c28       __imp_napi_module_register 0000000180030c28     node:node.exe
 0003:00000c30       __imp_napi_set_named_property 0000000180030c30     node:node.exe
 0003:00000c38       __imp_napi_create_external_buffer 0000000180030c38     node:node.exe
 0003:00000c40       __imp_napi_get_named_property 0000000180030c40     node:node.exe
 0003:00000c48       __imp_napi_make_callback   0000000180030c48     node:node.exe
 0003:00000c50       __imp_napi_define_properties 0000000180030c50     node:node.exe
 0003:00000c58       __imp_napi_typeof          0000000180030c58     node:node.exe
 0003:00000c60       __imp_napi_throw           0000000180030c60     node:node.exe
 0003:00000c68       __imp_napi_get_value_uint32 0000000180030c68     node:node.exe
 0003:00000c70       __imp_napi_get_value_int32 0000000180030c70     node:node.exe
 0003:00000c78       __imp_napi_get_version     0000000180030c78     node:node.exe
 0003:00000c80       __imp_napi_get_and_clear_last_exception 0000000180030c80     node:node.exe
 0003:00000c88       __imp_napi_create_object   0000000180030c88     node:node.exe
 0003:00000c90       __imp_napi_get_undefined   0000000180030c90     node:node.exe
 0003:00000c98       __imp_napi_get_typedarray_info 0000000180030c98     node:node.exe
 0003:00000ca0       __imp_napi_get_cb_info     0000000180030ca0     node:node.exe
 0003:00000ca8       __imp_napi_open_escapable_handle_scope 0000000180030ca8     node:node.exe
 0003:00000cb0       __imp_napi_create_reference 0000000180030cb0     node:node.exe
 0003:00000cb8       __imp_napi_close_handle_scope 0000000180030cb8     node:node.exe
 0003:00000cc0       __imp_uv_default_loop      0000000180030cc0     node:node.exe
 0003:00000cc8       __imp_napi_create_double   0000000180030cc8     node:node.exe
 0003:00000cd0       __imp_napi_get_reference_value 0000000180030cd0     node:node.exe
 0003:00000cd8       __imp_uv_unref             0000000180030cd8     node:node.exe
 0003:00000ce0       __imp_uv_mutex_unlock      0000000180030ce0     node:node.exe
 0003:00000ce8       __imp_uv_once              0000000180030ce8     node:node.exe
 0003:00000cf0       __imp_napi_call_function   0000000180030cf0     node:node.exe
 0003:00000cf8       __imp_uv_mutex_lock        0000000180030cf8     node:node.exe
 0003:00000d00       __imp_napi_coerce_to_string 0000000180030d00     node:node.exe
 0003:00000d08       __imp_uv_ref               0000000180030d08     node:node.exe
 0003:00000d10       __imp_uv_mutex_init        0000000180030d10     node:node.exe
 0003:00000d18       __imp_uv_async_send        0000000180030d18     node:node.exe
 0003:00000d20       __imp_uv_async_init        0000000180030d20     node:node.exe
 0003:00000d28       __imp_uv_cond_signal       0000000180030d28     node:node.exe
 0003:00000d30       __imp_uv_cond_destroy      0000000180030d30     node:node.exe
 0003:00000d38       __imp_uv_cond_init         0000000180030d38     node:node.exe
 0003:00000d40       __imp_uv_cond_wait         0000000180030d40     node:node.exe
 0003:00000d48       __imp_uv_mutex_destroy     0000000180030d48     node:node.exe
 0003:00000d50       \177node_NULL_THUNK_DATA_DLA 0000000180030d50     node:node.exe
 0003:00000d60       __hmod__node_exe           0000000180030d60     node:node.exe
 0003:00000d68       __scrt_current_native_startup_state 0000000180030d68     LIBCMT:utility.obj
 0003:00000d70       __scrt_native_startup_lock 0000000180030d70     LIBCMT:utility.obj
 0003:00001320       __favor                    0000000180031320     LIBCMT:_cpu_disp_.obj
 0003:00001324       __scrt_debugger_hook_flag  0000000180031324     LIBCMT:utility_desktop.obj
 0003:00001330       ?__type_info_root_node@@3U__type_info_node@@A 0000000180031330     LIBCMT:tncleanup.obj
 0003:00001340       ?_OptionsStorage@?1??__local_stdio_scanf_options@@9@4_KA 0000000180031340     LIBCMT:default_local_stdio_options.obj
 0003:00001348       ?g_OutOfMemoryExceptionCallback@@3P6APEAXXZEA 0000000180031348     libvcruntime:frame.obj
 0003:00001468       __pPurecall                0000000180031468     libvcruntime:purevirt_data.obj
 0003:00001470       ?pArgList@UnDecorator@@0PEAVReplicator@@EA 0000000180031470     libvcruntime:undname.obj
 0003:00001478       ?pZNameList@UnDecorator@@0PEAVReplicator@@EA 0000000180031478     libvcruntime:undname.obj
 0003:00001480       ?pTemplateArgList@UnDecorator@@0PEAVReplicator@@EA 0000000180031480     libvcruntime:undname.obj
 0003:00001488       ?gName@UnDecorator@@0PEBDEB 0000000180031488     libvcruntime:undname.obj
 0003:00001490       ?name@UnDecorator@@0PEBDEB 0000000180031490     libvcruntime:undname.obj
 0003:00001498       ?outputString@UnDecorator@@0PEADEA 0000000180031498     libvcruntime:undname.obj
 0003:000014a0       ?maxStringLength@UnDecorator@@0HA 00000001800314a0     libvcruntime:undname.obj
 0003:000014a4       ?disableFlags@UnDecorator@@0KA 00000001800314a4     libvcruntime:undname.obj
 0003:000014a8       ?fExplicitTemplateParams@UnDecorator@@0_NA 00000001800314a8     libvcruntime:undname.obj
 0003:000014a9       ?fGetTemplateArgumentList@UnDecorator@@0_NA 00000001800314a9     libvcruntime:undname.obj
 0003:000014b0       ?m_pGetParameter@UnDecorator@@0P6APEADJ@ZEA 00000001800314b0     libvcruntime:undname.obj
 0003:00001618       _environ_table             0000000180031618     libucrt:environment_initialization.obj
 0003:00001620       _wenviron_table            0000000180031620     libucrt:environment_initialization.obj
 0003:00001628       __dcrt_initial_wide_environment 0000000180031628     libucrt:environment_initialization.obj
 0003:00001630       __dcrt_initial_narrow_environment 0000000180031630     libucrt:environment_initialization.obj
 0003:00001638       __acrt_atexit_table        0000000180031638     libucrt:onexit.obj
 0003:00001650       __acrt_at_quick_exit_table 0000000180031650     libucrt:onexit.obj
 0003:00001670       _nstream                   0000000180031670     libucrt:_file.obj
 0003:00001678       __piob                     0000000180031678     libucrt:_file.obj
 0003:00001680       _cflush                    0000000180031680     libucrt:_file.obj
 0003:000016b0       __acrt_stdout_buffer       00000001800316b0     libucrt:_sftbuf.obj
 0003:000016b8       __acrt_stderr_buffer       00000001800316b8     libucrt:_sftbuf.obj
 0003:000016c0       __acrt_locale_changed_data 00000001800316c0     libucrt:wsetlocale.obj
 0003:000016c8       __acrt_current_locale_data 00000001800316c8     libucrt:nlsdata.obj
 0003:000016d0       __pioinfo                  00000001800316d0     libucrt:ioinit.obj
 0003:00001ad0       _nhandle                   0000000180031ad0     libucrt:ioinit.obj
 0003:00001e94       __mbcodepage               0000000180031e94     libucrt:mbctype.obj
 0003:00001e98       __ismbcodepage             0000000180031e98     libucrt:mbctype.obj
 0003:00001ea0       __mbulinfo                 0000000180031ea0     libucrt:mbctype.obj
 0003:00001eb0       __mblocalename             0000000180031eb0     libucrt:mbctype.obj
 0003:00001ebc       __argc                     0000000180031ebc     libucrt:argv_data.obj
 0003:00001ec0       __argv                     0000000180031ec0     libucrt:argv_data.obj
 0003:00001ec8       __wargv                    0000000180031ec8     libucrt:argv_data.obj
 0003:00001ed0       _acmdln                    0000000180031ed0     libucrt:argv_data.obj
 0003:00001ed8       _wcmdln                    0000000180031ed8     libucrt:argv_data.obj
 0003:00001ee0       _pgmptr                    0000000180031ee0     libucrt:argv_data.obj
 0003:00001ee8       __acrt_heap                0000000180031ee8     libucrt:heap_handle.obj
 0003:00001efc       __acrt_lconv_static_null   0000000180031efc     libucrt:localeconv.obj
 0003:00001f00       __acrt_lconv_static_W_null 0000000180031f00     libucrt:localeconv.obj
 0003:00001f04       __fma3_is_available        0000000180031f04     libucrt:fma3_available.obj
 0003:00001f08       __use_fma3_lib             0000000180031f08     libucrt:fma3_available.obj
 0003:00001f10       ?DloadKernel32@@3PEAUHINSTANCE__@@EA 0000000180031f10     DelayImp:delayhlp.obj
 0003:00001f18       ?DloadAcquireSRWLockExclusive@@3P6AXPEA_K@ZEA 0000000180031f18     DelayImp:delayhlp.obj
 0003:00001f20       ?DloadReleaseSRWLockExclusive@@3P6AXPEA_K@ZEA 0000000180031f20     DelayImp:delayhlp.obj
 0003:00001f28       ?DloadSrwLock@@3_KA        0000000180031f28     DelayImp:delayhlp.obj
 0003:00001f30       ?DloadSectionLockCount@@3KA 0000000180031f30     DelayImp:delayhlp.obj
 0003:00001f34       ?DloadSectionOldProtection@@3KA 0000000180031f34     DelayImp:delayhlp.obj
 0003:00001f38       ?DloadSectionCommitPermanent@@3KA 0000000180031f38     DelayImp:delayhlp.obj
 0003:00001f50       ?per_environment_mutex@CallbackInfo@FFI@@0U_RTL_CRITICAL_SECTION@@A 0000000180031f50     callback_info.obj
 0003:00001f80       ?per_environment@CallbackInfo@FFI@@0V?$unordered_map@PEAUnapi_env__@@V?$unique_ptr@UPerEnvironmentData@FFI@@U?$default_delete@UPerEnvironmentData@FFI@@@std@@@std@@U?$hash@PEAUnapi_env__@@@3@U?$equal_to@PEAUnapi_env__@@@3@V?$allocator@U?$pair@QEAUnapi_env__@@V?$unique_ptr@UPerEnvironmentData@FFI@@U?$default_delete@UPerEnvironmentData@FFI@@@std@@@std@@@std@@@3@@std@@A 0000000180031f80     callback_info.obj
 0003:00002378       ?_OptionsStorage@?1??__local_stdio_printf_options@@9@4_KA 0000000180032378     win32-dlfcn.obj
 0003:000023c0       __dyn_tls_init_callback    00000001800323c0     <common>
 0003:000023c8       __scrt_ucrt_dll_is_in_use  00000001800323c8     <common>

 entry point at        0001:0000bd7c

 Static symbols

 0000:fffc8000       .debug$S                   0000000180000000     node:node.exe
 0000:fffc8000       .debug$S                   0000000180000000     kernel32:KERNEL32.dll
 0000:fffc8000       .debug$S                   0000000180000000     kernel32:KERNEL32.dll
 0000:fffc8000       .debug$S                   0000000180000000     kernel32:KERNEL32.dll
 0000:fffc8000       .debug$S                   0000000180000000     kernel32:KERNEL32.dll
 0000:fffc8000       .debug$S                   0000000180000000     kernel32:KERNEL32.dll
 0000:fffc8000       .debug$S                   0000000180000000     kernel32:KERNEL32.dll
 0000:fffc8000       .debug$S                   0000000180000000     kernel32:KERNEL32.dll
 0000:fffc8000       .debug$S                   0000000180000000     kernel32:KERNEL32.dll
 0000:fffc8000       .debug$S                   0000000180000000     kernel32:KERNEL32.dll
 0000:fffc8000       .debug$S                   0000000180000000     kernel32:KERNEL32.dll
 0000:fffc8000       .debug$S                   0000000180000000     kernel32:KERNEL32.dll
 0000:fffc8000       .debug$S                   0000000180000000     kernel32:KERNEL32.dll
 0000:fffc8000       .debug$S                   0000000180000000     kernel32:KERNEL32.dll
 0000:fffc8000       .debug$S                   0000000180000000     kernel32:KERNEL32.dll
 0000:fffc8000       .debug$S                   0000000180000000     kernel32:KERNEL32.dll
 0000:fffc8000       .debug$S                   0000000180000000     kernel32:KERNEL32.dll
 0000:fffc8000       .debug$S                   0000000180000000     kernel32:KERNEL32.dll
 0000:fffc8000       .debug$S                   0000000180000000     kernel32:KERNEL32.dll
 0000:fffc8000       .debug$S                   0000000180000000     kernel32:KERNEL32.dll
 0000:fffc8000       .debug$S                   0000000180000000     kernel32:KERNEL32.dll
 0000:fffc8000       .debug$S                   0000000180000000     kernel32:KERNEL32.dll
 0000:fffc8000       .debug$S                   0000000180000000     kernel32:KERNEL32.dll
 0000:fffc8000       .debug$S                   0000000180000000     kernel32:KERNEL32.dll
 0000:fffc8000       .debug$S                   0000000180000000     kernel32:KERNEL32.dll
 0000:fffc8000       .debug$S                   0000000180000000     kernel32:KERNEL32.dll
 0000:fffc8000       .debug$S                   0000000180000000     kernel32:KERNEL32.dll
 0000:fffc8000       .debug$S                   0000000180000000     kernel32:KERNEL32.dll
 0000:fffc8000       .debug$S                   0000000180000000     kernel32:KERNEL32.dll
 0000:fffc8000       .debug$S                   0000000180000000     kernel32:KERNEL32.dll
 0000:fffc8000       .debug$S                   0000000180000000     kernel32:KERNEL32.dll
 0000:fffc8000       .debug$S                   0000000180000000     kernel32:KERNEL32.dll
 0000:fffc8000       .debug$S                   0000000180000000     kernel32:KERNEL32.dll
 0000:fffc8000       .debug$S                   0000000180000000     kernel32:KERNEL32.dll
 0000:fffc8000       .debug$S                   0000000180000000     kernel32:KERNEL32.dll
 0000:fffc8000       .debug$S                   0000000180000000     kernel32:KERNEL32.dll
 0000:fffc8000       .debug$S                   0000000180000000     kernel32:KERNEL32.dll
 0000:fffc8000       .debug$S                   0000000180000000     kernel32:KERNEL32.dll
 0000:fffc8000       .debug$S                   0000000180000000     kernel32:KERNEL32.dll
 0000:fffc8000       .debug$S                   0000000180000000     kernel32:KERNEL32.dll
 0000:fffc8000       .debug$S                   0000000180000000     kernel32:KERNEL32.dll
 0000:fffc8000       .debug$S                   0000000180000000     kernel32:KERNEL32.dll
 0000:fffc8000       .debug$S                   0000000180000000     kernel32:KERNEL32.dll
 0000:fffc8000       .debug$S                   0000000180000000     kernel32:KERNEL32.dll
 0000:fffc8000       .debug$S                   0000000180000000     kernel32:KERNEL32.dll
 0000:fffc8000       .debug$S                   0000000180000000     kernel32:KERNEL32.dll
 0000:fffc8000       .debug$S                   0000000180000000     kernel32:KERNEL32.dll
 0000:fffc8000       .debug$S                   0000000180000000     kernel32:KERNEL32.dll
 0000:fffc8000       .debug$S                   0000000180000000     kernel32:KERNEL32.dll
 0000:fffc8000       .debug$S                   0000000180000000     kernel32:KERNEL32.dll
 0000:fffc8000       .debug$S                   0000000180000000     kernel32:KERNEL32.dll
 0000:fffc8000       .debug$S                   0000000180000000     kernel32:KERNEL32.dll
 0000:fffc8000       .debug$S                   0000000180000000     kernel32:KERNEL32.dll
 0000:fffc8000       .debug$S                   0000000180000000     ffi_bindings.exp
 0000:fffc8000       .debug$S                   0000000180000000     kernel32:KERNEL32.dll
 0000:fffc8000       .debug$S                   0000000180000000     kernel32:KERNEL32.dll
 0000:fffc8000       .debug$S                   0000000180000000     kernel32:KERNEL32.dll
 0000:fffc8000       .debug$S                   0000000180000000     kernel32:KERNEL32.dll
 0000:fffc8000       .debug$S                   0000000180000000     kernel32:KERNEL32.dll
 0000:fffc8000       .debug$S                   0000000180000000     kernel32:KERNEL32.dll
 0000:fffc8000       .debug$S                   0000000180000000     kernel32:KERNEL32.dll
 0000:fffc8000       .debug$S                   0000000180000000     kernel32:KERNEL32.dll
 0000:fffc8000       .debug$S                   0000000180000000     kernel32:KERNEL32.dll
 0000:fffc8000       .debug$S                   0000000180000000     kernel32:KERNEL32.dll
 0000:fffc8000       .debug$S                   0000000180000000     kernel32:KERNEL32.dll
 0000:fffc8000       .debug$S                   0000000180000000     kernel32:KERNEL32.dll
 0000:fffc8000       .debug$S                   0000000180000000     kernel32:KERNEL32.dll
 0000:fffc8000       .debug$S                   0000000180000000     kernel32:KERNEL32.dll
 0000:fffc8000       .debug$S                   0000000180000000     kernel32:KERNEL32.dll
 0000:fffc8000       .debug$S                   0000000180000000     kernel32:KERNEL32.dll
 0000:fffc8000       .debug$S                   0000000180000000     kernel32:KERNEL32.dll
 0000:fffc8000       .debug$S                   0000000180000000     kernel32:KERNEL32.dll
 0000:fffc8000       .debug$S                   0000000180000000     kernel32:KERNEL32.dll
 0000:fffc8000       .debug$S                   0000000180000000     kernel32:KERNEL32.dll
 0000:fffc8000       .debug$S                   0000000180000000     kernel32:KERNEL32.dll
 0000:fffc8000       .debug$S                   0000000180000000     kernel32:KERNEL32.dll
 0000:fffc8000       .debug$S                   0000000180000000     kernel32:KERNEL32.dll
 0000:fffc8000       .debug$S                   0000000180000000     kernel32:KERNEL32.dll
 0000:fffc8000       .debug$S                   0000000180000000     kernel32:KERNEL32.dll
 0000:fffc8000       .debug$S                   0000000180000000     kernel32:KERNEL32.dll
 0000:fffc8000       .debug$S                   0000000180000000     kernel32:KERNEL32.dll
 0000:fffc8000       .debug$S                   0000000180000000     kernel32:KERNEL32.dll
 0000:fffc8000       .debug$S                   0000000180000000     kernel32:KERNEL32.dll
 0000:fffc8000       .debug$S                   0000000180000000     kernel32:KERNEL32.dll
 0000:fffc8000       .debug$S                   0000000180000000     kernel32:KERNEL32.dll
 0000:fffc8000       .debug$S                   0000000180000000     kernel32:KERNEL32.dll
 0000:fffc8000       .debug$S                   0000000180000000     node:node.exe
 0000:fffc8000       .debug$S                   0000000180000000     node:node.exe
 0000:fffc8000       .debug$S                   0000000180000000     node:node.exe
 0000:fffc8000       .debug$S                   0000000180000000     kernel32:KERNEL32.dll
 0000:fffc8000       .debug$S                   0000000180000000     kernel32:KERNEL32.dll
 0000:fffc8000       .debug$S                   0000000180000000     node:node.exe
 0000:fffc8000       .debug$S                   0000000180000000     kernel32:KERNEL32.dll
 0000:fffc8000       .debug$S                   0000000180000000     kernel32:KERNEL32.dll
 0000:fffc8000       .debug$S                   0000000180000000     node:node.exe
 0000:fffc8000       .debug$S                   0000000180000000     node:node.exe
 0000:fffc8000       .debug$S                   0000000180000000     node:node.exe
 0000:fffc8000       .debug$S                   0000000180000000     node:node.exe
 0000:fffc8000       .debug$S                   0000000180000000     node:node.exe
 0000:fffc8000       .debug$S                   0000000180000000     kernel32:KERNEL32.dll
 0000:fffc8000       .debug$S                   0000000180000000     kernel32:KERNEL32.dll
 0000:fffc8000       .debug$S                   0000000180000000     kernel32:KERNEL32.dll
 0000:fffc8000       .debug$S                   0000000180000000     node:node.exe
 0000:fffc8000       .debug$S                   0000000180000000     node:node.exe
 0000:fffc8000       .debug$S                   0000000180000000     node:node.exe
 0000:fffc8000       .debug$S                   0000000180000000     node:node.exe
 0000:fffc8000       .debug$S                   0000000180000000     node:node.exe
 0000:fffc8000       .debug$S                   0000000180000000     node:node.exe
 0000:fffc8000       .debug$S                   0000000180000000     node:node.exe
 0000:fffc8000       .debug$S                   0000000180000000     node:node.exe
 0000:fffc8000       .debug$S                   0000000180000000     node:node.exe
 0000:fffc8000       .debug$S                   0000000180000000     node:node.exe
 0000:fffc8000       .debug$S                   0000000180000000     kernel32:KERNEL32.dll
 0000:fffc8000       .debug$S                   0000000180000000     node:node.exe
 0000:fffc8000       .debug$S                   0000000180000000     node:node.exe
 0000:fffc8000       .debug$S                   0000000180000000     node:node.exe
 0000:fffc8000       .debug$S                   0000000180000000     kernel32:KERNEL32.dll
 0000:fffc8000       .debug$S                   0000000180000000     node:node.exe
 0000:fffc8000       .debug$S                   0000000180000000     kernel32:KERNEL32.dll
 0000:fffc8000       .debug$S                   0000000180000000     kernel32:KERNEL32.dll
 0000:fffc8000       .debug$S                   0000000180000000     kernel32:KERNEL32.dll
 0000:fffc8000       .debug$S                   0000000180000000     node:node.exe
 0000:fffc8000       .debug$S                   0000000180000000     node:node.exe
 0000:fffc8000       .debug$S                   0000000180000000     node:node.exe
 0000:fffc8000       .debug$S                   0000000180000000     node:node.exe
 0000:fffc8000       .debug$S                   0000000180000000     node:node.exe
 0000:fffc8000       .debug$S                   0000000180000000     node:node.exe
 0000:fffc8000       .debug$S                   0000000180000000     node:node.exe
 0000:fffc8000       .debug$S                   0000000180000000     node:node.exe
 0000:fffc8000       .debug$S                   0000000180000000     node:node.exe
 0000:fffc8000       .debug$S                   0000000180000000     node:node.exe
 0000:fffc8000       .debug$S                   0000000180000000     node:node.exe
 0000:fffc8000       .debug$S                   0000000180000000     node:node.exe
 0000:fffc8000       .debug$S                   0000000180000000     node:node.exe
 0000:fffc8000       .debug$S                   0000000180000000     node:node.exe
 0000:fffc8000       .debug$S                   0000000180000000     node:node.exe
 0000:fffc8000       .debug$S                   0000000180000000     node:node.exe
 0000:fffc8000       .debug$S                   0000000180000000     node:node.exe
 0000:fffc8000       .debug$S                   0000000180000000     kernel32:KERNEL32.dll
 0000:fffc8000       .debug$S                   0000000180000000     node:node.exe
 0000:fffc8000       .debug$S                   0000000180000000     node:node.exe
 0000:fffc8000       .debug$S                   0000000180000000     node:node.exe
 0000:fffc8000       .debug$S                   0000000180000000     node:node.exe
 0000:fffc8000       .debug$S                   0000000180000000     node:node.exe
 0000:fffc8000       .debug$S                   0000000180000000     node:node.exe
 0000:fffc8000       .debug$S                   0000000180000000     kernel32:KERNEL32.dll
 0000:fffc8000       .debug$S                   0000000180000000     node:node.exe
 0000:fffc8000       .debug$S                   0000000180000000     node:node.exe
 0000:fffc8000       .debug$S                   0000000180000000     node:node.exe
 0000:fffc8000       .debug$S                   0000000180000000     node:node.exe
 0000:fffc8000       .debug$S                   0000000180000000     node:node.exe
 0000:fffc8000       .debug$S                   0000000180000000     node:node.exe
 0000:fffc8000       .debug$S                   0000000180000000     node:node.exe
 0000:fffc8000       .debug$S                   0000000180000000     node:node.exe
 0000:fffc8000       .debug$S                   0000000180000000     node:node.exe
 0000:fffc8000       .debug$S                   0000000180000000     node:node.exe
 0001:00000000       ??__E?per_environment@CallbackInfo@FFI@@0V?$unordered_map@PEAUnapi_env__@@V?$unique_ptr@UPerEnvironmentData@FFI@@U?$default_delete@UPerEnvironmentData@FFI@@@std@@@std@@U?$hash@PEAUnapi_env__@@@3@U?$equal_to@PEAUnapi_env__@@@3@V?$allocator@U?$pair@QEAUnapi_env__@@V?$unique_ptr@UPerEnvironmentData@FFI@@U?$default_delete@UPerEnvironmentData@FFI@@@std@@@std@@@std@@@3@@std@@A@@YAXXZ 0000000180001000 f   callback_info.obj
 0001:00001250       ?__ffi_errno@FFI@@YAHXZ    0000000180002250 f   ffi.obj
 0001:000040c0       ?Init@@YA?AVObject@Napi@@VEnv@2@V12@@Z 00000001800050c0 f   ffi.obj
 0001:000042a0       _register_ffi_bindings     00000001800052a0 f   ffi.obj
 0001:00005210       ??R<lambda_4b130013be4a466940e6fe08d32cda83>@@QEBA?AVValue@Napi@@XZ 0000000180006210 f   ffi.obj
 0001:00005f10       ??$AttachData@U?$CallbackData@P6A?AVValue@Napi@@AEBVCallbackInfo@2@@ZV12@@details@Napi@@@details@Napi@@YA?AW4napi_status@@PEAUnapi_env__@@PEAUnapi_value__@@PEAU?$CallbackData@P6A?AVValue@Napi@@AEBVCallbackInfo@2@@ZV12@@01@@Z 0000000180006f10 f   ffi.obj
 0001:00005f10       ??$AttachData@U?$CallbackData@P6AXAEBVCallbackInfo@Napi@@@ZX@details@Napi@@@details@Napi@@YA?AW4napi_status@@PEAUnapi_env__@@PEAUnapi_value__@@PEAU?$CallbackData@P6AXAEBVCallbackInfo@Napi@@@ZX@01@@Z 0000000180006f10 f   ffi.obj
 0001:00005fd0       ?<lambda_invoker_cdecl>@<lambda_b3852c3e1b8178fcfbf9bcfb528b9bb1>@@CAXPEAUnapi_env__@@PEAX1@Z 0000000180006fd0 f   ffi.obj
 0001:00005fd0       ?<lambda_invoker_cdecl>@<lambda_429eecbda221b473ae46d4f12d46f31b>@@CAXPEAUnapi_env__@@PEAX1@Z 0000000180006fd0 f   ffi.obj
 0001:000070c0       ?<lambda_invoker_cdecl>@<lambda_3ccc02b65fb7b107d566fd3ae4643aad>@@CAXXZ 00000001800080c0 f   callback_info.obj
 0001:00008510       UTF8toWCHAR                0000000180009510 f   win32-dlfcn.obj
 0001:00008740       ?load_exe_hook@@YAP6A_JXZIPEAUDelayLoadInfo@@@Z 0000000180009740 f   win_delay_load_hook.obj
 0001:00008780       initialize_aggregate       0000000180009780 f   libffi:prep_cif.obj
 0001:00008a90       $LN33                      0000000180009a90     libffi:ffi.obj
 0001:00008b90       $LN26                      0000000180009b90     libffi:ffi.obj
 0001:00008ef0       win32munmap                0000000180009ef0 f   libffi:closures.obj
 0001:00008f90       init_mparams               0000000180009f90 f   libffi:closures.obj
 0001:00009060       mmap_alloc                 000000018000a060 f   libffi:closures.obj
 0001:00009140       init_top                   000000018000a140 f   libffi:closures.obj
 0001:00009180       prepend_alloc              000000018000a180 f   libffi:closures.obj
 0001:000095d0       add_segment                000000018000a5d0 f   libffi:closures.obj
 0001:00009910       sys_alloc                  000000018000a910 f   libffi:closures.obj
 0001:00009bc0       release_unused_segments    000000018000abc0 f   libffi:closures.obj
 0001:00009f30       sys_trim                   000000018000af30 f   libffi:closures.obj
 0001:0000a050       tmalloc_small              000000018000b050 f   libffi:closures.obj
 0001:0000a300       dlmalloc                   000000018000b300 f   libffi:closures.obj
 0001:0000a680       dlfree                     000000018000b680 f   libffi:closures.obj
 0001:0000b5a0       $$000000                   000000018000c5a0     LIBCMT:_amdsecgs_.obj
 0001:0000ba30       ?dllmain_crt_dispatch@@YAHQEAUHINSTANCE__@@KQEAX@Z 000000018000ca30 f   LIBCMT:dll_dllmain.obj
 0001:0000ba80       ?dllmain_crt_process_attach@@YAHQEAUHINSTANCE__@@QEAX@Z 000000018000ca80 f   LIBCMT:dll_dllmain.obj
 0001:0000bbac       ?dllmain_crt_process_detach@@YAH_N@Z 000000018000cbac f   LIBCMT:dll_dllmain.obj
 0001:0000bc30       ?dllmain_dispatch@@YAHQEAUHINSTANCE__@@KQEAX@Z 000000018000cc30 f   LIBCMT:dll_dllmain.obj
 0001:0000bd28       ?dllmain_raw@@YAHQEAUHINSTANCE__@@KQEAX@Z 000000018000cd28 f   LIBCMT:dll_dllmain.obj
 0001:0000bdc0       $$000000                   000000018000cdc0     LIBCMT:_chkstk_.obj
 0001:0000bfdc       capture_current_context    000000018000cfdc f   LIBCMT:gs_report.obj
 0001:0000c04c       capture_previous_context   000000018000d04c f   LIBCMT:gs_report.obj
 0001:0000c620       $$000000                   000000018000d620     libvcruntime:memcpy.obj
 0001:0000c6c7       MoveSmall                  000000018000d6c7     libvcruntime:memcpy.obj
 0001:0000cb50       ?CatchIt@@YAXPEAUEHExceptionRecord@@PEA_KPEAU_CONTEXT@@PEAU_xDISPATCHER_CONTEXT@@PEBU_s_FuncInfo@@PEBU_s_HandlerType@@PEBU_s_CatchableType@@PEBU_s_TryBlockMapEntry@@H1EE@Z 000000018000db50 f   libvcruntime:frame.obj
 0001:0000cc14       ?ExFilterRethrow@@YAHPEAU_EXCEPTION_POINTERS@@PEAUEHExceptionRecord@@PEAH@Z 000000018000dc14 f   libvcruntime:frame.obj
 0001:0000cc9c       ?FindHandler@@YAXPEAUEHExceptionRecord@@PEA_KPEAU_CONTEXT@@PEAU_xDISPATCHER_CONTEXT@@PEBU_s_FuncInfo@@EH1@Z 000000018000dc9c f   libvcruntime:frame.obj
 0001:0000d16c       ?FindHandlerForForeignException@@YAXPEAUEHExceptionRecord@@PEA_KPEAU_CONTEXT@@PEAU_xDISPATCHER_CONTEXT@@PEBU_s_FuncInfo@@HH1@Z 000000018000e16c f   libvcruntime:frame.obj
 0001:0000d3d8       ?IsInExceptionSpec@@YAEPEAUEHExceptionRecord@@PEBU_s_ESTypeList@@@Z 000000018000e3d8 f   libvcruntime:frame.obj
 0001:0000e320       $$000000                   000000018000f320     libvcruntime:memset.obj
 0001:0000e40c       MsetTab                    000000018000f40c     libvcruntime:memset.obj
 0001:0000e7e0       $$000000                   000000018000f7e0     libvcruntime:handlers.obj
 0001:0000eee0       $$000000                   000000018000fee0     libvcruntime:_jmpuwind_.obj
 0001:0000efd4       ?try_get_function@@YAPEAXW4function_id@?A0x679b24ab@@QEBDQEBW4module_id@2@2@Z 000000018000ffd4 f   libvcruntime:winapi_downlevel.obj
 0001:0000f500       ??$common_assert_to_message_box@_W@@YAXQEB_W0IQEAX@Z 0000000180010500 f   libucrt:assert.obj
 0001:0000f5c4       ??$common_assert_to_message_box_build_string@_W@@YAXQEA_W_KQEB_W2IQEAX@Z 00000001800105c4 f   libucrt:assert.obj
 0001:0000fd98       ??$common_assert_to_stderr@_W@@YAXQEB_W0I@Z 0000000180010d98 f   libucrt:assert.obj
 0001:0000ff08       ?get_assert_format@@YAPEB_W_W@Z 0000000180010f08 f   libucrt:assert.obj
 0001:00010850       ??R<lambda_dd75445284c072d0bd3768540cc698fa>@@QEBAHXZ 0000000180011850 f   libucrt:output.obj
 0001:00013814       ?atexit_exception_filter@@YAHK@Z 0000000180014814 f   libucrt:exit.obj
 0001:00013820       ?common_exit@@YAXHW4_crt_exit_cleanup_mode@@W4_crt_exit_return_mode@@@Z 0000000180014820 f   libucrt:exit.obj
 0001:0001398c       ?exit_or_terminate_process@@YAXI@Z 000000018001498c f   libucrt:exit.obj
 0001:000139d8       ?try_cor_exit_process@@YAXI@Z 00000001800149d8 f   libucrt:exit.obj
 0001:00013a70       ??$parse_command_line@D@@YAXPEADPEAPEAD0PEA_K2@Z 0000000180014a70 f   libucrt:argv_parsing.obj
 0001:00013e08       ??$common_initialize_environment_nolock@D@@YAHXZ 0000000180014e08 f   libucrt:environment_initialization.obj
 0001:00013e74       ??$create_environment@D@@YAQEAPEADQEAD@Z 0000000180014e74 f   libucrt:environment_initialization.obj
 0001:00013f70       ??$free_environment@_W@@YAXQEAPEA_W@Z 0000000180014f70 f   libucrt:environment_initialization.obj
 0001:00013f70       ??$free_environment@D@@YAXQEAPEAD@Z 0000000180014f70 f   libucrt:environment_initialization.obj
 0001:00013fb4       ??$uninitialize_environment_internal@D@@YAXAEAPEAPEAD@Z 0000000180014fb4 f   libucrt:environment_initialization.obj
 0001:00013fd0       ??$uninitialize_environment_internal@_W@@YAXAEAPEAPEA_W@Z 0000000180014fd0 f   libucrt:environment_initialization.obj
 0001:00014208       ??R<lambda_4e60a939b0d047cfe11ddc22648dfba9>@@QEBAHXZ 0000000180015208 f   libucrt:onexit.obj
 0001:000144b8       initialize_global_variables 00000001800154b8 f   libucrt:initialization.obj
 0001:000144cc       initialize_c               00000001800154cc f   libucrt:initialization.obj
 0001:000144f0       initialize_environment     00000001800154f0 f   libucrt:initialization.obj
 0001:000144f0       uninitialize_c             00000001800154f0 f   libucrt:initialization.obj
 0001:000144f0       initialize_global_state_isolation 00000001800154f0 f   libucrt:initialization.obj
 0001:000144f0       report_memory_leaks        00000001800154f0 f   libucrt:initialization.obj
 0001:000144f0       uninitialize_global_state_isolation 00000001800154f0 f   libucrt:initialization.obj
 0001:000144f4       uninitialize_environment   00000001800154f4 f   libucrt:initialization.obj
 0001:00014504       initialize_pointers        0000000180015504 f   libucrt:initialization.obj
 0001:00014558       uninitialize_vcruntime     0000000180015558 f   libucrt:initialization.obj
 0001:00014560       uninitialize_allocated_memory 0000000180015560 f   libucrt:initialization.obj
 0001:000153ec       ?construct_ptd_array@@YAXQEAU__acrt_ptd@@@Z 00000001800163ec f   libucrt:per_thread_data.obj
 0001:000154bc       ?destroy_fls@@YAXPEAX@Z    00000001800164bc f   libucrt:per_thread_data.obj
 0001:000154dc       ?destroy_ptd_array@@YAXQEAU__acrt_ptd@@@Z 00000001800164dc f   libucrt:per_thread_data.obj
 0001:000155d4       ?replace_current_thread_locale_nolock@@YAXQEAU__acrt_ptd@@QEAU__crt_locale_data@@@Z 00000001800165d4 f   libucrt:per_thread_data.obj
 0001:0001581c       ??$common_xtox@K_W@@YAHKQEA_W_KI_N@Z 000000018001681c f   libucrt:xtoa.obj
 0001:000158c8       ??$common_xtox_s@K_W@@YAHKQEA_W_KI_N@Z 00000001800168c8 f   libucrt:xtoa.obj
 0001:00015b8c       ??$message_box_wait_thread@_W@@YAKQEAX@Z 0000000180016b8c f   libucrt:crtmbox.obj
 0001:00015f48       common_flush_all           0000000180016f48 f   libucrt:fflush.obj
 0001:000160b0       ??R<lambda_b721fa326cdb32351d23dfa67958c160>@@QEBAHXZ 00000001800170b0 f   libucrt:setvbuf.obj
 0001:000165e8       ?internal_isupper_l@@YA_NHQEAU__crt_locale_pointers@@@Z 00000001800175e8 f   libucrt:tolower_toupper.obj
 0001:00016f1c       ?fp_format_a@@YAHQEBNPEAD_KQEAD2H_NIQEAU__crt_locale_pointers@@@Z 0000000180017f1c f   libucrt:cvt.obj
 0001:0001727c       ?fp_format_e@@YAHQEBNQEAD_K12H_NIQEAU__crt_locale_pointers@@@Z 000000018001827c f   libucrt:cvt.obj
 0001:0001734c       ?fp_format_e_internal@@YAHQEAD_KH_NIQEAU_strflt@@2QEAU__crt_locale_pointers@@@Z 000000018001834c f   libucrt:cvt.obj
 0001:00017528       ?fp_format_f_internal@@YAHQEAD_KHQEAU_strflt@@_NQEAU__crt_locale_pointers@@@Z 0000000180018528 f   libucrt:cvt.obj
 0001:00017670       ?fp_format_g@@YAHQEBNQEAD_K12H_NIQEAU__crt_locale_pointers@@@Z 0000000180018670 f   libucrt:cvt.obj
 0001:000177a8       ?fp_format_nan_or_infinity@@YAHW4__acrt_fp_class@@_NPEAD_K1@Z 00000001800187a8 f   libucrt:cvt.obj
 0001:00017e64       ?initialize_inherited_file_handles_nolock@@YAXXZ 0000000180018e64 f   libucrt:ioinit.obj
 0001:00017f50       ?initialize_stdio_handles_nolock@@YAXXZ 0000000180018f50 f   libucrt:ioinit.obj
 0001:00018180       ?try_get_function@@YAPEAXW4function_id@?A0x63058377@@QEBDQEBW4module_id@2@2@Z 0000000180019180 f   libucrt:winapi_thunks.obj
 0001:000189ac       ?<helper_func_cdecl>@<lambda_2feae5270eb4d0d5532525f423405775>@@CAHPEBX0@Z 00000001800199ac f   libucrt:argv_wildcards.obj
 0001:000189c0       ??$common_expand_argv_wildcards@D@@YAHQEAPEADQEAPEAPEAD@Z 00000001800199c0 f   libucrt:argv_wildcards.obj
 0001:00018bcc       ??$copy_and_add_argument_to_buffer@D@@YAHQEBD0_KAEAV?$argument_list@D@?A0xca0879c4@@@Z 0000000180019bcc f   libucrt:argv_wildcards.obj
 0001:00018cdc       ??$expand_argument_wildcards@D@@YAHQEAD0AEAV?$argument_list@D@?A0xca0879c4@@@Z 0000000180019cdc f   libucrt:argv_wildcards.obj
 0001:00018f90       ??R<lambda_ad1ced32f4ac17aa236e5ef05d6b3b7c>@@QEBAXXZ 0000000180019f90 f   libucrt:mbctype.obj
 0001:000191a8       ?getSystemCP@@YAHH@Z       000000018001a1a8 f   libucrt:mbctype.obj
 0001:00019228       ?setSBCS@@YAXPEAU__crt_multibyte_data@@@Z 000000018001a228 f   libucrt:mbctype.obj
 0001:000192b8       ?setSBUpLow@@YAXPEAU__crt_multibyte_data@@@Z 000000018001a2b8 f   libucrt:mbctype.obj
 0001:0001949c       ?setmbcp_internal@@YAHH_N@Z 000000018001a49c f   libucrt:mbctype.obj
 0001:000199e4       ?x_ismbbtype_l@@YAHPEAU__crt_locale_pointers@@IHH@Z 000000018001a9e4 f   libucrt:ismbbyte.obj
 0001:0001a590       ?write_double_translated_ansi_nolock@@YA?AUwrite_result@?A0x9c548279@@HQEBDI@Z 000000018001b590 f   libucrt:write.obj
 0001:0001a798       ?write_text_ansi_nolock@@YA?AUwrite_result@?A0x9c548279@@HQEBDI@Z 000000018001b798 f   libucrt:write.obj
 0001:0001a8a0       ?write_text_utf16le_nolock@@YA?AUwrite_result@?A0x9c548279@@HQEBDI@Z 000000018001b8a0 f   libucrt:write.obj
 0001:0001a9bc       ?write_text_utf8_nolock@@YA?AUwrite_result@?A0x9c548279@@HQEBDI@Z 000000018001b9bc f   libucrt:write.obj
 0001:0001af40       ?__acrt_LCMapStringA_stat@@YAHPEAU__crt_locale_pointers@@PEB_WKPEBDHPEADHHH@Z 000000018001bf40 f   libucrt:lcmapstringa.obj
 0001:0001cc3c       memcpy_s                   000000018001dc3c f   libucrt:cfout.obj
 0001:0001ccc4       ??$write_buffer_nolock@D@@YA_NDV__crt_stdio_stream@@@Z 000000018001dcc4 f   libucrt:_flsbuf.obj
 0001:0001cdc8       ??$write_buffer_nolock@_W@@YA_N_WV__crt_stdio_stream@@@Z 000000018001ddc8 f   libucrt:_flsbuf.obj
 0001:0001d280       ?free_crt_array_internal@@YAXQEAPEBX_K@Z 000000018001e280 f   libucrt:inittime.obj
 0001:0001d8b0       ?GetTableIndexFromLocaleName@@YAHPEB_W@Z 000000018001e8b0 f   libucrt:lcidtoname_downlevel.obj
 0001:0001d9b0       ?shortsort@@YAXPEAD0_KP6AHPEBX2@Z@Z 000000018001e9b0 f   libucrt:qsort.obj
 0001:0001dfc8       ?initialize_multibyte@@YAHXZ 000000018001efc8 f   libucrt:multibyte_initializer.obj
 0001:0001e190       ??$common_lseek@_J@@YA_JH_JH@Z 000000018001f190 f   libucrt:lseek.obj
 0001:0001e280       ??$common_lseek_nolock@_J@@YA_JH_JH@Z 000000018001f280 f   libucrt:lseek.obj
 0001:0001e520       $$000000                   000000018001f520     libucrt:log10.obj
 0001:0001eed4       common_control87           000000018001fed4 f   libucrt:ieee.obj
 0001:0001f16c       _call_matherr              000000018002016c f   libucrt:libm_error.obj
 0001:0001f1d4       _exception_enabled         00000001800201d4 f   libucrt:libm_error.obj
 0001:0001f470       _log_special_common        0000000180020470 f   libucrt:log_special.obj
 0001:0001f510       $$000000                   0000000180020510     libucrt:fpsr.obj
 0001:00020300       $$000000                   0000000180021300     libvcruntime:memcmp.obj
 0001:00020460       $$000000                   0000000180021460     LIBCMT:_guard_dispatch_.obj
 0001:00020480       ?dtor$0@?0??Utf8Value@String@Napi@@QEBA?AV?$basic_string@DU?$char_traits@D@std@@V?$allocator@D@2@@std@@XZ@4HA 0000000180021480 f   ffi.obj
 0001:000204b0       ?dtor$2@?0???AObject@Napi@@QEAA?AV?$PropertyLValue@V?$basic_string@DU?$char_traits@D@std@@V?$allocator@D@2@@std@@@01@PEBD@Z@4HA 00000001800214b0 f   ffi.obj
 0001:000204c0       ?dtor$0@?0??Message@Error@Napi@@QEBAAEBV?$basic_string@DU?$char_traits@D@std@@V?$allocator@D@2@@std@@XZ@4HA 00000001800214c0 f   ffi.obj
 0001:000204cc       ?catch$1@?0??Message@Error@Napi@@QEBAAEBV?$basic_string@DU?$char_traits@D@std@@V?$allocator@D@2@@std@@XZ@4HA 00000001800214cc f   ffi.obj
 0001:000204d9       __catch$?Message@Error@Napi@@QEBAAEBV?$basic_string@DU?$char_traits@D@std@@V?$allocator@D@2@@std@@XZ$0 00000001800214d9 f   ffi.obj
 0001:000204f0       ?dtor$0@?0??ThrowAsJavaScriptException@Error@Napi@@QEBAXXZ@4HA 00000001800214f0 f   ffi.obj
 0001:000204f0       ?dtor$0@?0???0?$Reference@VObject@Napi@@@Napi@@IEAA@AEBV01@@Z@4HA 00000001800214f0 f   ffi.obj
 0001:000204f0       ?dtor$0@?0??Set@ObjectReference@Napi@@QEAAXPEBDVValue@2@@Z@4HA 00000001800214f0 f   callback_info.obj
 0001:00020500       ?dtor$0@?0??Get@ObjectReference@Napi@@QEBA?AVValue@2@PEBD@Z@4HA 0000000180021500 f   ffi.obj
 0001:00020510       ?dtor$0@?0??MakeCallback@FunctionReference@Napi@@QEBA?AVValue@2@PEAUnapi_value__@@AEBV?$vector@PEAUnapi_value__@@V?$allocator@PEAUnapi_value__@@@std@@@std@@PEAUnapi_async_context__@@@Z@4HA 0000000180021510 f   ffi.obj
 0001:00020510       ?dtor$0@?0??MakeCallback@FunctionReference@Napi@@QEBA?AVValue@2@PEAUnapi_value__@@AEBV?$initializer_list@PEAUnapi_value__@@@std@@PEAUnapi_async_context__@@@Z@4HA 0000000180021510 f   callback_info.obj
 0001:00020520       ?dtor$0@?0??InitializeStaticFunctions@FFI@1@SA?AVObject@Napi@@VEnv@3@@Z@4HA 0000000180021520 f   ffi.obj
 0001:0002052c       ?dtor$1@?0??InitializeStaticFunctions@FFI@1@SA?AVObject@Napi@@VEnv@3@@Z@4HA 000000018002152c f   ffi.obj
 0001:00020538       ?dtor$2@?0??InitializeStaticFunctions@FFI@1@SA?AVObject@Napi@@VEnv@3@@Z@4HA 0000000180021538 f   ffi.obj
 0001:00020544       ?dtor$3@?0??InitializeStaticFunctions@FFI@1@SA?AVObject@Napi@@VEnv@3@@Z@4HA 0000000180021544 f   ffi.obj
 0001:00020550       ?dtor$4@?0??InitializeStaticFunctions@FFI@1@SA?AVObject@Napi@@VEnv@3@@Z@4HA 0000000180021550 f   ffi.obj
 0001:00020560       ?dtor$0@?0??InitializeBindings@FFI@1@SAXVEnv@Napi@@VObject@3@@Z@4HA 0000000180021560 f   ffi.obj
 0001:0002056c       ?dtor$1@?0??InitializeBindings@FFI@1@SAXVEnv@Napi@@VObject@3@@Z@4HA 000000018002156c f   ffi.obj
 0001:00020578       ?dtor$2@?0??InitializeBindings@FFI@1@SAXVEnv@Napi@@VObject@3@@Z@4HA 0000000180021578 f   ffi.obj
 0001:00020584       ?dtor$3@?0??InitializeBindings@FFI@1@SAXVEnv@Napi@@VObject@3@@Z@4HA 0000000180021584 f   ffi.obj
 0001:00020590       ?dtor$4@?0??InitializeBindings@FFI@1@SAXVEnv@Napi@@VObject@3@@Z@4HA 0000000180021590 f   ffi.obj
 0001:0002059c       ?dtor$5@?0??InitializeBindings@FFI@1@SAXVEnv@Napi@@VObject@3@@Z@4HA 000000018002159c f   ffi.obj
 0001:000205a8       ?dtor$6@?0??InitializeBindings@FFI@1@SAXVEnv@Napi@@VObject@3@@Z@4HA 00000001800215a8 f   ffi.obj
 0001:000205b4       ?dtor$7@?0??InitializeBindings@FFI@1@SAXVEnv@Napi@@VObject@3@@Z@4HA 00000001800215b4 f   ffi.obj
 0001:000205c0       ?dtor$8@?0??InitializeBindings@FFI@1@SAXVEnv@Napi@@VObject@3@@Z@4HA 00000001800215c0 f   ffi.obj
 0001:000205cc       ?dtor$9@?0??InitializeBindings@FFI@1@SAXVEnv@Napi@@VObject@3@@Z@4HA 00000001800215cc f   ffi.obj
 0001:000205d8       ?dtor$10@?0??InitializeBindings@FFI@1@SAXVEnv@Napi@@VObject@3@@Z@4HA 00000001800215d8 f   ffi.obj
 0001:000205e4       ?dtor$11@?0??InitializeBindings@FFI@1@SAXVEnv@Napi@@VObject@3@@Z@4HA 00000001800215e4 f   ffi.obj
 0001:000205f0       ?dtor$12@?0??InitializeBindings@FFI@1@SAXVEnv@Napi@@VObject@3@@Z@4HA 00000001800215f0 f   ffi.obj
 0001:000205fc       ?dtor$13@?0??InitializeBindings@FFI@1@SAXVEnv@Napi@@VObject@3@@Z@4HA 00000001800215fc f   ffi.obj
 0001:00020608       ?dtor$14@?0??InitializeBindings@FFI@1@SAXVEnv@Napi@@VObject@3@@Z@4HA 0000000180021608 f   ffi.obj
 0001:00020614       ?dtor$15@?0??InitializeBindings@FFI@1@SAXVEnv@Napi@@VObject@3@@Z@4HA 0000000180021614 f   ffi.obj
 0001:00020620       ?dtor$16@?0??InitializeBindings@FFI@1@SAXVEnv@Napi@@VObject@3@@Z@4HA 0000000180021620 f   ffi.obj
 0001:0002062c       ?dtor$17@?0??InitializeBindings@FFI@1@SAXVEnv@Napi@@VObject@3@@Z@4HA 000000018002162c f   ffi.obj
 0001:00020638       ?dtor$18@?0??InitializeBindings@FFI@1@SAXVEnv@Napi@@VObject@3@@Z@4HA 0000000180021638 f   ffi.obj
 0001:00020644       ?dtor$19@?0??InitializeBindings@FFI@1@SAXVEnv@Napi@@VObject@3@@Z@4HA 0000000180021644 f   ffi.obj
 0001:00020650       ?dtor$20@?0??InitializeBindings@FFI@1@SAXVEnv@Napi@@VObject@3@@Z@4HA 0000000180021650 f   ffi.obj
 0001:0002065c       ?dtor$21@?0??InitializeBindings@FFI@1@SAXVEnv@Napi@@VObject@3@@Z@4HA 000000018002165c f   ffi.obj
 0001:00020668       ?dtor$22@?0??InitializeBindings@FFI@1@SAXVEnv@Napi@@VObject@3@@Z@4HA 0000000180021668 f   ffi.obj
 0001:00020674       ?dtor$23@?0??InitializeBindings@FFI@1@SAXVEnv@Napi@@VObject@3@@Z@4HA 0000000180021674 f   ffi.obj
 0001:00020680       ?dtor$24@?0??InitializeBindings@FFI@1@SAXVEnv@Napi@@VObject@3@@Z@4HA 0000000180021680 f   ffi.obj
 0001:0002068c       ?dtor$25@?0??InitializeBindings@FFI@1@SAXVEnv@Napi@@VObject@3@@Z@4HA 000000018002168c f   ffi.obj
 0001:00020698       ?dtor$26@?0??InitializeBindings@FFI@1@SAXVEnv@Napi@@VObject@3@@Z@4HA 0000000180021698 f   ffi.obj
 0001:000206a4       ?dtor$27@?0??InitializeBindings@FFI@1@SAXVEnv@Napi@@VObject@3@@Z@4HA 00000001800216a4 f   ffi.obj
 0001:000206b0       ?dtor$28@?0??InitializeBindings@FFI@1@SAXVEnv@Napi@@VObject@3@@Z@4HA 00000001800216b0 f   ffi.obj
 0001:000206bc       ?dtor$29@?0??InitializeBindings@FFI@1@SAXVEnv@Napi@@VObject@3@@Z@4HA 00000001800216bc f   ffi.obj
 0001:000206c8       ?dtor$30@?0??InitializeBindings@FFI@1@SAXVEnv@Napi@@VObject@3@@Z@4HA 00000001800216c8 f   ffi.obj
 0001:000206d4       ?dtor$31@?0??InitializeBindings@FFI@1@SAXVEnv@Napi@@VObject@3@@Z@4HA 00000001800216d4 f   ffi.obj
 0001:000206e0       ?dtor$32@?0??InitializeBindings@FFI@1@SAXVEnv@Napi@@VObject@3@@Z@4HA 00000001800216e0 f   ffi.obj
 0001:000206ec       ?dtor$33@?0??InitializeBindings@FFI@1@SAXVEnv@Napi@@VObject@3@@Z@4HA 00000001800216ec f   ffi.obj
 0001:000206f8       ?dtor$34@?0??InitializeBindings@FFI@1@SAXVEnv@Napi@@VObject@3@@Z@4HA 00000001800216f8 f   ffi.obj
 0001:00020704       ?dtor$35@?0??InitializeBindings@FFI@1@SAXVEnv@Napi@@VObject@3@@Z@4HA 0000000180021704 f   ffi.obj
 0001:00020710       ?dtor$36@?0??InitializeBindings@FFI@1@SAXVEnv@Napi@@VObject@3@@Z@4HA 0000000180021710 f   ffi.obj
 0001:0002071c       ?dtor$37@?0??InitializeBindings@FFI@1@SAXVEnv@Napi@@VObject@3@@Z@4HA 000000018002171c f   ffi.obj
 0001:00020728       ?dtor$38@?0??InitializeBindings@FFI@1@SAXVEnv@Napi@@VObject@3@@Z@4HA 0000000180021728 f   ffi.obj
 0001:00020734       ?dtor$39@?0??InitializeBindings@FFI@1@SAXVEnv@Napi@@VObject@3@@Z@4HA 0000000180021734 f   ffi.obj
 0001:00020740       ?dtor$40@?0??InitializeBindings@FFI@1@SAXVEnv@Napi@@VObject@3@@Z@4HA 0000000180021740 f   ffi.obj
 0001:0002074c       ?dtor$41@?0??InitializeBindings@FFI@1@SAXVEnv@Napi@@VObject@3@@Z@4HA 000000018002174c f   ffi.obj
 0001:00020758       ?dtor$42@?0??InitializeBindings@FFI@1@SAXVEnv@Napi@@VObject@3@@Z@4HA 0000000180021758 f   ffi.obj
 0001:00020770       ?dtor$1@?0??FFICallAsync@FFI@1@KAXAEBVCallbackInfo@Napi@@@Z@4HA 0000000180021770 f   ffi.obj
 0001:00020780       ?catch$0@?0??AsyncFFICall@FFI@1@KAXPEAUuv_work_s@@@Z@4HA 0000000180021780 f   ffi.obj
 0001:0002078d       __catch$?AsyncFFICall@FFI@1@KAXPEAUuv_work_s@@@Z$0 000000018002178d f   ffi.obj
 0001:000207d0       ?dtor$0@?0??FinishAsyncFFICall@FFI@1@KAXPEAUuv_work_s@@H@Z@4HA 00000001800217d0 f   ffi.obj
 0001:000207dc       ?dtor$1@?0??FinishAsyncFFICall@FFI@1@KAXPEAUuv_work_s@@H@Z@4HA 00000001800217dc f   ffi.obj
 0001:000207f0       ?dtor$0@?0??Init@@YA?AVObject@Napi@@VEnv@2@V12@@Z@4HA 00000001800217f0 f   ffi.obj
 0001:000207fc       ?dtor$1@?0??Init@@YA?AVObject@Napi@@VEnv@2@V12@@Z@4HA 00000001800217fc f   ffi.obj
 0001:00020810       ?catch$0@?0???$WrapCallback@V<lambda_8c7377a71108815b2eee34f099f4cb99>@@@details@Napi@@YAPEAUnapi_value__@@V<lambda_8c7377a71108815b2eee34f099f4cb99>@@@Z@4HA 0000000180021810 f   ffi.obj
 0001:0002081d       __catch$??$WrapCallback@V<lambda_8c7377a71108815b2eee34f099f4cb99>@@@details@Napi@@YAPEAUnapi_value__@@V<lambda_8c7377a71108815b2eee34f099f4cb99>@@@Z$0 000000018002181d f   ffi.obj
 0001:00020840       ?dtor$0@?0???R<lambda_4b130013be4a466940e6fe08d32cda83>@@QEBA?AVValue@Napi@@XZ@4HA 0000000180021840 f   ffi.obj
 0001:00020850       ?dtor$0@?0???$WrapCallback@V<lambda_03ec0e3e2a4187754bc7c97d0c48b30a>@@@details@Napi@@YAPEAUnapi_value__@@V<lambda_03ec0e3e2a4187754bc7c97d0c48b30a>@@@Z@4HA 0000000180021850 f   ffi.obj
 0001:0002085c       ?catch$2@?0???$WrapCallback@V<lambda_03ec0e3e2a4187754bc7c97d0c48b30a>@@@details@Napi@@YAPEAUnapi_value__@@V<lambda_03ec0e3e2a4187754bc7c97d0c48b30a>@@@Z@4HA 000000018002185c f   ffi.obj
 0001:00020869       __catch$??$WrapCallback@V<lambda_03ec0e3e2a4187754bc7c97d0c48b30a>@@@details@Napi@@YAPEAUnapi_value__@@V<lambda_03ec0e3e2a4187754bc7c97d0c48b30a>@@@Z$0 0000000180021869 f   ffi.obj
 0001:00020890       ?catch$1@?0???$WrapCallback@V<lambda_4b130013be4a466940e6fe08d32cda83>@@@details@Napi@@YAPEAUnapi_value__@@V<lambda_4b130013be4a466940e6fe08d32cda83>@@@Z@4HA 0000000180021890 f   ffi.obj
 0001:0002089d       __catch$??$WrapCallback@V<lambda_4b130013be4a466940e6fe08d32cda83>@@@details@Napi@@YAPEAUnapi_value__@@V<lambda_4b130013be4a466940e6fe08d32cda83>@@@Z$0 000000018002189d f   ffi.obj
 0001:000208c0       ?dtor$0@?0??Call@FunctionReference@Napi@@QEBA?AVValue@2@AEBV?$initializer_list@PEAUnapi_value__@@@std@@@Z@4HA 00000001800218c0 f   callback_info.obj
 0001:000208d0       ?dtor$0@?0??DispatchToV8@CallbackInfo@FFI@@KAXPEAUcallback_info@2@PEAXPEAPEAX_N@Z@4HA 00000001800218d0 f   callback_info.obj
 0001:000208dc       ?dtor$1@?0??DispatchToV8@CallbackInfo@FFI@@KAXPEAUcallback_info@2@PEAXPEAPEAX_N@Z@4HA 00000001800218dc f   callback_info.obj
 0001:000208e8       ?catch$3@?0??DispatchToV8@CallbackInfo@FFI@@KAXPEAUcallback_info@2@PEAXPEAPEAX_N@Z@4HA 00000001800218e8 f   callback_info.obj
 0001:000208f5       __catch$?DispatchToV8@CallbackInfo@FFI@@KAXPEAUcallback_info@2@PEAXPEAPEAX_N@Z$0 00000001800218f5 f   callback_info.obj
 0001:00020910       ?dtor$0@?0??Callback@CallbackInfo@FFI@@KA?AVValue@Napi@@AEBV14@@Z@4HA 0000000180021910 f   callback_info.obj
 0001:0002092f       ?dtor$1@?0??Callback@CallbackInfo@FFI@@KA?AVValue@Napi@@AEBV14@@Z@4HA 000000018002192f f   callback_info.obj
 0001:0002093b       ?dtor$2@?0??Callback@CallbackInfo@FFI@@KA?AVValue@Napi@@AEBV14@@Z@4HA 000000018002193b f   callback_info.obj
 0001:00020947       ?dtor$3@?0??Callback@CallbackInfo@FFI@@KA?AVValue@Napi@@AEBV14@@Z@4HA 0000000180021947 f   callback_info.obj
 0001:00020960       ?dtor$1@?0??Invoke@CallbackInfo@FFI@@KAXPEAUffi_cif@@PEAXPEAPEAX1@Z@4HA 0000000180021960 f   callback_info.obj
 0001:00020970       ?dtor$0@?0??Initialize@CallbackInfo@FFI@@SA?AVFunction@Napi@@VEnv@4@@Z@4HA 0000000180021970 f   callback_info.obj
 0001:0002098d       ?dtor$1@?0??Initialize@CallbackInfo@FFI@@SA?AVFunction@Napi@@VEnv@4@@Z@4HA 000000018002198d f   callback_info.obj
 0001:000209a0       ?dtor$1@?0???0?$unordered_map@PEAUnapi_env__@@V?$unique_ptr@UPerEnvironmentData@FFI@@U?$default_delete@UPerEnvironmentData@FFI@@@std@@@std@@U?$hash@PEAUnapi_env__@@@3@U?$equal_to@PEAUnapi_env__@@@3@V?$allocator@U?$pair@QEAUnapi_env__@@V?$unique_ptr@UPerEnvironmentData@FFI@@U?$default_delete@UPerEnvironmentData@FFI@@@std@@@std@@@std@@@3@@std@@QEAA@XZ@4HA 00000001800219a0 f   callback_info.obj
 0001:000209b0       ?dtor$2@?0???0?$unordered_map@PEAUnapi_env__@@V?$unique_ptr@UPerEnvironmentData@FFI@@U?$default_delete@UPerEnvironmentData@FFI@@@std@@@std@@U?$hash@PEAUnapi_env__@@@3@U?$equal_to@PEAUnapi_env__@@@3@V?$allocator@U?$pair@QEAUnapi_env__@@V?$unique_ptr@UPerEnvironmentData@FFI@@U?$default_delete@UPerEnvironmentData@FFI@@@std@@@std@@@std@@@3@@std@@QEAA@XZ@4HA 00000001800219b0 f   callback_info.obj
 0001:000209c0       __scrt_is_nonwritable_in_current_image$filt$0 00000001800219c0 f   LIBCMT:utility.obj
 0001:000209d8       ?fin$0@?0??dllmain_crt_process_attach@@YAHQEAUHINSTANCE__@@QEAX@Z@4HA 00000001800219d8 f   LIBCMT:dll_dllmain.obj
 0001:000209ef       ?fin$0@?0??dllmain_crt_process_detach@@YAH_N@Z@4HA 00000001800219ef f   LIBCMT:dll_dllmain.obj
 0001:00020a0b       ?filt$0@?0??dllmain_dispatch@@YAHQEAUHINSTANCE__@@KQEAX@Z@4HA 0000000180021a0b f   LIBCMT:dll_dllmain.obj
 0001:00020a41       __CxxCallCatchBlock$filt$0 0000000180021a41 f   libvcruntime:frame.obj
 0001:00020a66       __CxxCallCatchBlock$fin$1  0000000180021a66 f   libvcruntime:frame.obj
 0001:00020ade       __DestructExceptionObject$filt$0 0000000180021ade f   libvcruntime:frame.obj
 0001:00020af6       __FrameUnwindToState$filt$0 0000000180021af6 f   libvcruntime:frame.obj
 0001:00020b0c       __FrameUnwindToState$fin$1 0000000180021b0c f   libvcruntime:frame.obj
 0001:00020b2f       _CallSETranslator$filt$0   0000000180021b2f f   libvcruntime:trnsctrl.obj
 0001:00020b7b       _query_new_handler$fin$0   0000000180021b7b f   libucrt:new_handler.obj
 0001:00020b91       ?filt$0@?0??common_exit@@YAXHW4_crt_exit_cleanup_mode@@W4_crt_exit_return_mode@@@Z@4HA 0000000180021b91 f   libucrt:exit.obj
 0001:00020bac       ?fin$1@?0??common_exit@@YAXHW4_crt_exit_cleanup_mode@@W4_crt_exit_return_mode@@@Z@4HA 0000000180021bac f   libucrt:exit.obj
 0001:00020bc5       ?fin$0@?0???$?RV<lambda_e24bbb7b643b32fcea6fa61b31d4c984>@@AEAV<lambda_275893d493268fdec8709772e3fcec0e>@@V<lambda_9d71df4d7cf3f480f8d633942495c3b0>@@@?$__crt_seh_guarded_call@H@@QEAAH$$QEAV<lambda_e24bbb7b643b32fcea6fa61b31d4c984>@@AEAV<lambda_275893d493268fdec8709772e3fcec0e>@@$$QEAV<lambda_9d71df4d7cf3f480f8d633942495c3b0>@@@Z@4HA 0000000180021bc5 f   libucrt:onexit.obj
 0001:00020be2       ?fin$0@?0???$?RV<lambda_b8c45f8f788dd370798f47cfe8ac3a86>@@AEAV<lambda_4e60a939b0d047cfe11ddc22648dfba9>@@V<lambda_332c3edc96d0294ec56c57d38c1cdfd5>@@@?$__crt_seh_guarded_call@H@@QEAAH$$QEAV<lambda_b8c45f8f788dd370798f47cfe8ac3a86>@@AEAV<lambda_4e60a939b0d047cfe11ddc22648dfba9>@@$$QEAV<lambda_332c3edc96d0294ec56c57d38c1cdfd5>@@@Z@4HA 0000000180021be2 f   libucrt:onexit.obj
 0001:00020be2       ?fin$0@?0???$?RV<lambda_99476a1ad63dd22509b5d3e65b0ffc95>@@AEAV<lambda_ad1ced32f4ac17aa236e5ef05d6b3b7c>@@V<lambda_f7424dd8d45958661754dc4f2697e9c3>@@@?$__crt_seh_guarded_call@X@@QEAAX$$QEAV<lambda_99476a1ad63dd22509b5d3e65b0ffc95>@@AEAV<lambda_ad1ced32f4ac17aa236e5ef05d6b3b7c>@@$$QEAV<lambda_f7424dd8d45958661754dc4f2697e9c3>@@@Z@4HA 0000000180021be2 f   libucrt:mbctype.obj
 0001:00020be2       ?fin$0@?0???$?RV<lambda_fb3a7dec4e47f37f22dae91bb15c9095>@@AEAV<lambda_698284760c8add0bfb0756c19673e34b>@@V<lambda_dfb8eca1e75fef3034a8fb18dd509707>@@@?$__crt_seh_guarded_call@X@@QEAAX$$QEAV<lambda_fb3a7dec4e47f37f22dae91bb15c9095>@@AEAV<lambda_698284760c8add0bfb0756c19673e34b>@@$$QEAV<lambda_dfb8eca1e75fef3034a8fb18dd509707>@@@Z@4HA 0000000180021be2 f   libucrt:per_thread_data.obj
 0001:00020be2       ?fin$0@?0???$?RV<lambda_46352004c1216016012b18bd6f87e700>@@AEAV<lambda_3bd07e1a1191394380780325891bf33f>@@V<lambda_334532d3f185bcaa59b5be82d7d22bff>@@@?$__crt_seh_guarded_call@X@@QEAAX$$QEAV<lambda_46352004c1216016012b18bd6f87e700>@@AEAV<lambda_3bd07e1a1191394380780325891bf33f>@@$$QEAV<lambda_334532d3f185bcaa59b5be82d7d22bff>@@@Z@4HA 0000000180021be2 f   libucrt:per_thread_data.obj
 0001:00020be2       ?fin$0@?0???$?RV<lambda_c36588078e9f5dfd39652860aa6b3aaf>@@AEAV<lambda_ec61778202f4f5fc7e7711acc23c3bca>@@V<lambda_dc9d2797ccde5d239b4a0efae8ebd7db>@@@?$__crt_seh_guarded_call@P6AXH@Z@@QEAAP6AXH@Z$$QEAV<lambda_c36588078e9f5dfd39652860aa6b3aaf>@@AEAV<lambda_ec61778202f4f5fc7e7711acc23c3bca>@@$$QEAV<lambda_dc9d2797ccde5d239b4a0efae8ebd7db>@@@Z@4HA 0000000180021be2 f   libucrt:signal.obj
 0001:00020be2       ?fin$0@?0???$?RV<lambda_72d1df2b273a38828b1ce30cbf4cdab5>@@AEAV<lambda_876a65b173b8412d3a47c70a915b0cf4>@@V<lambda_41932305e351933ebe8f8be3ed8bb5dc>@@@?$__crt_seh_guarded_call@X@@QEAAX$$QEAV<lambda_72d1df2b273a38828b1ce30cbf4cdab5>@@AEAV<lambda_876a65b173b8412d3a47c70a915b0cf4>@@$$QEAV<lambda_41932305e351933ebe8f8be3ed8bb5dc>@@@Z@4HA 0000000180021be2 f   libucrt:per_thread_data.obj
 0001:00020be2       ?fin$0@?0???$?RV<lambda_5e887d1dcbef67a5eb4283622ba103bf>@@AEAV<lambda_4466841279450cc726390878d4a41900>@@V<lambda_341c25c0346d94847f1f3c463c57e077>@@@?$__crt_seh_guarded_call@X@@QEAAX$$QEAV<lambda_5e887d1dcbef67a5eb4283622ba103bf>@@AEAV<lambda_4466841279450cc726390878d4a41900>@@$$QEAV<lambda_341c25c0346d94847f1f3c463c57e077>@@@Z@4HA 0000000180021be2 f   libucrt:per_thread_data.obj
 0001:00020bfc       common_flush_all$fin$0     0000000180021bfc f   libucrt:fflush.obj
 0001:00020c16       common_flush_all$fin$1     0000000180021c16 f   libucrt:fflush.obj
 0001:00020c2f       fclose$fin$0               0000000180021c2f f   libucrt:fclose.obj
 0001:00020c2f       fflush$fin$0               0000000180021c2f f   libucrt:fflush.obj
 0001:00020c47       ?fin$0@?0???$?RV<lambda_7b91131dde12e1c3dfc74ff76b3f2eac>@@AEAV<lambda_dd75445284c072d0bd3768540cc698fa>@@V<lambda_16bc4ecb55b4718497c16bceaea2ceaf>@@@?$__crt_seh_guarded_call@H@@QEAAH$$QEAV<lambda_7b91131dde12e1c3dfc74ff76b3f2eac>@@AEAV<lambda_dd75445284c072d0bd3768540cc698fa>@@$$QEAV<lambda_16bc4ecb55b4718497c16bceaea2ceaf>@@@Z@4HA 0000000180021c47 f   libucrt:output.obj
 0001:00020c47       ?fin$0@?0???$?RV<lambda_7a5ef57ff966f610505f1d28a3d40618>@@AEAV<lambda_b721fa326cdb32351d23dfa67958c160>@@V<lambda_5e0fb27672408a07956fe59e48ccb2aa>@@@?$__crt_seh_guarded_call@H@@QEAAH$$QEAV<lambda_7a5ef57ff966f610505f1d28a3d40618>@@AEAV<lambda_b721fa326cdb32351d23dfa67958c160>@@$$QEAV<lambda_5e0fb27672408a07956fe59e48ccb2aa>@@@Z@4HA 0000000180021c47 f   libucrt:setvbuf.obj
 0001:00020c62       raise$fin$0                0000000180021c62 f   libucrt:signal.obj
 0001:00020c86       __acrt_update_thread_multibyte_data$fin$0 0000000180021c86 f   libucrt:mbctype.obj
 0001:00020c9f       __acrt_update_thread_locale_data$fin$0 0000000180021c9f f   libucrt:locale_refcounting.obj
 0001:00020c9f       __acrt_uninitialize_locale$fin$0 0000000180021c9f f   libucrt:wsetlocale.obj
 0001:00020cb8       _fcloseall$fin$0           0000000180021cb8 f   libucrt:closeall.obj
 0001:00020cd1       ?fin$0@?0???$common_lseek@_J@@YA_JH_JH@Z@4HA 0000000180021cd1 f   libucrt:lseek.obj
 0001:00020cd1       _write$fin$0               0000000180021cd1 f   libucrt:write.obj
 0001:00020ce8       __acrt_lowio_ensure_fh_exists$fin$0 0000000180021ce8 f   libucrt:osfinfo.obj
 0001:00020ce8       __acrt_initialize_lowio$fin$0 0000000180021ce8 f   libucrt:ioinit.obj
 0001:00020d01       ?fin$0@?0???$?RV<lambda_b521505b218e5242e90febf6bfebc422>@@AEAV<lambda_6978c1fb23f02e42e1d9e99668cc68aa>@@V<lambda_314360699dd331753a4119843814e9a7>@@@?$__crt_seh_guarded_call@H@@QEAAH$$QEAV<lambda_b521505b218e5242e90febf6bfebc422>@@AEAV<lambda_6978c1fb23f02e42e1d9e99668cc68aa>@@$$QEAV<lambda_314360699dd331753a4119843814e9a7>@@@Z@4HA 0000000180021d01 f   libucrt:commit.obj
 0001:00020d01       ?fin$0@?0???$?RV<lambda_bfedae4ebbf01fab1bb6dcc6a9e276e0>@@AEAV<lambda_2fe9b910cf3cbf4a0ab98a02ba45b3ec>@@V<lambda_237c231691f317818eb88cc1d5d642d6>@@@?$__crt_seh_guarded_call@H@@QEAAH$$QEAV<lambda_bfedae4ebbf01fab1bb6dcc6a9e276e0>@@AEAV<lambda_2fe9b910cf3cbf4a0ab98a02ba45b3ec>@@$$QEAV<lambda_237c231691f317818eb88cc1d5d642d6>@@@Z@4HA 0000000180021d01 f   libucrt:close.obj
 0001:00020d1b       common_control87$filt$0    0000000180021d1b f   libucrt:ieee.obj
 0001:00020d1b       _ctrlfp$filt$0             0000000180021d1b f   libucrt:fpctrl.obj
 0001:00020d50       _IsNonwritableInCurrentImage$filt$0 0000000180021d50 f   LIBCMT:pesect.obj
 0001:00020d70       ??__F?per_environment@CallbackInfo@FFI@@0V?$unordered_map@PEAUnapi_env__@@V?$unique_ptr@UPerEnvironmentData@FFI@@U?$default_delete@UPerEnvironmentData@FFI@@@std@@@std@@U?$hash@PEAUnapi_env__@@@3@U?$equal_to@PEAUnapi_env__@@@3@V?$allocator@U?$pair@QEAUnapi_env__@@V?$unique_ptr@UPerEnvironmentData@FFI@@U?$default_delete@UPerEnvironmentData@FFI@@@std@@@std@@@std@@@3@@std@@A@@YAXXZ 0000000180021d70 f   callback_info.obj
 0002:000002b8       ??per_environment$initializer$@CallbackInfo@FFI@@0P6AXXZEA@@3P6AXXZEA 00000001800222b8     callback_info.obj
 0002:000003f8       GS_ExceptionPointers       00000001800223f8     LIBCMT:gs_report.obj
 0002:00000470       ?ExceptionTemplate@?1??_CxxThrowException@@9@4UEHExceptionRecord@@B 0000000180022470     libvcruntime:throw.obj
 0002:000004b0       ?ExceptionTemplate@?1??_UnwindNestedFrames@@9@4U_EXCEPTION_RECORD@@B 00000001800224b0     libvcruntime:trnsctrl.obj
 0002:00000548       ?module_names@?A0x679b24ab@@3QBQEB_WB 0000000180022548     libvcruntime:winapi_downlevel.obj
 0002:00000618       ?candidate_modules@?1??try_get_FlsAlloc@@YAP6AKP6AXPEAX@Z@ZXZ@4QBW4module_id@?A0x679b24ab@@B 0000000180022618     libvcruntime:winapi_downlevel.obj
 0002:00000630       ?candidate_modules@?1??try_get_FlsFree@@YAP6AHK@ZXZ@4QBW4module_id@?A0x679b24ab@@B 0000000180022630     libvcruntime:winapi_downlevel.obj
 0002:00000640       ?candidate_modules@?1??try_get_FlsGetValue@@YAP6APEAXK@ZXZ@4QBW4module_id@?A0x679b24ab@@B 0000000180022640     libvcruntime:winapi_downlevel.obj
 0002:00000658       ?candidate_modules@?1??try_get_FlsSetValue@@YAP6AHKPEAX@ZXZ@4QBW4module_id@?A0x679b24ab@@B 0000000180022658     libvcruntime:winapi_downlevel.obj
 0002:00000670       ?candidate_modules@?1??try_get_InitializeCriticalSectionEx@@YAP6AHPEAU_RTL_CRITICAL_SECTION@@KK@ZXZ@4QBW4module_id@?A0x679b24ab@@B 0000000180022670     libvcruntime:winapi_downlevel.obj
 0002:000006a0       ?tokenTable@@3QBQEBDB      00000001800226a0     libvcruntime:undname.obj
 0002:00000710       ?nameTable@@3QBQEBDB       0000000180022710     libvcruntime:undname.obj
 0002:00000998       ?rttiTable@@3QBQEBDB       0000000180022998     libvcruntime:undname.obj
 0002:00001020       errtable                   0000000180023020     libucrt:errno.obj
 0002:000015f0       __acrt_initializers        00000001800235f0     libucrt:initialization.obj
 0002:00001dc0       module_names               0000000180023dc0     libucrt:winapi_thunks.obj
 0002:000022f0       ?candidate_modules@?1??try_get_FlsAlloc@@YAP6AKP6AXPEAX@Z@ZXZ@4QBW4module_id@?A0x63058377@@B 00000001800242f0     libucrt:winapi_thunks.obj
 0002:000022f8       ?candidate_modules@?1??try_get_FlsFree@@YAP6AHK@ZXZ@4QBW4module_id@?A0x63058377@@B 00000001800242f8     libucrt:winapi_thunks.obj
 0002:00002300       ?candidate_modules@?1??try_get_FlsGetValue@@YAP6APEAXK@ZXZ@4QBW4module_id@?A0x63058377@@B 0000000180024300     libucrt:winapi_thunks.obj
 0002:00002308       ?candidate_modules@?1??try_get_FlsSetValue@@YAP6AHKPEAX@ZXZ@4QBW4module_id@?A0x63058377@@B 0000000180024308     libucrt:winapi_thunks.obj
 0002:00002310       ?candidate_modules@?1??try_get_GetActiveWindow@@YAP6APEAUHWND__@@XZXZ@4QBW4module_id@?A0x63058377@@B 0000000180024310     libucrt:winapi_thunks.obj
 0002:00002328       ?candidate_modules@?1??try_get_GetCurrentPackageId@@YAP6AJPEAIPEAE@ZXZ@4QBW4module_id@?A0x63058377@@B 0000000180024328     libucrt:winapi_thunks.obj
 0002:00002348       ?candidate_modules@?1??try_get_GetLastActivePopup@@YAP6APEAUHWND__@@PEAU2@@ZXZ@4QBW4module_id@?A0x63058377@@B 0000000180024348     libucrt:winapi_thunks.obj
 0002:00002368       ?candidate_modules@?1??try_get_GetProcessWindowStation@@YAP6APEAUHWINSTA__@@XZXZ@4QBW4module_id@?A0x63058377@@B 0000000180024368     libucrt:winapi_thunks.obj
 0002:00002388       ?candidate_modules@?1??try_get_GetUserObjectInformationW@@YAP6AHPEAXH0KPEAK@ZXZ@4QBW4module_id@?A0x63058377@@B 0000000180024388     libucrt:winapi_thunks.obj
 0002:000023b0       ?candidate_modules@?1??try_get_InitializeCriticalSectionEx@@YAP6AHPEAU_RTL_CRITICAL_SECTION@@KK@ZXZ@4QBW4module_id@?A0x63058377@@B 00000001800243b0     libucrt:winapi_thunks.obj
 0002:000023b8       ?candidate_modules@?1??try_get_LCMapStringEx@@YAP6AHPEB_WK0HPEA_WHPEAU_nlsversioninfo@@PEAX_J@ZXZ@4QBW4module_id@?A0x63058377@@B 00000001800243b8     libucrt:winapi_thunks.obj
 0002:000023d0       ?candidate_modules@?1??try_get_LocaleNameToLCID@@YAP6AKPEB_WK@ZXZ@4QBW4module_id@?A0x63058377@@B 00000001800243d0     libucrt:winapi_thunks.obj
 0002:000023f0       ?candidate_modules@?1??try_get_MessageBoxA@@YAP6AHPEAUHWND__@@PEBD1I@ZXZ@4QBW4module_id@?A0x63058377@@B 00000001800243f0     libucrt:winapi_thunks.obj
 0002:00002408       ?candidate_modules@?1??try_get_MessageBoxW@@YAP6AHPEAUHWND__@@PEB_W1I@ZXZ@4QBW4module_id@?A0x63058377@@B 0000000180024408     libucrt:winapi_thunks.obj
 0002:00002420       _mb_locale_names           0000000180024420     libucrt:mbctype.obj
 0002:00003690       LcidToLocaleNameTable      0000000180025690     libucrt:lcidtoname_downlevel.obj
 0002:000050f0       LocaleNameToIndexTable     00000001800270f0     libucrt:lcidtoname_downlevel.obj
 0002:00006990       __real_ninf                0000000180028990     libucrt:log10.obj
 0002:000069a0       __real_inf                 00000001800289a0     libucrt:log10.obj
 0002:000069b0       __real_neg_qnan            00000001800289b0     libucrt:log10.obj
 0002:000069c0       __real_qnanbit             00000001800289c0     libucrt:log10.obj
 0002:000069d0       __int_1023                 00000001800289d0     libucrt:log10.obj
 0002:000069e0       __mask_001                 00000001800289e0     libucrt:log10.obj
 0002:000069f0       __mask_mant                00000001800289f0     libucrt:log10.obj
 0002:00006a00       __mask_mant_top8           0000000180028a00     libucrt:log10.obj
 0002:00006a10       __mask_mant9               0000000180028a10     libucrt:log10.obj
 0002:00006a20       __real_log10_e             0000000180028a20     libucrt:log10.obj
 0002:00006a30       __real_log10_e_lead        0000000180028a30     libucrt:log10.obj
 0002:00006a40       __real_log10_e_tail        0000000180028a40     libucrt:log10.obj
 0002:00006a50       __real_log10_2_lead        0000000180028a50     libucrt:log10.obj
 0002:00006a60       __real_log10_2_tail        0000000180028a60     libucrt:log10.obj
 0002:00006a70       __real_two                 0000000180028a70     libucrt:log10.obj
 0002:00006a80       __real_one                 0000000180028a80     libucrt:log10.obj
 0002:00006a90       __real_half                0000000180028a90     libucrt:log10.obj
 0002:00006aa0       __mask_100                 0000000180028aa0     libucrt:log10.obj
 0002:00006ab0       __real_1_over_512          0000000180028ab0     libucrt:log10.obj
 0002:00006ac0       __real_1_over_2            0000000180028ac0     libucrt:log10.obj
 0002:00006ad0       __real_1_over_3            0000000180028ad0     libucrt:log10.obj
 0002:00006ae0       __real_1_over_4            0000000180028ae0     libucrt:log10.obj
 0002:00006af0       __real_1_over_5            0000000180028af0     libucrt:log10.obj
 0002:00006b00       __real_1_over_6            0000000180028b00     libucrt:log10.obj
 0002:00006b10       __real_neg_1023            0000000180028b10     libucrt:log10.obj
 0002:00006b20       __mask_2045                0000000180028b20     libucrt:log10.obj
 0002:00006b30       __real_threshold           0000000180028b30     libucrt:log10.obj
 0002:00006b40       __real_near_one_lt         0000000180028b40     libucrt:log10.obj
 0002:00006b50       __real_near_one_gt         0000000180028b50     libucrt:log10.obj
 0002:00006b60       __real_min_norm            0000000180028b60     libucrt:log10.obj
 0002:00006b70       __real_notsign             0000000180028b70     libucrt:log10.obj
 0002:00006b80       __real_ca1                 0000000180028b80     libucrt:log10.obj
 0002:00006b90       __real_ca2                 0000000180028b90     libucrt:log10.obj
 0002:00006ba0       __real_ca3                 0000000180028ba0     libucrt:log10.obj
 0002:00006bb0       __real_ca4                 0000000180028bb0     libucrt:log10.obj
 0002:00006bc0       __mask_lower               0000000180028bc0     libucrt:log10.obj
 0002:00006bd0       __flag_x_zero              0000000180028bd0     libucrt:log10.obj
 0002:00006bd4       __flag_x_neg               0000000180028bd4     libucrt:log10.obj
 0002:00006bd8       __flag_x_nan               0000000180028bd8     libucrt:log10.obj
 0002:00008430       __real@433fffffffffffff    000000018002a430     libucrt:fpsr.obj
 0002:00008438       __real@c33fffffffffffff    000000018002a438     libucrt:fpsr.obj
 0002:00008ce0       ?piecewise_construct@std@@3Upiecewise_construct_t@1@B 000000018002ace0     callback_info.obj
 0002:00008e30       $cppxdata$??$WrapCallback@V<lambda_4b130013be4a466940e6fe08d32cda83>@@@details@Napi@@YAPEAUnapi_value__@@V<lambda_4b130013be4a466940e6fe08d32cda83>@@@Z 000000018002ae30     ffi.obj
 0002:00008e58       $cppxdata$??$WrapCallback@V<lambda_03ec0e3e2a4187754bc7c97d0c48b30a>@@@details@Napi@@YAPEAUnapi_value__@@V<lambda_03ec0e3e2a4187754bc7c97d0c48b30a>@@@Z 000000018002ae58     ffi.obj
 0002:00008e80       $cppxdata$??R<lambda_4b130013be4a466940e6fe08d32cda83>@@QEBA?AVValue@Napi@@XZ 000000018002ae80     ffi.obj
 0002:00008ea8       $cppxdata$??$WrapCallback@V<lambda_8c7377a71108815b2eee34f099f4cb99>@@@details@Napi@@YAPEAUnapi_value__@@V<lambda_8c7377a71108815b2eee34f099f4cb99>@@@Z 000000018002aea8     ffi.obj
 0002:00008ed0       $cppxdata$??0?$Reference@VObject@Napi@@@Napi@@IEAA@AEBV01@@Z 000000018002aed0     ffi.obj
 0002:00008ef8       $cppxdata$?Init@@YA?AVObject@Napi@@VEnv@2@V12@@Z 000000018002aef8     ffi.obj
 0002:00008f20       $cppxdata$?FinishAsyncFFICall@FFI@1@KAXPEAUuv_work_s@@H@Z 000000018002af20     ffi.obj
 0002:00008f48       $cppxdata$?AsyncFFICall@FFI@1@KAXPEAUuv_work_s@@@Z 000000018002af48     ffi.obj
 0002:00008f70       $cppxdata$?FFICallAsync@FFI@1@KAXAEBVCallbackInfo@Napi@@@Z 000000018002af70     ffi.obj
 0002:00008f98       $cppxdata$?InitializeBindings@FFI@1@SAXVEnv@Napi@@VObject@3@@Z 000000018002af98     ffi.obj
 0002:00008fc0       $cppxdata$?InitializeStaticFunctions@FFI@1@SA?AVObject@Napi@@VEnv@3@@Z 000000018002afc0     ffi.obj
 0002:00008fe8       $cppxdata$?MakeCallback@FunctionReference@Napi@@QEBA?AVValue@2@PEAUnapi_value__@@AEBV?$vector@PEAUnapi_value__@@V?$allocator@PEAUnapi_value__@@@std@@@std@@PEAUnapi_async_context__@@@Z 000000018002afe8     ffi.obj
 0002:00008fe8       $cppxdata$?MakeCallback@FunctionReference@Napi@@QEBA?AVValue@2@PEAUnapi_value__@@AEBV?$initializer_list@PEAUnapi_value__@@@std@@PEAUnapi_async_context__@@@Z 000000018002afe8     callback_info.obj
 0002:00009010       $cppxdata$?Get@ObjectReference@Napi@@QEBA?AVValue@2@PEBD@Z 000000018002b010     ffi.obj
 0002:00009038       $cppxdata$?ThrowAsJavaScriptException@Error@Napi@@QEBAXXZ 000000018002b038     ffi.obj
 0002:00009060       $cppxdata$?Message@Error@Napi@@QEBAAEBV?$basic_string@DU?$char_traits@D@std@@V?$allocator@D@2@@std@@XZ 000000018002b060     ffi.obj
 0002:00009088       $cppxdata$??AObject@Napi@@QEAA?AV?$PropertyLValue@V?$basic_string@DU?$char_traits@D@std@@V?$allocator@D@2@@std@@@01@PEBD@Z 000000018002b088     ffi.obj
 0002:000090b0       $cppxdata$?Utf8Value@String@Napi@@QEBA?AV?$basic_string@DU?$char_traits@D@std@@V?$allocator@D@2@@std@@XZ 000000018002b0b0     ffi.obj
 0002:00009110       $cppxdata$??0?$unordered_map@PEAUnapi_env__@@V?$unique_ptr@UPerEnvironmentData@FFI@@U?$default_delete@UPerEnvironmentData@FFI@@@std@@@std@@U?$hash@PEAUnapi_env__@@@3@U?$equal_to@PEAUnapi_env__@@@3@V?$allocator@U?$pair@QEAUnapi_env__@@V?$unique_ptr@UPerEnvironmentData@FFI@@U?$default_delete@UPerEnvironmentData@FFI@@@std@@@std@@@std@@@3@@std@@QEAA@XZ 000000018002b110     callback_info.obj
 0002:00009138       $cppxdata$?Invoke@CallbackInfo@FFI@@KAXPEAUffi_cif@@PEAXPEAPEAX1@Z 000000018002b138     callback_info.obj
 0002:00009160       $cppxdata$?Callback@CallbackInfo@FFI@@KA?AVValue@Napi@@AEBV14@@Z 000000018002b160     callback_info.obj
 0002:00009188       $cppxdata$?DispatchToV8@CallbackInfo@FFI@@KAXPEAUcallback_info@2@PEAXPEAPEAX_N@Z 000000018002b188     callback_info.obj
 0002:000091b0       $cppxdata$?closure_pointer_cb@FFI@@YAXVEnv@Napi@@PEADPEAX@Z 000000018002b1b0     callback_info.obj
 0002:000091d8       $cppxdata$?Call@FunctionReference@Napi@@QEBA?AVValue@2@AEBV?$initializer_list@PEAUnapi_value__@@@std@@@Z 000000018002b1d8     callback_info.obj
 0002:00009200       $cppxdata$?Set@ObjectReference@Napi@@QEAAXPEBDVValue@2@@Z 000000018002b200     callback_info.obj
 0002:00009228       $cppxdata$?Initialize@CallbackInfo@FFI@@SA?AVFunction@Napi@@VEnv@4@@Z 000000018002b228     callback_info.obj
 0002:00009b00       $unwind$__acrt_stdio_allocate_buffer_nolock 000000018002bb00     libucrt:_getbuf.obj
 0002:00009b00       $unwind$_SetThrowImageBase 000000018002bb00     libvcruntime:trnsctrl.obj
 0002:00009b00       $unwind$_SetImageBase      000000018002bb00     libvcruntime:trnsctrl.obj
 0002:00009b00       $unwind$__acrt_uninitialize_stdio 000000018002bb00     libucrt:_file.obj
 0002:00009b00       $unwind$__acrt_stdio_free_buffer_nolock 000000018002bb00     libucrt:_freebuf.obj
 0002:00009b00       $unwind$?get_uv_event_loop@@YAPEAUuv_loop_s@@PEAUnapi_env__@@@Z 000000018002bb00     ffi.obj
 0002:00009b00       $unwind$_onexit            000000018002bb00     LIBCMT:utility.obj
 0002:00009b00       $unwind$__acrt_freeptd     000000018002bb00     libucrt:per_thread_data.obj
 0002:00009b00       $unwind$__acrt_uninitialize_locks 000000018002bb00     libucrt:locks.obj
 0002:00009b00       $unwind$_clearfp           000000018002bb00     libucrt:ieee.obj
 0002:00009b00       $unwind$??1?$Reference@VFunction@Napi@@@Napi@@QEAA@XZ 000000018002bb00     ffi.obj
 0002:00009b00       $unwind$??0ObjectReference@Napi@@IEAA@AEBV01@@Z 000000018002bb00     ffi.obj
 0002:00009b00       $unwind$??1TypeError@Napi@@UEAA@XZ 000000018002bb00     ffi.obj
 0002:00009b00       $unwind$??2@YAPEAX_K@Z     000000018002bb00     LIBCMT:new_scalar.obj
 0002:00009b00       $unwind$__acrt_initialize_locks 000000018002bb00     libucrt:locks.obj
 0002:00009b00       $unwind$_CreateFrameInfo   000000018002bb00     libvcruntime:trnsctrl.obj
 0002:00009b00       $unwind$??0bad_array_new_length@std@@QEAA@AEBV01@@Z 000000018002bb00     LIBCMT:throw_bad_alloc.obj
 0002:00009b00       $unwind$_clrfp             000000018002bb00     libucrt:fpctrl.obj
 0002:00009b00       $unwind$?exit_or_terminate_process@@YAXI@Z 000000018002bb00     libucrt:exit.obj
 0002:00009b00       $unwind$??_Gtype_info@@UEAAPEAXI@Z 000000018002bb00     LIBCMT:std_type_info_static.obj
 0002:00009b00       $unwind$_set_statfp        000000018002bb00     libucrt:fpctrl.obj
 0002:00009b00       $unwind$?__GetUnwindTryBlock@@YAHPEA_KPEAU_xDISPATCHER_CONTEXT@@PEBU_s_FuncInfo@@@Z 000000018002bb00     libvcruntime:ehstate.obj
 0002:00009b00       $unwind$__acrt_update_multibyte_info 000000018002bb00     libucrt:locale_update.obj
 0002:00009b00       $unwind$__scrt_release_startup_lock 000000018002bb00     LIBCMT:utility.obj
 0002:00009b00       $unwind$__scrt_initialize_crt 000000018002bb00     LIBCMT:utility.obj
 0002:00009b00       $unwind$__raise_securityfailure 000000018002bb00     LIBCMT:gs_report.obj
 0002:00009b00       $unwind$strcpy_s           000000018002bb00     libucrt:strcpy_s.obj
 0002:00009b00       $unwind$__acrt_can_show_message_box 000000018002bb00     libucrt:winapi_thunks.obj
 0002:00009b00       $unwind$wcscat_s           000000018002bb00     libucrt:wcscat_s.obj
 0002:00009b00       $unwind$wcscpy_s           000000018002bb00     libucrt:wcscpy_s.obj
 0002:00009b00       $unwind$_calloc_base       000000018002bb00     libucrt:calloc_base.obj
 0002:00009b00       $unwind$dlsym              000000018002bb00     win32-dlfcn.obj
 0002:00009b00       $unwind$fegetenv           000000018002bb00     libucrt:fegetenv.obj
 0002:00009b00       $unwind$__scrt_uninitialize_crt 000000018002bb00     LIBCMT:utility.obj
 0002:00009b00       $unwind$feholdexcept       000000018002bb00     libucrt:feholdexcept.obj
 0002:00009b00       $unwind$??$message_box_wait_thread@_W@@YAKQEAX@Z 000000018002bb00     libucrt:crtmbox.obj
 0002:00009b00       $unwind$_fflush_nolock     000000018002bb00     libucrt:fflush.obj
 0002:00009b00       $unwind$__acrt_allocate_buffer_for_argv 000000018002bb00     libucrt:argv_parsing.obj
 0002:00009b00       $unwind$fesetenv           000000018002bb00     libucrt:fesetenv.obj
 0002:00009b00       $unwind$??0out_of_range@std@@QEAA@AEBV01@@Z 000000018002bb00     libcpmt:xthrow.obj
 0002:00009b00       $unwind$?__StateFromIp@@YAHPEBU_s_FuncInfo@@PEAU_xDISPATCHER_CONTEXT@@_J@Z 000000018002bb00     libvcruntime:ehstate.obj
 0002:00009b00       $unwind$initialize_pointers 000000018002bb00     libucrt:initialization.obj
 0002:00009b00       $unwind$??0length_error@std@@QEAA@AEBV01@@Z 000000018002bb00     libcpmt:xthrow.obj
 0002:00009b00       $unwind$??1?$list@U?$pair@QEAUnapi_env__@@V?$unique_ptr@UPerEnvironmentData@FFI@@U?$default_delete@UPerEnvironmentData@FFI@@@std@@@std@@@std@@V?$allocator@U?$pair@QEAUnapi_env__@@V?$unique_ptr@UPerEnvironmentData@FFI@@U?$default_delete@UPerEnvironmentData@FFI@@@std@@@std@@@std@@@2@@std@@QEAA@XZ 000000018002bb00     callback_info.obj
 0002:00009b00       $unwind$_setfpstatusword   000000018002bb00     libucrt:_fenvutils.obj
 0002:00009b00       $unwind$?WrapperWithHint@?$FinalizeData@DP6AXVEnv@Napi@@PEADPEAX@ZUcallback_info@FFI@@@details@Napi@@SAXPEAUnapi_env__@@PEAX1@Z 000000018002bb00     callback_info.obj
 0002:00009b00       $unwind$?_Tidy@?$vector@V?$_List_unchecked_iterator@V?$_List_val@U?$_List_simple_types@U?$pair@QEAUnapi_env__@@V?$unique_ptr@UPerEnvironmentData@FFI@@U?$default_delete@UPerEnvironmentData@FFI@@@std@@@std@@@std@@@std@@@std@@@std@@U?$_Wrap_alloc@V?$allocator@V?$_List_unchecked_iterator@V?$_List_val@U?$_List_simple_types@U?$pair@QEAUnapi_env__@@V?$unique_ptr@UPerEnvironmentData@FFI@@U?$default_delete@UPerEnvironmentData@FFI@@@std@@@std@@@std@@@std@@@std@@@std@@@std@@@2@@std@@IEAAXXZ 000000018002bb00     callback_info.obj
 0002:00009b00       $unwind$??1Error@Napi@@UEAA@XZ 000000018002bb00     ffi.obj
 0002:00009b00       $unwind$??0logic_error@std@@QEAA@AEBV01@@Z 000000018002bb00     libcpmt:xthrow.obj
 0002:00009b00       $unwind$?DloadReleaseSectionWriteAccess@@YAXXZ 000000018002bb00     DelayImp:delayhlp.obj
 0002:00009b00       $unwind$??1?$vector@PEAUnapi_value__@@V?$allocator@PEAUnapi_value__@@@std@@@std@@QEAA@XZ 000000018002bb00     ffi.obj
 0002:00009b00       $unwind$??0?$output_processor@_WV?$stream_output_adapter@_W@__crt_stdio_output@@V?$standard_base@_WV?$stream_output_adapter@_W@__crt_stdio_output@@@2@@__crt_stdio_output@@QEAA@AEBV?$stream_output_adapter@_W@1@_KQEB_WQEAU__crt_locale_pointers@@QEAD@Z 000000018002bb00     libucrt:output.obj
 0002:00009b00       $unwind$??_Gexception@stdext@@UEAAPEAXI@Z 000000018002bb00     ffi.obj
 0002:00009b00       $unwind$??0bad_exception@std@@QEAA@AEBV01@@Z 000000018002bb00     libvcruntime:frame.obj
 0002:00009b00       $unwind$?type_case_integer@?$output_processor@_WV?$string_output_adapter@_W@__crt_stdio_output@@V?$standard_base@_WV?$string_output_adapter@_W@__crt_stdio_output@@@2@@__crt_stdio_output@@AEAA_NI_N@Z 000000018002bb00     libucrt:output.obj
 0002:00009b00       $unwind$??0?$output_processor@_WV?$string_output_adapter@_W@__crt_stdio_output@@V?$standard_base@_WV?$string_output_adapter@_W@__crt_stdio_output@@@2@@__crt_stdio_output@@QEAA@AEBV?$string_output_adapter@_W@1@_KQEB_WQEAU__crt_locale_pointers@@QEAD@Z 000000018002bb00     libucrt:output.obj
 0002:00009b00       $unwind$__std_exception_destroy 000000018002bb00     libvcruntime:std_exception.obj
 0002:00009b00       $unwind$__std_type_info_destroy_list 000000018002bb00     libvcruntime:std_type_info.obj
 0002:00009b00       $unwind$uninitialize_allocated_memory 000000018002bb00     libucrt:initialization.obj
 0002:00009b00       $unwind$?type_case_integer@?$output_processor@DV?$string_output_adapter@D@__crt_stdio_output@@V?$standard_base@DV?$string_output_adapter@D@__crt_stdio_output@@@2@@__crt_stdio_output@@AEAA_NI_N@Z 000000018002bb00     libucrt:output.obj
 0002:00009b00       $unwind$??1?$basic_string@DU?$char_traits@D@std@@V?$allocator@D@2@@std@@QEAA@XZ 000000018002bb00     ffi.obj
 0002:00009b00       $unwind$??0bad_alloc@std@@QEAA@AEBV01@@Z 000000018002bb00     libcpmt:xthrow.obj
 0002:00009b00       $unwind$??0exception@std@@QEAA@AEBV01@@Z 000000018002bb00     libcpmt:xthrow.obj
 0002:00009b00       $unwind$?type_case_integer@?$output_processor@_WV?$stream_output_adapter@_W@__crt_stdio_output@@V?$standard_base@_WV?$stream_output_adapter@_W@__crt_stdio_output@@@2@@__crt_stdio_output@@AEAA_NI_N@Z 000000018002bb00     libucrt:output.obj
 0002:00009b00       $unwind$__vcrt_freeptd     000000018002bb00     libvcruntime:per_thread_data.obj
 0002:00009b00       $unwind$__acrt_uninitialize_winapi_thunks 000000018002bb00     libucrt:winapi_thunks.obj
 0002:00009b00       $unwind$__acrt_fp_strflt_to_string 000000018002bb00     libucrt:_fptostr.obj
 0002:00009b00       $unwind$_malloc_base       000000018002bb00     libucrt:malloc_base.obj
 0002:00009b00       $unwind$??0?$output_processor@DV?$string_output_adapter@D@__crt_stdio_output@@V?$standard_base@DV?$string_output_adapter@D@__crt_stdio_output@@@2@@__crt_stdio_output@@QEAA@AEBV?$string_output_adapter@D@1@_KQEBDQEAU__crt_locale_pointers@@QEAD@Z 000000018002bb00     libucrt:output.obj
 0002:00009b00       $unwind$?state_case_normal@?$output_processor@DV?$string_output_adapter@D@__crt_stdio_output@@V?$standard_base@DV?$string_output_adapter@D@__crt_stdio_output@@@2@@__crt_stdio_output@@AEAA_NXZ 000000018002bb00     libucrt:output.obj
 0002:00009b00       $unwind$_IsExceptionObjectToBeDestroyed 000000018002bb00     libvcruntime:trnsctrl.obj
 0002:00009b00       $unwind$__vcrt_uninitialize_locks 000000018002bb00     libvcruntime:locks.obj
 0002:00009b00       $unwind$__vcrt_initialize_locks 000000018002bb00     libvcruntime:locks.obj
 0002:00009b00       $unwind$__acrt_update_locale_info 000000018002bb00     libucrt:locale_update.obj
 0002:00009b08       $unwind$?Int32Value@Number@Napi@@QEBAHXZ 000000018002bb08     ffi.obj
 0002:00009b08       $unwind$?EnsureInfo@?$Buffer@Uffi_cif@@@Napi@@AEBAXXZ 000000018002bb08     ffi.obj
 0002:00009b08       $unwind$??BNumber@Napi@@QEBAHXZ 000000018002bb08     callback_info.obj
 0002:00009b08       $unwind$?EnsureInfo@?$Buffer@PEAX@Napi@@AEBAXXZ 000000018002bb08     ffi.obj
 0002:00009b08       $unwind$?EnsureInfo@?$Buffer@D@Napi@@AEBAXXZ 000000018002bb08     ffi.obj
 0002:00009b08       $unwind$?Type@Value@Napi@@QEBA?AW4napi_valuetype@@XZ 000000018002bb08     ffi.obj
 0002:00009b08       $unwind$?EnsureInfo@?$Buffer@PEAU_ffi_type@@@Napi@@AEBAXXZ 000000018002bb08     ffi.obj
 0002:00009b08       $unwind$?IsBuffer@Value@Napi@@QEBA_NXZ 000000018002bb08     ffi.obj
 0002:00009b08       $unwind$??BNumber@Napi@@QEBAIXZ 000000018002bb08     ffi.obj
 0002:00009b08       $unwind$?EnsureInfo@?$Buffer@U_ffi_type@@@Napi@@AEBAXXZ 000000018002bb08     ffi.obj
 0002:00009b1c       $unwind$?New@?$Reference@VFunction@Napi@@@Napi@@SA?AV12@AEBVFunction@2@I@Z 000000018002bb1c     ffi.obj
 0002:00009b1c       $unwind$?ToNumber@Value@Napi@@QEBA?AVNumber@2@XZ 000000018002bb1c     ffi.obj
 0002:00009b34       $unwind$?New@Number@Napi@@SA?AV12@PEAUnapi_env__@@N@Z 000000018002bb34     ffi.obj
 0002:00009b4c       $unwind$wcstol             000000018002bb4c     libucrt:strtox.obj
 0002:00009b4c       $unwind$??BString@Napi@@QEBA?AV?$basic_string@DU?$char_traits@D@std@@V?$allocator@D@2@@std@@XZ 000000018002bb4c     ffi.obj
 0002:00009b4c       $unwind$??0out_of_range@std@@QEAA@PEBD@Z 000000018002bb4c     libcpmt:xthrow.obj
 0002:00009b4c       $unwind$strtol             000000018002bb4c     libucrt:strtox.obj
 0002:00009b4c       $unwind$??$common_xtox_s@K_W@@YAHKQEA_W_KI_N@Z 000000018002bb4c     libucrt:xtoa.obj
 0002:00009b4c       $unwind$??0length_error@std@@QEAA@PEBD@Z 000000018002bb4c     libcpmt:xthrow.obj
 0002:00009b54       $unwind$?Utf8Value@String@Napi@@QEBA?AV?$basic_string@DU?$char_traits@D@std@@V?$allocator@D@2@@std@@XZ 000000018002bb54     ffi.obj
 0002:00009b78       $stateUnwindMap$?Utf8Value@String@Napi@@QEBA?AV?$basic_string@DU?$char_traits@D@std@@V?$allocator@D@2@@std@@XZ 000000018002bb78     ffi.obj
 0002:00009b80       $ip2state$?Utf8Value@String@Napi@@QEBA?AV?$basic_string@DU?$char_traits@D@std@@V?$allocator@D@2@@std@@XZ 000000018002bb80     ffi.obj
 0002:00009b90       $unwind$?dtor$0@?0??Utf8Value@String@Napi@@QEBA?AV?$basic_string@DU?$char_traits@D@std@@V?$allocator@D@2@@std@@XZ@4HA 000000018002bb90     ffi.obj
 0002:00009b90       $unwind$_query_new_handler$fin$0 000000018002bb90     libucrt:new_handler.obj
 0002:00009b90       $unwind$?fin$0@?0??dllmain_crt_process_detach@@YAH_N@Z@4HA 000000018002bb90     LIBCMT:dll_dllmain.obj
 0002:00009b90       $unwind$?fin$0@?0???$?RV<lambda_99476a1ad63dd22509b5d3e65b0ffc95>@@AEAV<lambda_ad1ced32f4ac17aa236e5ef05d6b3b7c>@@V<lambda_f7424dd8d45958661754dc4f2697e9c3>@@@?$__crt_seh_guarded_call@X@@QEAAX$$QEAV<lambda_99476a1ad63dd22509b5d3e65b0ffc95>@@AEAV<lambda_ad1ced32f4ac17aa236e5ef05d6b3b7c>@@$$QEAV<lambda_f7424dd8d45958661754dc4f2697e9c3>@@@Z@4HA 000000018002bb90     libucrt:mbctype.obj
 0002:00009b90       $unwind$?fin$0@?0???$?RV<lambda_72d1df2b273a38828b1ce30cbf4cdab5>@@AEAV<lambda_876a65b173b8412d3a47c70a915b0cf4>@@V<lambda_41932305e351933ebe8f8be3ed8bb5dc>@@@?$__crt_seh_guarded_call@X@@QEAAX$$QEAV<lambda_72d1df2b273a38828b1ce30cbf4cdab5>@@AEAV<lambda_876a65b173b8412d3a47c70a915b0cf4>@@$$QEAV<lambda_41932305e351933ebe8f8be3ed8bb5dc>@@@Z@4HA 000000018002bb90     libucrt:per_thread_data.obj
 0002:00009b90       $unwind$?fin$0@?0???$?RV<lambda_b8c45f8f788dd370798f47cfe8ac3a86>@@AEAV<lambda_4e60a939b0d047cfe11ddc22648dfba9>@@V<lambda_332c3edc96d0294ec56c57d38c1cdfd5>@@@?$__crt_seh_guarded_call@H@@QEAAH$$QEAV<lambda_b8c45f8f788dd370798f47cfe8ac3a86>@@AEAV<lambda_4e60a939b0d047cfe11ddc22648dfba9>@@$$QEAV<lambda_332c3edc96d0294ec56c57d38c1cdfd5>@@@Z@4HA 000000018002bb90     libucrt:onexit.obj
 0002:00009b90       $unwind$?fin$0@?0???$?RV<lambda_7a5ef57ff966f610505f1d28a3d40618>@@AEAV<lambda_b721fa326cdb32351d23dfa67958c160>@@V<lambda_5e0fb27672408a07956fe59e48ccb2aa>@@@?$__crt_seh_guarded_call@H@@QEAAH$$QEAV<lambda_7a5ef57ff966f610505f1d28a3d40618>@@AEAV<lambda_b721fa326cdb32351d23dfa67958c160>@@$$QEAV<lambda_5e0fb27672408a07956fe59e48ccb2aa>@@@Z@4HA 000000018002bb90     libucrt:setvbuf.obj
 0002:00009b90       $unwind$__DestructExceptionObject$filt$0 000000018002bb90     libvcruntime:frame.obj
 0002:00009b90       $unwind$?fin$0@?0???$?RV<lambda_b521505b218e5242e90febf6bfebc422>@@AEAV<lambda_6978c1fb23f02e42e1d9e99668cc68aa>@@V<lambda_314360699dd331753a4119843814e9a7>@@@?$__crt_seh_guarded_call@H@@QEAAH$$QEAV<lambda_b521505b218e5242e90febf6bfebc422>@@AEAV<lambda_6978c1fb23f02e42e1d9e99668cc68aa>@@$$QEAV<lambda_314360699dd331753a4119843814e9a7>@@@Z@4HA 000000018002bb90     libucrt:commit.obj
 0002:00009b90       $unwind$?fin$0@?0??dllmain_crt_process_attach@@YAHQEAUHINSTANCE__@@QEAX@Z@4HA 000000018002bb90     LIBCMT:dll_dllmain.obj
 0002:00009b90       $unwind$?fin$0@?0???$?RV<lambda_e24bbb7b643b32fcea6fa61b31d4c984>@@AEAV<lambda_275893d493268fdec8709772e3fcec0e>@@V<lambda_9d71df4d7cf3f480f8d633942495c3b0>@@@?$__crt_seh_guarded_call@H@@QEAAH$$QEAV<lambda_e24bbb7b643b32fcea6fa61b31d4c984>@@AEAV<lambda_275893d493268fdec8709772e3fcec0e>@@$$QEAV<lambda_9d71df4d7cf3f480f8d633942495c3b0>@@@Z@4HA 000000018002bb90     libucrt:onexit.obj
 0002:00009b90       $unwind$__FrameUnwindToState$fin$1 000000018002bb90     libvcruntime:frame.obj
 0002:00009b90       $unwind$__FrameUnwindToState$filt$0 000000018002bb90     libvcruntime:frame.obj
 0002:00009b90       $unwind$?fin$0@?0???$?RV<lambda_5e887d1dcbef67a5eb4283622ba103bf>@@AEAV<lambda_4466841279450cc726390878d4a41900>@@V<lambda_341c25c0346d94847f1f3c463c57e077>@@@?$__crt_seh_guarded_call@X@@QEAAX$$QEAV<lambda_5e887d1dcbef67a5eb4283622ba103bf>@@AEAV<lambda_4466841279450cc726390878d4a41900>@@$$QEAV<lambda_341c25c0346d94847f1f3c463c57e077>@@@Z@4HA 000000018002bb90     libucrt:per_thread_data.obj
 0002:00009b90       $unwind$_write$fin$0       000000018002bb90     libucrt:write.obj
 0002:00009b90       $unwind$raise$fin$0        000000018002bb90     libucrt:signal.obj
 0002:00009b90       $unwind$__CxxCallCatchBlock$filt$0 000000018002bb90     libvcruntime:frame.obj
 0002:00009b90       $unwind$fclose$fin$0       000000018002bb90     libucrt:fclose.obj
 0002:00009b90       $unwind$?fin$0@?0???$?RV<lambda_c36588078e9f5dfd39652860aa6b3aaf>@@AEAV<lambda_ec61778202f4f5fc7e7711acc23c3bca>@@V<lambda_dc9d2797ccde5d239b4a0efae8ebd7db>@@@?$__crt_seh_guarded_call@P6AXH@Z@@QEAAP6AXH@Z$$QEAV<lambda_c36588078e9f5dfd39652860aa6b3aaf>@@AEAV<lambda_ec61778202f4f5fc7e7711acc23c3bca>@@$$QEAV<lambda_dc9d2797ccde5d239b4a0efae8ebd7db>@@@Z@4HA 000000018002bb90     libucrt:signal.obj
 0002:00009b90       $unwind$__acrt_update_thread_locale_data$fin$0 000000018002bb90     libucrt:locale_refcounting.obj
 0002:00009b90       $unwind$?fin$0@?0???$common_lseek@_J@@YA_JH_JH@Z@4HA 000000018002bb90     libucrt:lseek.obj
 0002:00009b90       $unwind$__acrt_update_thread_multibyte_data$fin$0 000000018002bb90     libucrt:mbctype.obj
 0002:00009b90       $unwind$?fin$0@?0???$?RV<lambda_7b91131dde12e1c3dfc74ff76b3f2eac>@@AEAV<lambda_dd75445284c072d0bd3768540cc698fa>@@V<lambda_16bc4ecb55b4718497c16bceaea2ceaf>@@@?$__crt_seh_guarded_call@H@@QEAAH$$QEAV<lambda_7b91131dde12e1c3dfc74ff76b3f2eac>@@AEAV<lambda_dd75445284c072d0bd3768540cc698fa>@@$$QEAV<lambda_16bc4ecb55b4718497c16bceaea2ceaf>@@@Z@4HA 000000018002bb90     libucrt:output.obj
 0002:00009b90       $unwind$?dtor$0@?0??Initialize@CallbackInfo@FFI@@SA?AVFunction@Napi@@VEnv@4@@Z@4HA 000000018002bb90     callback_info.obj
 0002:00009b90       $unwind$?fin$0@?0???$?RV<lambda_46352004c1216016012b18bd6f87e700>@@AEAV<lambda_3bd07e1a1191394380780325891bf33f>@@V<lambda_334532d3f185bcaa59b5be82d7d22bff>@@@?$__crt_seh_guarded_call@X@@QEAAX$$QEAV<lambda_46352004c1216016012b18bd6f87e700>@@AEAV<lambda_3bd07e1a1191394380780325891bf33f>@@$$QEAV<lambda_334532d3f185bcaa59b5be82d7d22bff>@@@Z@4HA 000000018002bb90     libucrt:per_thread_data.obj
 0002:00009b90       $unwind$?fin$0@?0???$?RV<lambda_fb3a7dec4e47f37f22dae91bb15c9095>@@AEAV<lambda_698284760c8add0bfb0756c19673e34b>@@V<lambda_dfb8eca1e75fef3034a8fb18dd509707>@@@?$__crt_seh_guarded_call@X@@QEAAX$$QEAV<lambda_fb3a7dec4e47f37f22dae91bb15c9095>@@AEAV<lambda_698284760c8add0bfb0756c19673e34b>@@$$QEAV<lambda_dfb8eca1e75fef3034a8fb18dd509707>@@@Z@4HA 000000018002bb90     libucrt:per_thread_data.obj
 0002:00009b90       $unwind$__acrt_initialize_lowio$fin$0 000000018002bb90     libucrt:ioinit.obj
 0002:00009b90       $unwind$__acrt_lowio_ensure_fh_exists$fin$0 000000018002bb90     libucrt:osfinfo.obj
 0002:00009b90       $unwind$common_flush_all$fin$1 000000018002bb90     libucrt:fflush.obj
 0002:00009b90       $unwind$common_flush_all$fin$0 000000018002bb90     libucrt:fflush.obj
 0002:00009b90       $unwind$?fin$0@?0???$?RV<lambda_bfedae4ebbf01fab1bb6dcc6a9e276e0>@@AEAV<lambda_2fe9b910cf3cbf4a0ab98a02ba45b3ec>@@V<lambda_237c231691f317818eb88cc1d5d642d6>@@@?$__crt_seh_guarded_call@H@@QEAAH$$QEAV<lambda_bfedae4ebbf01fab1bb6dcc6a9e276e0>@@AEAV<lambda_2fe9b910cf3cbf4a0ab98a02ba45b3ec>@@$$QEAV<lambda_237c231691f317818eb88cc1d5d642d6>@@@Z@4HA 000000018002bb90     libucrt:close.obj
 0002:00009b90       $unwind$common_control87$filt$0 000000018002bb90     libucrt:ieee.obj
 0002:00009b90       $unwind$_fcloseall$fin$0   000000018002bb90     libucrt:closeall.obj
 0002:00009b90       $unwind$?dtor$0@?0??Callback@CallbackInfo@FFI@@KA?AVValue@Napi@@AEBV14@@Z@4HA 000000018002bb90     callback_info.obj
 0002:00009b90       $unwind$fflush$fin$0       000000018002bb90     libucrt:fflush.obj
 0002:00009b90       $unwind$_ctrlfp$filt$0     000000018002bb90     libucrt:fpctrl.obj
 0002:00009b90       $unwind$?filt$0@?0??common_exit@@YAXHW4_crt_exit_cleanup_mode@@W4_crt_exit_return_mode@@@Z@4HA 000000018002bb90     libucrt:exit.obj
 0002:00009b90       $unwind$__acrt_uninitialize_locale$fin$0 000000018002bb90     libucrt:wsetlocale.obj
 0002:00009b90       $unwind$_IsNonwritableInCurrentImage$filt$0 000000018002bb90     LIBCMT:pesect.obj
 0002:00009b90       $unwind$?fin$1@?0??common_exit@@YAXHW4_crt_exit_cleanup_mode@@W4_crt_exit_return_mode@@@Z@4HA 000000018002bb90     libucrt:exit.obj
 0002:00009b98       $unwind$??AObject@Napi@@QEAA?AV?$PropertyLValue@V?$basic_string@DU?$char_traits@D@std@@V?$allocator@D@2@@std@@@01@PEBD@Z 000000018002bb98     ffi.obj
 0002:00009bac       $stateUnwindMap$??AObject@Napi@@QEAA?AV?$PropertyLValue@V?$basic_string@DU?$char_traits@D@std@@V?$allocator@D@2@@std@@@01@PEBD@Z 000000018002bbac     ffi.obj
 0002:00009bb8       $ip2state$??AObject@Napi@@QEAA?AV?$PropertyLValue@V?$basic_string@DU?$char_traits@D@std@@V?$allocator@D@2@@std@@@01@PEBD@Z 000000018002bbb8     ffi.obj
 0002:00009bd0       $unwind$?New@Error@Napi@@SA?AV12@PEAUnapi_env__@@@Z 000000018002bbd0     ffi.obj
 0002:00009bdc       $chain$0$?New@Error@Napi@@SA?AV12@PEAUnapi_env__@@@Z 000000018002bbdc     ffi.obj
 0002:00009bf0       $chain$1$?New@Error@Napi@@SA?AV12@PEAUnapi_env__@@@Z 000000018002bbf0     ffi.obj
 0002:00009c00       $unwind$strncpy_s          000000018002bc00     libucrt:strncpy_s.obj
 0002:00009c00       $unwind$__acrt_stdio_begin_temporary_buffering_nolock 000000018002bc00     libucrt:_sftbuf.obj
 0002:00009c00       $unwind$__acrt_errno_map_os_error 000000018002bc00     libucrt:errno.obj
 0002:00009c00       $unwind$wcsncat_s          000000018002bc00     libucrt:wcsncat_s.obj
 0002:00009c00       $unwind$??_Gbad_alloc@std@@UEAAPEAXI@Z 000000018002bc00     libcpmt:xthrow.obj
 0002:00009c00       $unwind$?try_cor_exit_process@@YAXI@Z 000000018002bc00     libucrt:exit.obj
 0002:00009c00       $unwind$_FindAndUnlinkFrame 000000018002bc00     libvcruntime:trnsctrl.obj
 0002:00009c00       $unwind$?internal_isupper_l@@YA_NHQEAU__crt_locale_pointers@@@Z 000000018002bc00     libucrt:tolower_toupper.obj
 0002:00009c00       $unwind$?__SetUnwindTryBlock@@YAXPEA_KPEAU_xDISPATCHER_CONTEXT@@PEBU_s_FuncInfo@@H@Z 000000018002bc00     libvcruntime:ehstate.obj
 0002:00009c00       $unwind$dlclose            000000018002bc00     win32-dlfcn.obj
 0002:00009c00       $unwind$?_Assign_rv@?$basic_string@DU?$char_traits@D@std@@V?$allocator@D@2@@std@@QEAAX$$QEAV12@@Z 000000018002bc00     ffi.obj
 0002:00009c00       $unwind$_close_nolock      000000018002bc00     libucrt:close.obj
 0002:00009c00       $unwind$??_Gbad_array_new_length@std@@UEAAPEAXI@Z 000000018002bc00     LIBCMT:throw_bad_alloc.obj
 0002:00009c00       $unwind$?type_case_c_tchar@?$output_processor@DV?$string_output_adapter@D@__crt_stdio_output@@V?$standard_base@DV?$string_output_adapter@D@__crt_stdio_output@@@2@@__crt_stdio_output@@AEAA_ND@Z 000000018002bc00     libucrt:output.obj
 0002:00009c00       $unwind$??4?$basic_string@DU?$char_traits@D@std@@V?$allocator@D@2@@std@@QEAAAEAV01@$$QEAV01@@Z 000000018002bc00     ffi.obj
 0002:00009c00       $unwind$__acrt_uninitialize_lowio 000000018002bc00     libucrt:ioinit.obj
 0002:00009c00       $unwind$__acrt_invoke_user_matherr 000000018002bc00     libucrt:matherr.obj
 0002:00009c00       $unwind$??_Gout_of_range@std@@UEAAPEAXI@Z 000000018002bc00     libcpmt:xthrow.obj
 0002:00009c00       $unwind$??_Gexception@std@@UEAAPEAXI@Z 000000018002bc00     libcpmt:xthrow.obj
 0002:00009c00       $unwind$??0_LocaleUpdate@@QEAA@QEAU__crt_locale_pointers@@@Z 000000018002bc00     libucrt:output.obj
 0002:00009c00       $unwind$?force_decimal_point@__crt_stdio_output@@YAXPEADQEAU__crt_locale_pointers@@@Z 000000018002bc00     libucrt:output.obj
 0002:00009c00       $unwind$??_Glength_error@std@@UEAAPEAXI@Z 000000018002bc00     libcpmt:xthrow.obj
 0002:00009c00       $unwind$__vcrt_FlsGetValue 000000018002bc00     libvcruntime:winapi_downlevel.obj
 0002:00009c00       $unwind$??_Gbad_exception@std@@UEAAPEAXI@Z 000000018002bc00     libvcruntime:frame.obj
 0002:00009c00       $unwind$??_GTypeError@Napi@@UEAAPEAXI@Z 000000018002bc00     ffi.obj
 0002:00009c00       $unwind$__acrt_getptd      000000018002bc00     libucrt:per_thread_data.obj
 0002:00009c00       $unwind$_realloc_base      000000018002bc00     libucrt:realloc_base.obj
 0002:00009c00       $unwind$__vcrt_FlsFree     000000018002bc00     libvcruntime:winapi_downlevel.obj
 0002:00009c00       $unwind$_updatetlocinfoEx_nolock 000000018002bc00     libucrt:locale_refcounting.obj
 0002:00009c00       $unwind$__acrt_get_parent_window 000000018002bc00     libucrt:winapi_thunks.obj
 0002:00009c00       $unwind$?ExFilterRethrow@@YAHPEAU_EXCEPTION_POINTERS@@PEAUEHExceptionRecord@@PEAH@Z 000000018002bc00     libvcruntime:frame.obj
 0002:00009c00       $unwind$__acrt_FlsGetValue 000000018002bc00     libucrt:winapi_thunks.obj
 0002:00009c00       $unwind$__acrt_FlsAlloc    000000018002bc00     libucrt:winapi_thunks.obj
 0002:00009c00       $unwind$??$common_xtox@K_W@@YAHKQEA_W_KI_N@Z 000000018002bc00     libucrt:xtoa.obj
 0002:00009c00       $unwind$?DloadGetSRWLockFunctionPointers@@YAEXZ 000000018002bc00     DelayImp:delayhlp.obj
 0002:00009c00       $unwind$__vcrt_FlsAlloc    000000018002bc00     libvcruntime:winapi_downlevel.obj
 0002:00009c00       $unwind$?DloadAcquireSectionWriteAccess@@YAXXZ 000000018002bc00     DelayImp:delayhlp.obj
 0002:00009c00       $unwind$_fclose_nolock     000000018002bc00     libucrt:fclose.obj
 0002:00009c00       $unwind$??$common_initialize_environment_nolock@D@@YAHXZ 000000018002bc00     libucrt:environment_initialization.obj
 0002:00009c00       $unwind$?replace_current_thread_locale_nolock@@YAXQEAU__acrt_ptd@@QEAU__crt_locale_data@@@Z 000000018002bc00     libucrt:per_thread_data.obj
 0002:00009c00       $unwind$??_GError@Napi@@UEAAPEAXI@Z 000000018002bc00     ffi.obj
 0002:00009c00       $unwind$_callnewh          000000018002bc00     libucrt:new_handler.obj
 0002:00009c00       $unwind$?erase@?$basic_string@DU?$char_traits@D@std@@V?$allocator@D@2@@std@@QEAAAEAV12@_K0@Z 000000018002bc00     ffi.obj
 0002:00009c00       $unwind$mmap_alloc         000000018002bc00     libffi:closures.obj
 0002:00009c00       $unwind$??_Glogic_error@std@@UEAAPEAXI@Z 000000018002bc00     libcpmt:xthrow.obj
 0002:00009c00       $unwind$__acrt_FlsFree     000000018002bc00     libucrt:winapi_thunks.obj
 0002:00009c0c       $unwind$??0Error@Napi@@QEAA@AEBV01@@Z 000000018002bc0c     ffi.obj
 0002:00009c0c       $unwind$iswctype           000000018002bc0c     libucrt:iswctype.obj
 0002:00009c0c       $unwind$??0TypeError@Napi@@QEAA@AEBV01@@Z 000000018002bc0c     ffi.obj
 0002:00009c0c       $unwind$__acrt_is_packaged_app 000000018002bc0c     libucrt:winapi_thunks.obj
 0002:00009c0c       $unwind$initialize_aggregate 000000018002bc0c     libffi:prep_cif.obj
 0002:00009c18       $unwind$?Message@Error@Napi@@QEBAAEBV?$basic_string@DU?$char_traits@D@std@@V?$allocator@D@2@@std@@XZ 000000018002bc18     ffi.obj
 0002:00009c2c       $stateUnwindMap$?Message@Error@Napi@@QEBAAEBV?$basic_string@DU?$char_traits@D@std@@V?$allocator@D@2@@std@@XZ 000000018002bc2c     ffi.obj
 0002:00009c44       $tryMap$?Message@Error@Napi@@QEBAAEBV?$basic_string@DU?$char_traits@D@std@@V?$allocator@D@2@@std@@XZ 000000018002bc44     ffi.obj
 0002:00009c58       $handlerMap$0$?Message@Error@Napi@@QEBAAEBV?$basic_string@DU?$char_traits@D@std@@V?$allocator@D@2@@std@@XZ 000000018002bc58     ffi.obj
 0002:00009c70       $ip2state$?Message@Error@Napi@@QEBAAEBV?$basic_string@DU?$char_traits@D@std@@V?$allocator@D@2@@std@@XZ 000000018002bc70     ffi.obj
 0002:00009ca0       $unwind$?catch$1@?0??Message@Error@Napi@@QEBAAEBV?$basic_string@DU?$char_traits@D@std@@V?$allocator@D@2@@std@@XZ@4HA 000000018002bca0     ffi.obj
 0002:00009cb0       $unwind$?ThrowAsJavaScriptException@Error@Napi@@QEBAXXZ 000000018002bcb0     ffi.obj
 0002:00009cc8       $stateUnwindMap$??0?$Reference@VObject@Napi@@@Napi@@IEAA@AEBV01@@Z 000000018002bcc8     ffi.obj
 0002:00009cc8       $stateUnwindMap$?ThrowAsJavaScriptException@Error@Napi@@QEBAXXZ 000000018002bcc8     ffi.obj
 0002:00009cc8       $stateUnwindMap$?Set@ObjectReference@Napi@@QEAAXPEBDVValue@2@@Z 000000018002bcc8     callback_info.obj
 0002:00009cd0       $ip2state$?ThrowAsJavaScriptException@Error@Napi@@QEBAXXZ 000000018002bcd0     ffi.obj
 0002:00009ce8       $unwind$?what@Error@Napi@@UEBAPEBDXZ 000000018002bce8     ffi.obj
 0002:00009ce8       $unwind$__acrt_initialize_ptd 000000018002bce8     libucrt:per_thread_data.obj
 0002:00009ce8       $unwind$_GetImageBase      000000018002bce8     libvcruntime:trnsctrl.obj
 0002:00009ce8       $unwind$__scrt_acquire_startup_lock 000000018002bce8     LIBCMT:utility.obj
 0002:00009ce8       $unwind$??__F?per_environment@CallbackInfo@FFI@@0V?$unordered_map@PEAUnapi_env__@@V?$unique_ptr@UPerEnvironmentData@FFI@@U?$default_delete@UPerEnvironmentData@FFI@@@std@@@std@@U?$hash@PEAUnapi_env__@@@3@U?$equal_to@PEAUnapi_env__@@@3@V?$allocator@U?$pair@QEAUnapi_env__@@V?$unique_ptr@UPerEnvironmentData@FFI@@U?$default_delete@UPerEnvironmentData@FFI@@@std@@@std@@@std@@@3@@std@@A@@YAXXZ 000000018002bce8     callback_info.obj
 0002:00009ce8       $unwind$?__GetCurrentState@@YAHPEA_KPEAU_xDISPATCHER_CONTEXT@@PEBU_s_FuncInfo@@@Z 000000018002bce8     libvcruntime:ehstate.obj
 0002:00009ce8       $unwind$_GetThrowImageBase 000000018002bce8     libvcruntime:trnsctrl.obj
 0002:00009ce8       $unwind$_isatty            000000018002bce8     libucrt:isatty.obj
 0002:00009ce8       $unwind$tolower            000000018002bce8     libucrt:tolower_toupper.obj
 0002:00009ce8       $unwind$dlerror            000000018002bce8     win32-dlfcn.obj
 0002:00009ce8       $unwind$__scrt_dllmain_before_initialize_c 000000018002bce8     LIBCMT:utility.obj
 0002:00009ce8       $unwind$__scrt_dllmain_after_initialize_c 000000018002bce8     LIBCMT:utility.obj
 0002:00009ce8       $unwind$_statfp            000000018002bce8     libucrt:fpctrl.obj
 0002:00009ce8       $unwind$__scrt_initialize_default_local_stdio_options 000000018002bce8     LIBCMT:default_local_stdio_options.obj
 0002:00009ce8       $unwind$__scrt_dllmain_uninitialize_c 000000018002bce8     LIBCMT:utility.obj
 0002:00009ce8       $unwind$dlopen             000000018002bce8     win32-dlfcn.obj
 0002:00009ce8       $unwind$__acrt_initialize_heap 000000018002bce8     libucrt:heap_handle.obj
 0002:00009ce8       $unwind$__acrt_uninitialize_ptd 000000018002bce8     libucrt:per_thread_data.obj
 0002:00009ce8       $unwind$?allocate@?$_Wrap_alloc@U?$_Wrap_alloc@V?$allocator@V?$_List_unchecked_iterator@V?$_List_val@U?$_List_simple_types@U?$pair@QEAUnapi_env__@@V?$unique_ptr@UPerEnvironmentData@FFI@@U?$default_delete@UPerEnvironmentData@FFI@@@std@@@std@@@std@@@std@@@std@@@std@@@std@@@std@@@std@@QEAAPEAV?$_List_unchecked_iterator@V?$_List_val@U?$_List_simple_types@U?$pair@QEAUnapi_env__@@V?$unique_ptr@UPerEnvironmentData@FFI@@U?$default_delete@UPerEnvironmentData@FFI@@@std@@@std@@@std@@@std@@@std@@@2@_K@Z 000000018002bce8     callback_info.obj
 0002:00009ce8       $unwind$??__E?per_environment@CallbackInfo@FFI@@0V?$unordered_map@PEAUnapi_env__@@V?$unique_ptr@UPerEnvironmentData@FFI@@U?$default_delete@UPerEnvironmentData@FFI@@@std@@@std@@U?$hash@PEAUnapi_env__@@@3@U?$equal_to@PEAUnapi_env__@@@3@V?$allocator@U?$pair@QEAUnapi_env__@@V?$unique_ptr@UPerEnvironmentData@FFI@@U?$default_delete@UPerEnvironmentData@FFI@@@std@@@std@@@std@@@3@@std@@A@@YAXXZ 000000018002bce8     callback_info.obj
 0002:00009ce8       $unwind$_msize             000000018002bce8     libucrt:msize.obj
 0002:00009ce8       $unwind$__report_rangecheckfailure 000000018002bce8     LIBCMT:gs_report.obj
 0002:00009ce8       $unwind$_stricmp           000000018002bce8     libucrt:stricmp.obj
 0002:00009ce8       $unwind$__scrt_dllmain_uninitialize_critical 000000018002bce8     LIBCMT:utility.obj
 0002:00009ce8       $unwind$__doserrno         000000018002bce8     libucrt:errno.obj
 0002:00009ce8       $unwind$__acrt_uninitialize_critical 000000018002bce8     libucrt:initialization.obj
 0002:00009ce8       $unwind$__acrt_release_locale_ref 000000018002bce8     libucrt:locale_refcounting.obj
 0002:00009ce8       $unwind$?load_exe_hook@@YAP6A_JXZIPEAUDelayLoadInfo@@@Z 000000018002bce8     win_delay_load_hook.obj
 0002:00009ce8       $unwind$__GSHandlerCheck   000000018002bce8     LIBCMT:_gshandler_.obj
 0002:00009ce8       $unwind$?__ffi_errno@FFI@@YAHXZ 000000018002bce8     ffi.obj
 0002:00009ce8       $unwind$__scrt_dllmain_crt_thread_attach 000000018002bce8     LIBCMT:utility.obj
 0002:00009ce8       $unwind$__dcrt_uninitialize_environments_nolock 000000018002bce8     libucrt:environment_initialization.obj
 0002:00009ce8       $unwind$__acrt_thread_attach 000000018002bce8     libucrt:initialization.obj
 0002:00009ce8       $unwind$?dllmain_crt_dispatch@@YAHQEAUHINSTANCE__@@KQEAX@Z 000000018002bce8     LIBCMT:dll_dllmain.obj
 0002:00009ce8       $unwind$__scrt_dllmain_crt_thread_detach 000000018002bce8     LIBCMT:utility.obj
 0002:00009ce8       $unwind$_fileno            000000018002bce8     libucrt:fileno.obj
 0002:00009ce8       $unwind$??$uninitialize_environment_internal@D@@YAXAEAPEAPEAD@Z 000000018002bce8     libucrt:environment_initialization.obj
 0002:00009ce8       $unwind$__acrt_thread_detach 000000018002bce8     libucrt:initialization.obj
 0002:00009ce8       $unwind$__acrt_initialize_command_line 000000018002bce8     libucrt:argv_data.obj
 0002:00009ce8       $unwind$??$uninitialize_environment_internal@_W@@YAXAEAPEAPEA_W@Z 000000018002bce8     libucrt:environment_initialization.obj
 0002:00009ce8       $unwind$abort              000000018002bce8     libucrt:abort.obj
 0002:00009ce8       $unwind$__acrt_initialize_multibyte 000000018002bce8     libucrt:mbctype.obj
 0002:00009ce8       $unwind$initialize_c       000000018002bce8     libucrt:initialization.obj
 0002:00009ce8       $unwind$?state_case_size@?$output_processor@_WV?$stream_output_adapter@_W@__crt_stdio_output@@V?$standard_base@_WV?$stream_output_adapter@_W@__crt_stdio_output@@@2@@__crt_stdio_output@@AEAA_NXZ 000000018002bce8     libucrt:output.obj
 0002:00009ce8       $unwind$uninitialize_environment 000000018002bce8     libucrt:initialization.obj
 0002:00009ce8       $unwind$__std_terminate    000000018002bce8     libvcruntime:frame.obj
 0002:00009ce8       $unwind$_set_errno_from_matherr 000000018002bce8     libucrt:fpexcept.obj
 0002:00009ce8       $unwind$__FrameUnwindFilter 000000018002bce8     libvcruntime:frame.obj
 0002:00009ce8       $unwind$?state_case_size@?$output_processor@_WV?$string_output_adapter@_W@__crt_stdio_output@@V?$standard_base@_WV?$string_output_adapter@_W@__crt_stdio_output@@@2@@__crt_stdio_output@@AEAA_NXZ 000000018002bce8     libucrt:output.obj
 0002:00009ce8       $unwind$_errno             000000018002bce8     libucrt:errno.obj
 0002:00009ce8       $unwind$__dcrt_terminate_console_output 000000018002bce8     libucrt:initcon.obj
 0002:00009ce8       $unwind$ffi_prep_cif       000000018002bce8     libffi:prep_cif.obj
 0002:00009ce8       $unwind$_get_osfhandle     000000018002bce8     libucrt:osfinfo.obj
 0002:00009ce8       $unwind$__vcrt_freefls     000000018002bce8     libvcruntime:per_thread_data.obj
 0002:00009ce8       $unwind$__acrt_DownlevelLocaleNameToLCID 000000018002bce8     libucrt:lcidtoname_downlevel.obj
 0002:00009ce8       $unwind$_getfpcontrolword  000000018002bce8     libucrt:_fenvutils.obj
 0002:00009ce8       $unwind$__vcrt_initialize  000000018002bce8     libvcruntime:initialization.obj
 0002:00009ce8       $unwind$__vcrt_uninitialize 000000018002bce8     libvcruntime:initialization.obj
 0002:00009ce8       $unwind$_getfpstatusword   000000018002bce8     libucrt:_fenvutils.obj
 0002:00009ce8       $unwind$dlfree             000000018002bce8     libffi:closures.obj
 0002:00009ce8       $unwind$_set_error_mode    000000018002bce8     libucrt:set_error_mode.obj
 0002:00009ce8       $unwind$__vcrt_uninitialize_critical 000000018002bce8     libvcruntime:initialization.obj
 0002:00009ce8       $unwind$__vcrt_getptd      000000018002bce8     libvcruntime:per_thread_data.obj
 0002:00009ce8       $unwind$?deallocate@?$_Wrap_alloc@U?$_Wrap_alloc@V?$allocator@V?$_List_unchecked_iterator@V?$_List_val@U?$_List_simple_types@U?$pair@QEAUnapi_env__@@V?$unique_ptr@UPerEnvironmentData@FFI@@U?$default_delete@UPerEnvironmentData@FFI@@@std@@@std@@@std@@@std@@@std@@@std@@@std@@@std@@@std@@QEAAXPEAV?$_List_unchecked_iterator@V?$_List_val@U?$_List_simple_types@U?$pair@QEAUnapi_env__@@V?$unique_ptr@UPerEnvironmentData@FFI@@U?$default_delete@UPerEnvironmentData@FFI@@@std@@@std@@@std@@@std@@@std@@@2@_K@Z 000000018002bce8     callback_info.obj
 0002:00009ce8       $unwind$__pctype_func      000000018002bce8     libucrt:ctype.obj
 0002:00009ce8       $unwind$__vcrt_uninitialize_ptd 000000018002bce8     libvcruntime:per_thread_data.obj
 0002:00009ce8       $unwind$?initialize_multibyte@@YAHXZ 000000018002bce8     libucrt:multibyte_initializer.obj
 0002:00009ce8       $unwind$__vcrt_initialize_ptd 000000018002bce8     libvcruntime:per_thread_data.obj
 0002:00009ce8       $unwind$?state_case_normal_tchar@?$output_processor@DV?$string_output_adapter@D@__crt_stdio_output@@V?$standard_base@DV?$string_output_adapter@D@__crt_stdio_output@@@2@@__crt_stdio_output@@AEAA_ND@Z 000000018002bce8     libucrt:output.obj
 0002:00009ce8       $unwind$_invoke_watson     000000018002bce8     libucrt:invalid_parameter.obj
 0002:00009ce8       $unwind$__vcrt_thread_attach 000000018002bce8     libvcruntime:initialization.obj
 0002:00009ce8       $unwind$__vcrt_thread_detach 000000018002bce8     libvcruntime:initialization.obj
 0002:00009ce8       $unwind$atexit             000000018002bce8     LIBCMT:utility.obj
 0002:00009ce8       $unwind$?state_case_size@?$output_processor@DV?$string_output_adapter@D@__crt_stdio_output@@V?$standard_base@DV?$string_output_adapter@D@__crt_stdio_output@@@2@@__crt_stdio_output@@AEAA_NXZ 000000018002bce8     libucrt:output.obj
 0002:00009cf0       $unwind$?getSystemCP@@YAHH@Z 000000018002bcf0     libucrt:mbctype.obj
 0002:00009cf0       $unwind$_isleadbyte_l      000000018002bcf0     libucrt:_wctype.obj
 0002:00009cf0       $unwind$?New@TypeError@Napi@@SA?AV12@PEAUnapi_env__@@PEBD@Z 000000018002bcf0     ffi.obj
 0002:00009cf0       $unwind$isdigit            000000018002bcf0     libucrt:_ctype.obj
 0002:00009cf0       $unwind$?New@Error@Napi@@SA?AV12@PEAUnapi_env__@@PEBD@Z 000000018002bcf0     callback_info.obj
 0002:00009cf0       $unwind$?New@Error@Napi@@SA?AV12@PEAUnapi_env__@@AEBV?$basic_string@DU?$char_traits@D@std@@V?$allocator@D@2@@std@@@Z 000000018002bcf0     callback_info.obj
 0002:00009cf8       $unwind$?Get@ObjectReference@Napi@@QEBA?AVValue@2@PEBD@Z 000000018002bcf8     ffi.obj
 0002:00009d14       $stateUnwindMap$?Get@ObjectReference@Napi@@QEBA?AVValue@2@PEBD@Z 000000018002bd14     ffi.obj
 0002:00009d20       $ip2state$?Get@ObjectReference@Napi@@QEBA?AVValue@2@PEBD@Z 000000018002bd20     ffi.obj
 0002:00009d38       $unwind$?MakeCallback@FunctionReference@Napi@@QEBA?AVValue@2@PEAUnapi_value__@@AEBV?$vector@PEAUnapi_value__@@V?$allocator@PEAUnapi_value__@@@std@@@std@@PEAUnapi_async_context__@@@Z 000000018002bd38     ffi.obj
 0002:00009d38       $unwind$?MakeCallback@FunctionReference@Napi@@QEBA?AVValue@2@PEAUnapi_value__@@AEBV?$initializer_list@PEAUnapi_value__@@@std@@PEAUnapi_async_context__@@@Z 000000018002bd38     callback_info.obj
 0002:00009d58       $stateUnwindMap$?MakeCallback@FunctionReference@Napi@@QEBA?AVValue@2@PEAUnapi_value__@@AEBV?$initializer_list@PEAUnapi_value__@@@std@@PEAUnapi_async_context__@@@Z 000000018002bd58     callback_info.obj
 0002:00009d58       $stateUnwindMap$?MakeCallback@FunctionReference@Napi@@QEBA?AVValue@2@PEAUnapi_value__@@AEBV?$vector@PEAUnapi_value__@@V?$allocator@PEAUnapi_value__@@@std@@@std@@PEAUnapi_async_context__@@@Z 000000018002bd58     ffi.obj
 0002:00009d60       $ip2state$?MakeCallback@FunctionReference@Napi@@QEBA?AVValue@2@PEAUnapi_value__@@AEBV?$vector@PEAUnapi_value__@@V?$allocator@PEAUnapi_value__@@@std@@@std@@PEAUnapi_async_context__@@@Z 000000018002bd60     ffi.obj
 0002:00009d60       $ip2state$?MakeCallback@FunctionReference@Napi@@QEBA?AVValue@2@PEAUnapi_value__@@AEBV?$initializer_list@PEAUnapi_value__@@@std@@PEAUnapi_async_context__@@@Z 000000018002bd60     callback_info.obj
 0002:00009d88       $unwind$??0CallbackInfo@Napi@@QEAA@PEAUnapi_env__@@PEAUnapi_callback_info__@@@Z 000000018002bd88     ffi.obj
 0002:00009da4       $unwind$??$As@V?$Buffer@U_ffi_type@@@Napi@@@Value@Napi@@QEBA?AV?$Buffer@U_ffi_type@@@1@XZ 000000018002bda4     ffi.obj
 0002:00009da4       $unwind$??$As@V?$Buffer@PEAU_ffi_type@@@Napi@@@Value@Napi@@QEBA?AV?$Buffer@PEAU_ffi_type@@@1@XZ 000000018002bda4     ffi.obj
 0002:00009da4       $unwind$??$As@V?$Buffer@D@Napi@@@Value@Napi@@QEBA?AV?$Buffer@D@1@XZ 000000018002bda4     ffi.obj
 0002:00009da4       $unwind$??ACallbackInfo@Napi@@QEBA?BVValue@1@_K@Z 000000018002bda4     ffi.obj
 0002:00009da4       $unwind$??$As@V?$Buffer@Uffi_cif@@@Napi@@@Value@Napi@@QEBA?AV?$Buffer@Uffi_cif@@@1@XZ 000000018002bda4     ffi.obj
 0002:00009da4       $unwind$??$As@V?$Buffer@PEAX@Napi@@@Value@Napi@@QEBA?AV?$Buffer@PEAX@1@XZ 000000018002bda4     ffi.obj
 0002:00009dbc       $unwind$?InitializeStaticFunctions@FFI@1@SA?AVObject@Napi@@VEnv@3@@Z 000000018002bdbc     ffi.obj
 0002:00009ddc       $stateUnwindMap$?InitializeStaticFunctions@FFI@1@SA?AVObject@Napi@@VEnv@3@@Z 000000018002bddc     ffi.obj
 0002:00009e10       $ip2state$?InitializeStaticFunctions@FFI@1@SA?AVObject@Napi@@VEnv@3@@Z 000000018002be10     ffi.obj
 0002:00009e68       $unwind$?InitializeBindings@FFI@1@SAXVEnv@Napi@@VObject@3@@Z 000000018002be68     ffi.obj
 0002:00009e90       $stateUnwindMap$?InitializeBindings@FFI@1@SAXVEnv@Napi@@VObject@3@@Z 000000018002be90     ffi.obj
 0002:00009ff0       $ip2state$?InitializeBindings@FFI@1@SAXVEnv@Napi@@VObject@3@@Z 000000018002bff0     ffi.obj
 0002:0000a2a8       $unwind$?FFIPrepCif@FFI@1@KA?AVValue@Napi@@AEBVCallbackInfo@3@@Z 000000018002c2a8     ffi.obj
 0002:0000a2c0       $chain$1$?FFIPrepCif@FFI@1@KA?AVValue@Napi@@AEBVCallbackInfo@3@@Z 000000018002c2c0     ffi.obj
 0002:0000a2d8       $chain$3$?FFIPrepCif@FFI@1@KA?AVValue@Napi@@AEBVCallbackInfo@3@@Z 000000018002c2d8     ffi.obj
 0002:0000a2f0       $chain$4$?FFIPrepCif@FFI@1@KA?AVValue@Napi@@AEBVCallbackInfo@3@@Z 000000018002c2f0     ffi.obj
 0002:0000a300       $chain$5$?FFIPrepCif@FFI@1@KA?AVValue@Napi@@AEBVCallbackInfo@3@@Z 000000018002c300     ffi.obj
 0002:0000a314       $chain$6$?FFIPrepCif@FFI@1@KA?AVValue@Napi@@AEBVCallbackInfo@3@@Z 000000018002c314     ffi.obj
 0002:0000a32c       $chain$7$?FFIPrepCif@FFI@1@KA?AVValue@Napi@@AEBVCallbackInfo@3@@Z 000000018002c32c     ffi.obj
 0002:0000a34c       $unwind$?FFIPrepCifVar@FFI@1@KA?AVValue@Napi@@AEBVCallbackInfo@3@@Z 000000018002c34c     ffi.obj
 0002:0000a364       $chain$2$?FFIPrepCifVar@FFI@1@KA?AVValue@Napi@@AEBVCallbackInfo@3@@Z 000000018002c364     ffi.obj
 0002:0000a380       $chain$3$?FFIPrepCifVar@FFI@1@KA?AVValue@Napi@@AEBVCallbackInfo@3@@Z 000000018002c380     ffi.obj
 0002:0000a394       $chain$4$?FFIPrepCifVar@FFI@1@KA?AVValue@Napi@@AEBVCallbackInfo@3@@Z 000000018002c394     ffi.obj
 0002:0000a3a4       $chain$5$?FFIPrepCifVar@FFI@1@KA?AVValue@Napi@@AEBVCallbackInfo@3@@Z 000000018002c3a4     ffi.obj
 0002:0000a3b8       $chain$6$?FFIPrepCifVar@FFI@1@KA?AVValue@Napi@@AEBVCallbackInfo@3@@Z 000000018002c3b8     ffi.obj
 0002:0000a3d4       $chain$7$?FFIPrepCifVar@FFI@1@KA?AVValue@Napi@@AEBVCallbackInfo@3@@Z 000000018002c3d4     ffi.obj
 0002:0000a3f4       $unwind$?FFICall@FFI@1@KAXAEBVCallbackInfo@Napi@@@Z 000000018002c3f4     ffi.obj
 0002:0000a40c       $chain$2$?FFICall@FFI@1@KAXAEBVCallbackInfo@Napi@@@Z 000000018002c40c     ffi.obj
 0002:0000a428       $chain$3$?FFICall@FFI@1@KAXAEBVCallbackInfo@Napi@@@Z 000000018002c428     ffi.obj
 0002:0000a438       $chain$4$?FFICall@FFI@1@KAXAEBVCallbackInfo@Napi@@@Z 000000018002c438     ffi.obj
 0002:0000a44c       $unwind$?FFICallAsync@FFI@1@KAXAEBVCallbackInfo@Napi@@@Z 000000018002c44c     ffi.obj
 0002:0000a474       $stateUnwindMap$?FFICallAsync@FFI@1@KAXAEBVCallbackInfo@Napi@@@Z 000000018002c474     ffi.obj
 0002:0000a480       $ip2state$?FFICallAsync@FFI@1@KAXAEBVCallbackInfo@Napi@@@Z 000000018002c480     ffi.obj
 0002:0000a498       $unwind$?AsyncFFICall@FFI@1@KAXPEAUuv_work_s@@@Z 000000018002c498     ffi.obj
 0002:0000a4a8       $stateUnwindMap$??$WrapCallback@V<lambda_8c7377a71108815b2eee34f099f4cb99>@@@details@Napi@@YAPEAUnapi_value__@@V<lambda_8c7377a71108815b2eee34f099f4cb99>@@@Z 000000018002c4a8     ffi.obj
 0002:0000a4a8       $stateUnwindMap$??$WrapCallback@V<lambda_4b130013be4a466940e6fe08d32cda83>@@@details@Napi@@YAPEAUnapi_value__@@V<lambda_4b130013be4a466940e6fe08d32cda83>@@@Z 000000018002c4a8     ffi.obj
 0002:0000a4a8       $stateUnwindMap$?AsyncFFICall@FFI@1@KAXPEAUuv_work_s@@@Z 000000018002c4a8     ffi.obj
 0002:0000a4b8       $tryMap$?AsyncFFICall@FFI@1@KAXPEAUuv_work_s@@@Z 000000018002c4b8     ffi.obj
 0002:0000a4cc       $handlerMap$0$?AsyncFFICall@FFI@1@KAXPEAUuv_work_s@@@Z 000000018002c4cc     ffi.obj
 0002:0000a4e0       $ip2state$?AsyncFFICall@FFI@1@KAXPEAUuv_work_s@@@Z 000000018002c4e0     ffi.obj
 0002:0000a510       $unwind$?catch$0@?0??AsyncFFICall@FFI@1@KAXPEAUuv_work_s@@@Z@4HA 000000018002c510     ffi.obj
 0002:0000a520       $unwind$?FinishAsyncFFICall@FFI@1@KAXPEAUuv_work_s@@H@Z 000000018002c520     ffi.obj
 0002:0000a540       $stateUnwindMap$?FinishAsyncFFICall@FFI@1@KAXPEAUuv_work_s@@H@Z 000000018002c540     ffi.obj
 0002:0000a550       $ip2state$?FinishAsyncFFICall@FFI@1@KAXPEAUuv_work_s@@H@Z 000000018002c550     ffi.obj
 0002:0000a578       $unwind$?Init@@YA?AVObject@Napi@@VEnv@2@V12@@Z 000000018002c578     ffi.obj
 0002:0000a594       $stateUnwindMap$?Init@@YA?AVObject@Napi@@VEnv@2@V12@@Z 000000018002c594     ffi.obj
 0002:0000a5a8       $ip2state$?Init@@YA?AVObject@Napi@@VEnv@2@V12@@Z 000000018002c5a8     ffi.obj
 0002:0000a5d0       $unwind$?__napi_Init@@YAPEAUnapi_value__@@PEAUnapi_env__@@PEAU1@@Z 000000018002c5d0     ffi.obj
 0002:0000a5d8       $unwind$?type_case_n@?$output_processor@DV?$string_output_adapter@D@__crt_stdio_output@@V?$standard_base@DV?$string_output_adapter@D@__crt_stdio_output@@@2@@__crt_stdio_output@@AEAA_NXZ 000000018002c5d8     libucrt:output.obj
 0002:0000a5d8       $unwind$?type_case_s@?$output_processor@DV?$string_output_adapter@D@__crt_stdio_output@@V?$standard_base@DV?$string_output_adapter@D@__crt_stdio_output@@@2@@__crt_stdio_output@@AEAA_NXZ 000000018002c5d8     libucrt:output.obj
 0002:0000a5d8       $unwind$__acrt_stdio_flush_and_write_narrow_nolock 000000018002c5d8     libucrt:_flsbuf.obj
 0002:0000a5d8       $unwind$?free_crt_array_internal@@YAXQEAPEBX_K@Z 000000018002c5d8     libucrt:inittime.obj
 0002:0000a5d8       $unwind$__acrt_stdio_flush_and_write_wide_nolock 000000018002c5d8     libucrt:_flsbuf.obj
 0002:0000a5d8       $unwind$?type_case_Z@?$output_processor@DV?$string_output_adapter@D@__crt_stdio_output@@V?$standard_base@DV?$string_output_adapter@D@__crt_stdio_output@@@2@@__crt_stdio_output@@AEAA_NXZ 000000018002c5d8     libucrt:output.obj
 0002:0000a5d8       $unwind$_DllMainCRTStartup 000000018002c5d8     LIBCMT:dll_dllmain.obj
 0002:0000a5d8       $unwind$__acrt_FlsSetValue 000000018002c5d8     libucrt:winapi_thunks.obj
 0002:0000a5d8       $unwind$__acrt_execute_uninitializers 000000018002c5d8     libucrt:shared_initialization.obj
 0002:0000a5d8       $unwind$__vcrt_getptd_noexit 000000018002c5d8     libvcruntime:per_thread_data.obj
 0002:0000a5d8       $unwind$__acrt_getptd_noexit 000000018002c5d8     libucrt:per_thread_data.obj
 0002:0000a5d8       $unwind$__acrt_LocaleNameToLCID 000000018002c5d8     libucrt:winapi_thunks.obj
 0002:0000a5d8       $unwind$_initterm_e        000000018002c5d8     libucrt:initterm.obj
 0002:0000a5d8       $unwind$??$common_lseek_nolock@_J@@YA_JH_JH@Z 000000018002c5d8     libucrt:lseek.obj
 0002:0000a5d8       $unwind$??R<lambda_ad1ced32f4ac17aa236e5ef05d6b3b7c>@@QEBAXXZ 000000018002c5d8     libucrt:mbctype.obj
 0002:0000a5d8       $unwind$?_Tidy@?$basic_string@DU?$char_traits@D@std@@V?$allocator@D@2@@std@@QEAAX_N_K@Z 000000018002c5d8     ffi.obj
 0002:0000a5d8       $unwind$?_Tidy@?$deque@PEAVThreadedCallbackInvokation@FFI@@V?$allocator@PEAVThreadedCallbackInvokation@FFI@@@std@@@std@@IEAAXXZ 000000018002c5d8     callback_info.obj
 0002:0000a5d8       $unwind$?type_case_Z@?$output_processor@_WV?$string_output_adapter@_W@__crt_stdio_output@@V?$standard_base@_WV?$string_output_adapter@_W@__crt_stdio_output@@@2@@__crt_stdio_output@@AEAA_NXZ 000000018002c5d8     libucrt:output.obj
 0002:0000a5d8       $unwind$?type_case_s@?$output_processor@_WV?$string_output_adapter@_W@__crt_stdio_output@@V?$standard_base@_WV?$string_output_adapter@_W@__crt_stdio_output@@@2@@__crt_stdio_output@@AEAA_NXZ 000000018002c5d8     libucrt:output.obj
 0002:0000a5d8       $unwind$?type_case_n@?$output_processor@_WV?$string_output_adapter@_W@__crt_stdio_output@@V?$standard_base@_WV?$string_output_adapter@_W@__crt_stdio_output@@@2@@__crt_stdio_output@@AEAA_NXZ 000000018002c5d8     libucrt:output.obj
 0002:0000a5d8       $unwind$_RTC_Initialize    000000018002c5d8     LIBCMT:_initsect_.obj
 0002:0000a5d8       $unwind$memcpy_s           000000018002c5d8     libucrt:cfout.obj
 0002:0000a5d8       $unwind$_RTC_Terminate     000000018002c5d8     LIBCMT:_initsect_.obj
 0002:0000a5d8       $unwind$__vcrt_FlsSetValue 000000018002c5d8     libvcruntime:winapi_downlevel.obj
 0002:0000a5d8       $unwind$?type_case_s@?$output_processor@_WV?$stream_output_adapter@_W@__crt_stdio_output@@V?$standard_base@_WV?$stream_output_adapter@_W@__crt_stdio_output@@@2@@__crt_stdio_output@@AEAA_NXZ 000000018002c5d8     libucrt:output.obj
 0002:0000a5d8       $unwind$__acrt_stdio_flush_nolock 000000018002c5d8     libucrt:fflush.obj
 0002:0000a5d8       $unwind$?assign@?$basic_string@DU?$char_traits@D@std@@V?$allocator@D@2@@std@@QEAAAEAV12@PEBD_K@Z 000000018002c5d8     ffi.obj
 0002:0000a5d8       $unwind$?type_case_n@?$output_processor@_WV?$stream_output_adapter@_W@__crt_stdio_output@@V?$standard_base@_WV?$stream_output_adapter@_W@__crt_stdio_output@@@2@@__crt_stdio_output@@AEAA_NXZ 000000018002c5d8     libucrt:output.obj
 0002:0000a5d8       $unwind$?type_case_Z@?$output_processor@_WV?$stream_output_adapter@_W@__crt_stdio_output@@V?$standard_base@_WV?$stream_output_adapter@_W@__crt_stdio_output@@@2@@__crt_stdio_output@@AEAA_NXZ 000000018002c5d8     libucrt:output.obj
 0002:0000a5d8       $unwind$_exception_enabled 000000018002c5d8     libucrt:libm_error.obj
 0002:0000a5e8       $unwind$_free_osfhnd       000000018002c5e8     libucrt:osfinfo.obj
 0002:0000a5e8       $unwind$?assign@?$basic_string@DU?$char_traits@D@std@@V?$allocator@D@2@@std@@QEAAAEAV12@AEBV12@_K1@Z 000000018002c5e8     ffi.obj
 0002:0000a5e8       $unwind$?push_back@?$deque@PEAVThreadedCallbackInvokation@FFI@@V?$allocator@PEAVThreadedCallbackInvokation@FFI@@@std@@@std@@QEAAX$$QEAPEAVThreadedCallbackInvokation@FFI@@@Z 000000018002c5e8     callback_info.obj
 0002:0000a5e8       $unwind$?initialize_stdio_handles_nolock@@YAXXZ 000000018002c5e8     libucrt:ioinit.obj
 0002:0000a5e8       $unwind$__std_exception_copy 000000018002c5e8     libvcruntime:std_exception.obj
 0002:0000a5fc       $unwind$?_Copy@?$basic_string@DU?$char_traits@D@std@@V?$allocator@D@2@@std@@QEAAX_K0@Z 000000018002c5fc     ffi.obj
 0002:0000a610       $unwind$?append@?$basic_string@DU?$char_traits@D@std@@V?$allocator@D@2@@std@@QEAAAEAV12@_KD@Z 000000018002c610     ffi.obj
 0002:0000a610       $unwind$sys_alloc          000000018002c610     libffi:closures.obj
 0002:0000a61c       $chain$0$?append@?$basic_string@DU?$char_traits@D@std@@V?$allocator@D@2@@std@@QEAAAEAV12@_KD@Z 000000018002c61c     ffi.obj
 0002:0000a630       $chain$2$?append@?$basic_string@DU?$char_traits@D@std@@V?$allocator@D@2@@std@@QEAAAEAV12@_KD@Z 000000018002c630     ffi.obj
 0002:0000a630       $chain$6$?append@?$basic_string@DU?$char_traits@D@std@@V?$allocator@D@2@@std@@QEAAAEAV12@_KD@Z 000000018002c630     ffi.obj
 0002:0000a630       $chain$4$?append@?$basic_string@DU?$char_traits@D@std@@V?$allocator@D@2@@std@@QEAAAEAV12@_KD@Z 000000018002c630     ffi.obj
 0002:0000a644       $chain$5$?append@?$basic_string@DU?$char_traits@D@std@@V?$allocator@D@2@@std@@QEAAAEAV12@_KD@Z 000000018002c644     ffi.obj
 0002:0000a654       $unwind$??0?$Reference@VObject@Napi@@@Napi@@IEAA@AEBV01@@Z 000000018002c654     ffi.obj
 0002:0000a678       $ip2state$??0?$Reference@VObject@Napi@@@Napi@@IEAA@AEBV01@@Z 000000018002c678     ffi.obj
 0002:0000a690       $unwind$??4?$Reference@VFunction@Napi@@@Napi@@QEAAAEAV01@$$QEAV01@@Z 000000018002c690     ffi.obj
 0002:0000a6a4       $unwind$??$WrapCallback@V<lambda_8c7377a71108815b2eee34f099f4cb99>@@@details@Napi@@YAPEAUnapi_value__@@V<lambda_8c7377a71108815b2eee34f099f4cb99>@@@Z 000000018002c6a4     ffi.obj
 0002:0000a6b4       $tryMap$??$WrapCallback@V<lambda_8c7377a71108815b2eee34f099f4cb99>@@@details@Napi@@YAPEAUnapi_value__@@V<lambda_8c7377a71108815b2eee34f099f4cb99>@@@Z 000000018002c6b4     ffi.obj
 0002:0000a6c8       $handlerMap$0$??$WrapCallback@V<lambda_8c7377a71108815b2eee34f099f4cb99>@@@details@Napi@@YAPEAUnapi_value__@@V<lambda_8c7377a71108815b2eee34f099f4cb99>@@@Z 000000018002c6c8     ffi.obj
 0002:0000a6e0       $ip2state$??$WrapCallback@V<lambda_8c7377a71108815b2eee34f099f4cb99>@@@details@Napi@@YAPEAUnapi_value__@@V<lambda_8c7377a71108815b2eee34f099f4cb99>@@@Z 000000018002c6e0     ffi.obj
 0002:0000a710       $unwind$?catch$0@?0???$WrapCallback@V<lambda_8c7377a71108815b2eee34f099f4cb99>@@@details@Napi@@YAPEAUnapi_value__@@V<lambda_8c7377a71108815b2eee34f099f4cb99>@@@Z@4HA 000000018002c710     ffi.obj
 0002:0000a720       $unwind$??$New@VError@Napi@@@Error@Napi@@KA?AV01@PEAUnapi_env__@@PEBD_KP6A?AW4napi_status@@0PEAUnapi_value__@@3PEAPEAU4@@Z@Z 000000018002c720     callback_info.obj
 0002:0000a720       $unwind$??$New@VTypeError@Napi@@@Error@Napi@@KA?AVTypeError@1@PEAUnapi_env__@@PEBD_KP6A?AW4napi_status@@0PEAUnapi_value__@@3PEAPEAU5@@Z@Z 000000018002c720     ffi.obj
 0002:0000a738       $unwind$??$?4PEBD@?$PropertyLValue@V?$basic_string@DU?$char_traits@D@std@@V?$allocator@D@2@@std@@@Object@Napi@@QEAAAEAV012@PEBD@Z 000000018002c738     ffi.obj
 0002:0000a758       $unwind$?Wrapper@?$CallbackData@P6A?AVValue@Napi@@AEBVCallbackInfo@2@@ZV12@@details@Napi@@SAPEAUnapi_value__@@PEAUnapi_env__@@PEAUnapi_callback_info__@@@Z 000000018002c758     ffi.obj
 0002:0000a758       $unwind$?Wrapper@?$CallbackData@P6AXAEBVCallbackInfo@Napi@@@ZX@details@Napi@@SAPEAUnapi_value__@@PEAUnapi_env__@@PEAUnapi_callback_info__@@@Z 000000018002c758     ffi.obj
 0002:0000a760       $unwind$??R<lambda_4b130013be4a466940e6fe08d32cda83>@@QEBA?AVValue@Napi@@XZ 000000018002c760     ffi.obj
 0002:0000a774       $stateUnwindMap$??R<lambda_4b130013be4a466940e6fe08d32cda83>@@QEBA?AVValue@Napi@@XZ 000000018002c774     ffi.obj
 0002:0000a780       $ip2state$??R<lambda_4b130013be4a466940e6fe08d32cda83>@@QEBA?AVValue@Napi@@XZ 000000018002c780     ffi.obj
 0002:0000a798       $unwind$??$New@V<lambda_f18167e7b21ea4a113cabf0718567511>@@@?$Buffer@D@Napi@@SA?AV01@PEAUnapi_env__@@PEAD_KV<lambda_f18167e7b21ea4a113cabf0718567511>@@@Z 000000018002c798     ffi.obj
 0002:0000a798       $unwind$??$New@V<lambda_077cf94f9d4d555d88319182fbd6cada>@@@?$Buffer@D@Napi@@SA?AV01@PEAUnapi_env__@@PEAD_KV<lambda_077cf94f9d4d555d88319182fbd6cada>@@@Z 000000018002c798     ffi.obj
 0002:0000a798       $unwind$??$New@V<lambda_09ee09fd05315914118049364ef8ce81>@@@?$Buffer@D@Napi@@SA?AV01@PEAUnapi_env__@@PEAD_KV<lambda_09ee09fd05315914118049364ef8ce81>@@@Z 000000018002c798     ffi.obj
 0002:0000a798       $unwind$??$New@V<lambda_e9b8fd19e103a93ab0ab099cbcb65db2>@@@?$Buffer@D@Napi@@SA?AV01@PEAUnapi_env__@@PEAD_KV<lambda_e9b8fd19e103a93ab0ab099cbcb65db2>@@@Z 000000018002c798     ffi.obj
 0002:0000a798       $unwind$??$New@V<lambda_e60858b6bddec48c5c84bf745a5cfbcc>@@@?$Buffer@D@Napi@@SA?AV01@PEAUnapi_env__@@PEAD_KV<lambda_e60858b6bddec48c5c84bf745a5cfbcc>@@@Z 000000018002c798     ffi.obj
 0002:0000a7b8       $unwind$??$New@V<lambda_8ce0c008e85ccc57d252cad5a80f2864>@@@?$Buffer@D@Napi@@SA?AV01@PEAUnapi_env__@@PEAD_KV<lambda_8ce0c008e85ccc57d252cad5a80f2864>@@@Z 000000018002c7b8     callback_info.obj
 0002:0000a7b8       $unwind$??$New@V<lambda_be7b0dd66bce0ea2e51b110e94c67118>@@@?$Buffer@D@Napi@@SA?AV01@PEAUnapi_env__@@PEAD_KV<lambda_be7b0dd66bce0ea2e51b110e94c67118>@@@Z 000000018002c7b8     ffi.obj
 0002:0000a7d4       $unwind$??$New@V<lambda_efb3f083e984881c8a8dc51f31353307>@@@?$Buffer@D@Napi@@SA?AV01@PEAUnapi_env__@@PEAD_KV<lambda_efb3f083e984881c8a8dc51f31353307>@@@Z 000000018002c7d4     ffi.obj
 0002:0000a7f0       $unwind$??$_Construct@PEBQEAUnapi_value__@@@?$vector@PEAUnapi_value__@@V?$allocator@PEAUnapi_value__@@@std@@@std@@QEAAXPEBQEAUnapi_value__@@0Uforward_iterator_tag@1@@Z 000000018002c7f0     ffi.obj
 0002:0000a804       $chain$0$??$_Construct@PEBQEAUnapi_value__@@@?$vector@PEAUnapi_value__@@V?$allocator@PEAUnapi_value__@@@std@@@std@@QEAAXPEBQEAUnapi_value__@@0Uforward_iterator_tag@1@@Z 000000018002c804     ffi.obj
 0002:0000a818       $chain$1$??$_Construct@PEBQEAUnapi_value__@@@?$vector@PEAUnapi_value__@@V?$allocator@PEAUnapi_value__@@@std@@@std@@QEAAXPEBQEAUnapi_value__@@0Uforward_iterator_tag@1@@Z 000000018002c818     ffi.obj
 0002:0000a828       $chain$2$??$_Construct@PEBQEAUnapi_value__@@@?$vector@PEAUnapi_value__@@V?$allocator@PEAUnapi_value__@@@std@@@std@@QEAAXPEBQEAUnapi_value__@@0Uforward_iterator_tag@1@@Z 000000018002c828     ffi.obj
 0002:0000a83c       $unwind$??$WrapCallback@V<lambda_03ec0e3e2a4187754bc7c97d0c48b30a>@@@details@Napi@@YAPEAUnapi_value__@@V<lambda_03ec0e3e2a4187754bc7c97d0c48b30a>@@@Z 000000018002c83c     ffi.obj
 0002:0000a84c       $stateUnwindMap$??$WrapCallback@V<lambda_03ec0e3e2a4187754bc7c97d0c48b30a>@@@details@Napi@@YAPEAUnapi_value__@@V<lambda_03ec0e3e2a4187754bc7c97d0c48b30a>@@@Z 000000018002c84c     ffi.obj
 0002:0000a864       $tryMap$??$WrapCallback@V<lambda_03ec0e3e2a4187754bc7c97d0c48b30a>@@@details@Napi@@YAPEAUnapi_value__@@V<lambda_03ec0e3e2a4187754bc7c97d0c48b30a>@@@Z 000000018002c864     ffi.obj
 0002:0000a878       $handlerMap$0$??$WrapCallback@V<lambda_03ec0e3e2a4187754bc7c97d0c48b30a>@@@details@Napi@@YAPEAUnapi_value__@@V<lambda_03ec0e3e2a4187754bc7c97d0c48b30a>@@@Z 000000018002c878     ffi.obj
 0002:0000a890       $ip2state$??$WrapCallback@V<lambda_03ec0e3e2a4187754bc7c97d0c48b30a>@@@details@Napi@@YAPEAUnapi_value__@@V<lambda_03ec0e3e2a4187754bc7c97d0c48b30a>@@@Z 000000018002c890     ffi.obj
 0002:0000a8d0       $unwind$?catch$2@?0???$WrapCallback@V<lambda_03ec0e3e2a4187754bc7c97d0c48b30a>@@@details@Napi@@YAPEAUnapi_value__@@V<lambda_03ec0e3e2a4187754bc7c97d0c48b30a>@@@Z@4HA 000000018002c8d0     ffi.obj
 0002:0000a8e0       $unwind$??$WrapCallback@V<lambda_4b130013be4a466940e6fe08d32cda83>@@@details@Napi@@YAPEAUnapi_value__@@V<lambda_4b130013be4a466940e6fe08d32cda83>@@@Z 000000018002c8e0     ffi.obj
 0002:0000a8f0       $tryMap$??$WrapCallback@V<lambda_4b130013be4a466940e6fe08d32cda83>@@@details@Napi@@YAPEAUnapi_value__@@V<lambda_4b130013be4a466940e6fe08d32cda83>@@@Z 000000018002c8f0     ffi.obj
 0002:0000a904       $handlerMap$0$??$WrapCallback@V<lambda_4b130013be4a466940e6fe08d32cda83>@@@details@Napi@@YAPEAUnapi_value__@@V<lambda_4b130013be4a466940e6fe08d32cda83>@@@Z 000000018002c904     ffi.obj
 0002:0000a918       $ip2state$??$WrapCallback@V<lambda_4b130013be4a466940e6fe08d32cda83>@@@details@Napi@@YAPEAUnapi_value__@@V<lambda_4b130013be4a466940e6fe08d32cda83>@@@Z 000000018002c918     ffi.obj
 0002:0000a948       $unwind$?catch$1@?0???$WrapCallback@V<lambda_4b130013be4a466940e6fe08d32cda83>@@@details@Napi@@YAPEAUnapi_value__@@V<lambda_4b130013be4a466940e6fe08d32cda83>@@@Z@4HA 000000018002c948     ffi.obj
 0002:0000a958       $unwind$??$AttachData@U?$CallbackData@P6A?AVValue@Napi@@AEBVCallbackInfo@2@@ZV12@@details@Napi@@@details@Napi@@YA?AW4napi_status@@PEAUnapi_env__@@PEAUnapi_value__@@PEAU?$CallbackData@P6A?AVValue@Napi@@AEBVCallbackInfo@2@@ZV12@@01@@Z 000000018002c958     ffi.obj
 0002:0000a958       $unwind$??$AttachData@U?$CallbackData@P6AXAEBVCallbackInfo@Napi@@@ZX@details@Napi@@@details@Napi@@YA?AW4napi_status@@PEAUnapi_env__@@PEAUnapi_value__@@PEAU?$CallbackData@P6AXAEBVCallbackInfo@Napi@@@ZX@01@@Z 000000018002c958     ffi.obj
 0002:0000a968       $unwind$?Set@ObjectReference@Napi@@QEAAXPEBDVValue@2@@Z 000000018002c968     callback_info.obj
 0002:0000a988       $ip2state$?Set@ObjectReference@Napi@@QEAAXPEBDVValue@2@@Z 000000018002c988     callback_info.obj
 0002:0000a9a0       $unwind$?Call@FunctionReference@Napi@@QEBA?AVValue@2@AEBV?$initializer_list@PEAUnapi_value__@@@std@@@Z 000000018002c9a0     callback_info.obj
 0002:0000a9c4       $stateUnwindMap$?Call@FunctionReference@Napi@@QEBA?AVValue@2@AEBV?$initializer_list@PEAUnapi_value__@@@std@@@Z 000000018002c9c4     callback_info.obj
 0002:0000a9d0       $ip2state$?Call@FunctionReference@Napi@@QEBA?AVValue@2@AEBV?$initializer_list@PEAUnapi_value__@@@std@@@Z 000000018002c9d0     callback_info.obj
 0002:0000a9f8       $unwind$?closure_pointer_cb@FFI@@YAXVEnv@Napi@@PEADPEAX@Z 000000018002c9f8     callback_info.obj
 0002:0000aa08       $stateUnwindMap$?closure_pointer_cb@FFI@@YAXVEnv@Napi@@PEADPEAX@Z 000000018002ca08     callback_info.obj
 0002:0000aa38       $ip2state$?closure_pointer_cb@FFI@@YAXVEnv@Napi@@PEADPEAX@Z 000000018002ca38     callback_info.obj
 0002:0000aa58       $unwind$?DispatchToV8@CallbackInfo@FFI@@KAXPEAUcallback_info@2@PEAXPEAPEAX_N@Z 000000018002ca58     callback_info.obj
 0002:0000aa7c       $stateUnwindMap$?DispatchToV8@CallbackInfo@FFI@@KAXPEAUcallback_info@2@PEAXPEAPEAX_N@Z 000000018002ca7c     callback_info.obj
 0002:0000aa9c       $tryMap$?DispatchToV8@CallbackInfo@FFI@@KAXPEAUcallback_info@2@PEAXPEAPEAX_N@Z 000000018002ca9c     callback_info.obj
 0002:0000aab0       $handlerMap$0$?DispatchToV8@CallbackInfo@FFI@@KAXPEAUcallback_info@2@PEAXPEAPEAX_N@Z 000000018002cab0     callback_info.obj
 0002:0000aac8       $ip2state$?DispatchToV8@CallbackInfo@FFI@@KAXPEAUcallback_info@2@PEAXPEAPEAX_N@Z 000000018002cac8     callback_info.obj
 0002:0000ab00       $unwind$?catch$3@?0??DispatchToV8@CallbackInfo@FFI@@KAXPEAUcallback_info@2@PEAXPEAPEAX_N@Z@4HA 000000018002cb00     callback_info.obj
 0002:0000ab10       $unwind$?WatcherCallback@CallbackInfo@FFI@@SAXPEAUuv_async_s@@@Z 000000018002cb10     callback_info.obj
 0002:0000ab1c       $chain$3$?WatcherCallback@CallbackInfo@FFI@@SAXPEAUuv_async_s@@@Z 000000018002cb1c     callback_info.obj
 0002:0000ab3c       $chain$4$?WatcherCallback@CallbackInfo@FFI@@SAXPEAUuv_async_s@@@Z 000000018002cb3c     callback_info.obj
 0002:0000ab4c       $unwind$?Callback@CallbackInfo@FFI@@KA?AVValue@Napi@@AEBV14@@Z 000000018002cb4c     callback_info.obj
 0002:0000ab74       $stateUnwindMap$?Callback@CallbackInfo@FFI@@KA?AVValue@Napi@@AEBV14@@Z 000000018002cb74     callback_info.obj
 0002:0000abc0       $ip2state$?Callback@CallbackInfo@FFI@@KA?AVValue@Napi@@AEBV14@@Z 000000018002cbc0     callback_info.obj
 0002:0000ac18       $unwind$?Invoke@CallbackInfo@FFI@@KAXPEAUffi_cif@@PEAXPEAPEAX1@Z 000000018002cc18     callback_info.obj
 0002:0000ac38       $stateUnwindMap$?Invoke@CallbackInfo@FFI@@KAXPEAUffi_cif@@PEAXPEAPEAX1@Z 000000018002cc38     callback_info.obj
 0002:0000ac40       $ip2state$?Invoke@CallbackInfo@FFI@@KAXPEAUffi_cif@@PEAXPEAPEAX1@Z 000000018002cc40     callback_info.obj
 0002:0000ac58       $unwind$?Initialize@CallbackInfo@FFI@@SA?AVFunction@Napi@@VEnv@4@@Z 000000018002cc58     callback_info.obj
 0002:0000ac7c       $stateUnwindMap$?Initialize@CallbackInfo@FFI@@SA?AVFunction@Napi@@VEnv@4@@Z 000000018002cc7c     callback_info.obj
 0002:0000ac90       $ip2state$?Initialize@CallbackInfo@FFI@@SA?AVFunction@Napi@@VEnv@4@@Z 000000018002cc90     callback_info.obj
 0002:0000acb8       $unwind$??1?$unique_ptr@UPerEnvironmentData@FFI@@U?$default_delete@UPerEnvironmentData@FFI@@@std@@@std@@QEAA@XZ 000000018002ccb8     callback_info.obj
 0002:0000acb8       $unwind$??1?$unique_ptr@VThreadedCallbackInvokation@FFI@@U?$default_delete@VThreadedCallbackInvokation@FFI@@@std@@@std@@QEAA@XZ 000000018002ccb8     callback_info.obj
 0002:0000acc0       $chain$0$??1?$unique_ptr@VThreadedCallbackInvokation@FFI@@U?$default_delete@VThreadedCallbackInvokation@FFI@@@std@@@std@@QEAA@XZ 000000018002ccc0     callback_info.obj
 0002:0000acd4       $chain$1$??1?$unique_ptr@VThreadedCallbackInvokation@FFI@@U?$default_delete@VThreadedCallbackInvokation@FFI@@@std@@@std@@QEAA@XZ 000000018002ccd4     callback_info.obj
 0002:0000ace4       $unwind$??0?$unordered_map@PEAUnapi_env__@@V?$unique_ptr@UPerEnvironmentData@FFI@@U?$default_delete@UPerEnvironmentData@FFI@@@std@@@std@@U?$hash@PEAUnapi_env__@@@3@U?$equal_to@PEAUnapi_env__@@@3@V?$allocator@U?$pair@QEAUnapi_env__@@V?$unique_ptr@UPerEnvironmentData@FFI@@U?$default_delete@UPerEnvironmentData@FFI@@@std@@@std@@@std@@@3@@std@@QEAA@XZ 000000018002cce4     callback_info.obj
 0002:0000acf4       $stateUnwindMap$??0?$unordered_map@PEAUnapi_env__@@V?$unique_ptr@UPerEnvironmentData@FFI@@U?$default_delete@UPerEnvironmentData@FFI@@@std@@@std@@U?$hash@PEAUnapi_env__@@@3@U?$equal_to@PEAUnapi_env__@@@3@V?$allocator@U?$pair@QEAUnapi_env__@@V?$unique_ptr@UPerEnvironmentData@FFI@@U?$default_delete@UPerEnvironmentData@FFI@@@std@@@std@@@std@@@3@@std@@QEAA@XZ 000000018002ccf4     callback_info.obj
 0002:0000ad08       $ip2state$??0?$unordered_map@PEAUnapi_env__@@V?$unique_ptr@UPerEnvironmentData@FFI@@U?$default_delete@UPerEnvironmentData@FFI@@@std@@@std@@U?$hash@PEAUnapi_env__@@@3@U?$equal_to@PEAUnapi_env__@@@3@V?$allocator@U?$pair@QEAUnapi_env__@@V?$unique_ptr@UPerEnvironmentData@FFI@@U?$default_delete@UPerEnvironmentData@FFI@@@std@@@std@@@std@@@3@@std@@QEAA@XZ 000000018002cd08     callback_info.obj
 0002:0000ad28       $chain$0$??1?$unique_ptr@UPerEnvironmentData@FFI@@U?$default_delete@UPerEnvironmentData@FFI@@@std@@@std@@QEAA@XZ 000000018002cd28     callback_info.obj
 0002:0000ad3c       $chain$1$??1?$unique_ptr@UPerEnvironmentData@FFI@@U?$default_delete@UPerEnvironmentData@FFI@@@std@@@std@@QEAA@XZ 000000018002cd3c     callback_info.obj
 0002:0000ad4c       $unwind$?_Init@?$_Hash@V?$_Umap_traits@PEAUnapi_env__@@V?$unique_ptr@UPerEnvironmentData@FFI@@U?$default_delete@UPerEnvironmentData@FFI@@@std@@@std@@V?$_Uhash_compare@PEAUnapi_env__@@U?$hash@PEAUnapi_env__@@@std@@U?$equal_to@PEAUnapi_env__@@@3@@3@V?$allocator@U?$pair@QEAUnapi_env__@@V?$unique_ptr@UPerEnvironmentData@FFI@@U?$default_delete@UPerEnvironmentData@FFI@@@std@@@std@@@std@@@3@$0A@@std@@@std@@IEAAX_K@Z 000000018002cd4c     callback_info.obj
 0002:0000ad5c       $unwind$?_Growmap@?$deque@PEAVThreadedCallbackInvokation@FFI@@V?$allocator@PEAVThreadedCallbackInvokation@FFI@@@std@@@std@@IEAAX_K@Z 000000018002cd5c     callback_info.obj
 0002:0000ad68       $chain$1$?_Growmap@?$deque@PEAVThreadedCallbackInvokation@FFI@@V?$allocator@PEAVThreadedCallbackInvokation@FFI@@@std@@@std@@IEAAX_K@Z 000000018002cd68     callback_info.obj
 0002:0000ad80       $chain$5$?_Growmap@?$deque@PEAVThreadedCallbackInvokation@FFI@@V?$allocator@PEAVThreadedCallbackInvokation@FFI@@@std@@@std@@IEAAX_K@Z 000000018002cd80     callback_info.obj
 0002:0000ada0       $chain$6$?_Growmap@?$deque@PEAVThreadedCallbackInvokation@FFI@@V?$allocator@PEAVThreadedCallbackInvokation@FFI@@@std@@@std@@IEAAX_K@Z 000000018002cda0     callback_info.obj
 0002:0000adb0       $chain$8$?_Growmap@?$deque@PEAVThreadedCallbackInvokation@FFI@@V?$allocator@PEAVThreadedCallbackInvokation@FFI@@@std@@@std@@IEAAX_K@Z 000000018002cdb0     callback_info.obj
 0002:0000adc8       $chain$9$?_Growmap@?$deque@PEAVThreadedCallbackInvokation@FFI@@V?$allocator@PEAVThreadedCallbackInvokation@FFI@@@std@@@std@@IEAAX_K@Z 000000018002cdc8     callback_info.obj
 0002:0000add8       $unwind$?clear@?$list@U?$pair@QEAUnapi_env__@@V?$unique_ptr@UPerEnvironmentData@FFI@@U?$default_delete@UPerEnvironmentData@FFI@@@std@@@std@@@std@@V?$allocator@U?$pair@QEAUnapi_env__@@V?$unique_ptr@UPerEnvironmentData@FFI@@U?$default_delete@UPerEnvironmentData@FFI@@@std@@@std@@@std@@@2@@std@@QEAAXXZ 000000018002cdd8     callback_info.obj
 0002:0000ade4       $chain$2$?clear@?$list@U?$pair@QEAUnapi_env__@@V?$unique_ptr@UPerEnvironmentData@FFI@@U?$default_delete@UPerEnvironmentData@FFI@@@std@@@std@@@std@@V?$allocator@U?$pair@QEAUnapi_env__@@V?$unique_ptr@UPerEnvironmentData@FFI@@U?$default_delete@UPerEnvironmentData@FFI@@@std@@@std@@@std@@@2@@std@@QEAAXXZ 000000018002cde4     callback_info.obj
 0002:0000ae00       $chain$3$?clear@?$list@U?$pair@QEAUnapi_env__@@V?$unique_ptr@UPerEnvironmentData@FFI@@U?$default_delete@UPerEnvironmentData@FFI@@@std@@@std@@@std@@V?$allocator@U?$pair@QEAUnapi_env__@@V?$unique_ptr@UPerEnvironmentData@FFI@@U?$default_delete@UPerEnvironmentData@FFI@@@std@@@std@@@std@@@2@@std@@QEAAXXZ 000000018002ce00     callback_info.obj
 0002:0000ae10       $unwind$?_Reallocate@?$vector@V?$_List_unchecked_iterator@V?$_List_val@U?$_List_simple_types@U?$pair@QEAUnapi_env__@@V?$unique_ptr@UPerEnvironmentData@FFI@@U?$default_delete@UPerEnvironmentData@FFI@@@std@@@std@@@std@@@std@@@std@@@std@@U?$_Wrap_alloc@V?$allocator@V?$_List_unchecked_iterator@V?$_List_val@U?$_List_simple_types@U?$pair@QEAUnapi_env__@@V?$unique_ptr@UPerEnvironmentData@FFI@@U?$default_delete@UPerEnvironmentData@FFI@@@std@@@std@@@std@@@std@@@std@@@std@@@std@@@2@@std@@IEAAX_K@Z 000000018002ce10     callback_info.obj
 0002:0000ae28       $unwind$?_Insert_n@?$vector@V?$_List_unchecked_iterator@V?$_List_val@U?$_List_simple_types@U?$pair@QEAUnapi_env__@@V?$unique_ptr@UPerEnvironmentData@FFI@@U?$default_delete@UPerEnvironmentData@FFI@@@std@@@std@@@std@@@std@@@std@@@std@@U?$_Wrap_alloc@V?$allocator@V?$_List_unchecked_iterator@V?$_List_val@U?$_List_simple_types@U?$pair@QEAUnapi_env__@@V?$unique_ptr@UPerEnvironmentData@FFI@@U?$default_delete@UPerEnvironmentData@FFI@@@std@@@std@@@std@@@std@@@std@@@std@@@std@@@2@@std@@IEAA?AV?$_Vector_iterator@V?$_Vector_val@U?$_Simple_types@V?$_List_unchecked_iterator@V?$_List_val@U?$_List_simple_types@U?$pair@QEAUnapi_env__@@V?$unique_ptr@UPerEnvironmentData@FFI@@U?$default_delete@UPerEnvironmentData@FFI@@@std@@@std@@@std@@@std@@@std@@@std@@@std@@@std@@@2@V?$_Vector_const_iterator@V?$_Vector_val@U?$_Simple_types@V?$_List_unchecked_iterator@V?$_List_val@U?$_List_simple_types@U?$pair@QEAUnapi_env__@@V?$unique_ptr@UPerEnvironmentData@FFI@@U?$default_delete@UPerEnvironmentData@FFI@@@std@@@std@@@std@@@std@@@std@@@std@@@std@@@std@@@2@_KAEBV?$_List_unchecked_iterator@V?$_List_val@U?$_List_simple_types@U?$pair@QEAUnapi_env__@@V?$unique_ptr@UPerEnvironmentData@FFI@@U?$default_delete@UPerEnvironmentData@FFI@@@std@@@std@@@std@@@std@@@std@@@2@@Z 000000018002ce28     callback_info.obj
 0002:0000ae40       $unwind$??$New@P6AXVEnv@Napi@@PEADPEAX@ZUcallback_info@FFI@@@?$Buffer@D@Napi@@SA?AV01@PEAUnapi_env__@@PEAD_KP6AXVEnv@1@1PEAX@ZPEAUcallback_info@FFI@@@Z 000000018002ce40     callback_info.obj
 0002:0000ae5c       $unwind$??$_Try_emplace@PEAUnapi_env__@@$$V@?$unordered_map@PEAUnapi_env__@@V?$unique_ptr@UPerEnvironmentData@FFI@@U?$default_delete@UPerEnvironmentData@FFI@@@std@@@std@@U?$hash@PEAUnapi_env__@@@3@U?$equal_to@PEAUnapi_env__@@@3@V?$allocator@U?$pair@QEAUnapi_env__@@V?$unique_ptr@UPerEnvironmentData@FFI@@U?$default_delete@UPerEnvironmentData@FFI@@@std@@@std@@@std@@@3@@std@@QEAA?AU?$pair@V?$_List_iterator@V?$_List_val@U?$_List_simple_types@U?$pair@QEAUnapi_env__@@V?$unique_ptr@UPerEnvironmentData@FFI@@U?$default_delete@UPerEnvironmentData@FFI@@@std@@@std@@@std@@@std@@@std@@@std@@_N@1@$$QEAPEAUnapi_env__@@@Z 000000018002ce5c     callback_info.obj
 0002:0000ae6c       $chain$0$??$_Try_emplace@PEAUnapi_env__@@$$V@?$unordered_map@PEAUnapi_env__@@V?$unique_ptr@UPerEnvironmentData@FFI@@U?$default_delete@UPerEnvironmentData@FFI@@@std@@@std@@U?$hash@PEAUnapi_env__@@@3@U?$equal_to@PEAUnapi_env__@@@3@V?$allocator@U?$pair@QEAUnapi_env__@@V?$unique_ptr@UPerEnvironmentData@FFI@@U?$default_delete@UPerEnvironmentData@FFI@@@std@@@std@@@std@@@3@@std@@QEAA?AU?$pair@V?$_List_iterator@V?$_List_val@U?$_List_simple_types@U?$pair@QEAUnapi_env__@@V?$unique_ptr@UPerEnvironmentData@FFI@@U?$default_delete@UPerEnvironmentData@FFI@@@std@@@std@@@std@@@std@@@std@@@std@@_N@1@$$QEAPEAUnapi_env__@@@Z 000000018002ce6c     callback_info.obj
 0002:0000ae80       $chain$1$??$_Try_emplace@PEAUnapi_env__@@$$V@?$unordered_map@PEAUnapi_env__@@V?$unique_ptr@UPerEnvironmentData@FFI@@U?$default_delete@UPerEnvironmentData@FFI@@@std@@@std@@U?$hash@PEAUnapi_env__@@@3@U?$equal_to@PEAUnapi_env__@@@3@V?$allocator@U?$pair@QEAUnapi_env__@@V?$unique_ptr@UPerEnvironmentData@FFI@@U?$default_delete@UPerEnvironmentData@FFI@@@std@@@std@@@std@@@3@@std@@QEAA?AU?$pair@V?$_List_iterator@V?$_List_val@U?$_List_simple_types@U?$pair@QEAUnapi_env__@@V?$unique_ptr@UPerEnvironmentData@FFI@@U?$default_delete@UPerEnvironmentData@FFI@@@std@@@std@@@std@@@std@@@std@@@std@@_N@1@$$QEAPEAUnapi_env__@@@Z 000000018002ce80     callback_info.obj
 0002:0000ae90       $unwind$??$_Insert@AEAU?$pair@QEAUnapi_env__@@V?$unique_ptr@UPerEnvironmentData@FFI@@U?$default_delete@UPerEnvironmentData@FFI@@@std@@@std@@@std@@V?$_List_unchecked_iterator@V?$_List_val@U?$_List_simple_types@U?$pair@QEAUnapi_env__@@V?$unique_ptr@UPerEnvironmentData@FFI@@U?$default_delete@UPerEnvironmentData@FFI@@@std@@@std@@@std@@@std@@@std@@@2@@?$_Hash@V?$_Umap_traits@PEAUnapi_env__@@V?$unique_ptr@UPerEnvironmentData@FFI@@U?$default_delete@UPerEnvironmentData@FFI@@@std@@@std@@V?$_Uhash_compare@PEAUnapi_env__@@U?$hash@PEAUnapi_env__@@@std@@U?$equal_to@PEAUnapi_env__@@@3@@3@V?$allocator@U?$pair@QEAUnapi_env__@@V?$unique_ptr@UPerEnvironmentData@FFI@@U?$default_delete@UPerEnvironmentData@FFI@@@std@@@std@@@std@@@3@$0A@@std@@@std@@IEAA?AU?$pair@V?$_List_iterator@V?$_List_val@U?$_List_simple_types@U?$pair@QEAUnapi_env__@@V?$unique_ptr@UPerEnvironmentData@FFI@@U?$default_delete@UPerEnvironmentData@FFI@@@std@@@std@@@std@@@std@@@std@@@std@@_N@1@AEAU?$pair@QEAUnapi_env__@@V?$unique_ptr@UPerEnvironmentData@FFI@@U?$default_delete@UPerEnvironmentData@FFI@@@std@@@std@@@1@V?$_List_unchecked_iterator@V?$_List_val@U?$_List_simple_types@U?$pair@QEAUnapi_env__@@V?$unique_ptr@UPerEnvironmentData@FFI@@U?$default_delete@UPerEnvironmentData@FFI@@@std@@@std@@@std@@@std@@@std@@@1@@Z 000000018002ce90     callback_info.obj
 0002:0000aea0       $chain$0$??$_Insert@AEAU?$pair@QEAUnapi_env__@@V?$unique_ptr@UPerEnvironmentData@FFI@@U?$default_delete@UPerEnvironmentData@FFI@@@std@@@std@@@std@@V?$_List_unchecked_iterator@V?$_List_val@U?$_List_simple_types@U?$pair@QEAUnapi_env__@@V?$unique_ptr@UPerEnvironmentData@FFI@@U?$default_delete@UPerEnvironmentData@FFI@@@std@@@std@@@std@@@std@@@std@@@2@@?$_Hash@V?$_Umap_traits@PEAUnapi_env__@@V?$unique_ptr@UPerEnvironmentData@FFI@@U?$default_delete@UPerEnvironmentData@FFI@@@std@@@std@@V?$_Uhash_compare@PEAUnapi_env__@@U?$hash@PEAUnapi_env__@@@std@@U?$equal_to@PEAUnapi_env__@@@3@@3@V?$allocator@U?$pair@QEAUnapi_env__@@V?$unique_ptr@UPerEnvironmentData@FFI@@U?$default_delete@UPerEnvironmentData@FFI@@@std@@@std@@@std@@@3@$0A@@std@@@std@@IEAA?AU?$pair@V?$_List_iterator@V?$_List_val@U?$_List_simple_types@U?$pair@QEAUnapi_env__@@V?$unique_ptr@UPerEnvironmentData@FFI@@U?$default_delete@UPerEnvironmentData@FFI@@@std@@@std@@@std@@@std@@@std@@@std@@_N@1@AEAU?$pair@QEAUnapi_env__@@V?$unique_ptr@UPerEnvironmentData@FFI@@U?$default_delete@UPerEnvironmentData@FFI@@@std@@@std@@@1@V?$_List_unchecked_iterator@V?$_List_val@U?$_List_simple_types@U?$pair@QEAUnapi_env__@@V?$unique_ptr@UPerEnvironmentData@FFI@@U?$default_delete@UPerEnvironmentData@FFI@@@std@@@std@@@std@@@std@@@std@@@1@@Z 000000018002cea0     callback_info.obj
 0002:0000aeb4       $chain$1$??$_Insert@AEAU?$pair@QEAUnapi_env__@@V?$unique_ptr@UPerEnvironmentData@FFI@@U?$default_delete@UPerEnvironmentData@FFI@@@std@@@std@@@std@@V?$_List_unchecked_iterator@V?$_List_val@U?$_List_simple_types@U?$pair@QEAUnapi_env__@@V?$unique_ptr@UPerEnvironmentData@FFI@@U?$default_delete@UPerEnvironmentData@FFI@@@std@@@std@@@std@@@std@@@std@@@2@@?$_Hash@V?$_Umap_traits@PEAUnapi_env__@@V?$unique_ptr@UPerEnvironmentData@FFI@@U?$default_delete@UPerEnvironmentData@FFI@@@std@@@std@@V?$_Uhash_compare@PEAUnapi_env__@@U?$hash@PEAUnapi_env__@@@std@@U?$equal_to@PEAUnapi_env__@@@3@@3@V?$allocator@U?$pair@QEAUnapi_env__@@V?$unique_ptr@UPerEnvironmentData@FFI@@U?$default_delete@UPerEnvironmentData@FFI@@@std@@@std@@@std@@@3@$0A@@std@@@std@@IEAA?AU?$pair@V?$_List_iterator@V?$_List_val@U?$_List_simple_types@U?$pair@QEAUnapi_env__@@V?$unique_ptr@UPerEnvironmentData@FFI@@U?$default_delete@UPerEnvironmentData@FFI@@@std@@@std@@@std@@@std@@@std@@@std@@_N@1@AEAU?$pair@QEAUnapi_env__@@V?$unique_ptr@UPerEnvironmentData@FFI@@U?$default_delete@UPerEnvironmentData@FFI@@@std@@@std@@@1@V?$_List_unchecked_iterator@V?$_List_val@U?$_List_simple_types@U?$pair@QEAUnapi_env__@@V?$unique_ptr@UPerEnvironmentData@FFI@@U?$default_delete@UPerEnvironmentData@FFI@@@std@@@std@@@std@@@std@@@std@@@1@@Z 000000018002ceb4     callback_info.obj
 0002:0000aec8       $chain$2$??$_Insert@AEAU?$pair@QEAUnapi_env__@@V?$unique_ptr@UPerEnvironmentData@FFI@@U?$default_delete@UPerEnvironmentData@FFI@@@std@@@std@@@std@@V?$_List_unchecked_iterator@V?$_List_val@U?$_List_simple_types@U?$pair@QEAUnapi_env__@@V?$unique_ptr@UPerEnvironmentData@FFI@@U?$default_delete@UPerEnvironmentData@FFI@@@std@@@std@@@std@@@std@@@std@@@2@@?$_Hash@V?$_Umap_traits@PEAUnapi_env__@@V?$unique_ptr@UPerEnvironmentData@FFI@@U?$default_delete@UPerEnvironmentData@FFI@@@std@@@std@@V?$_Uhash_compare@PEAUnapi_env__@@U?$hash@PEAUnapi_env__@@@std@@U?$equal_to@PEAUnapi_env__@@@3@@3@V?$allocator@U?$pair@QEAUnapi_env__@@V?$unique_ptr@UPerEnvironmentData@FFI@@U?$default_delete@UPerEnvironmentData@FFI@@@std@@@std@@@std@@@3@$0A@@std@@@std@@IEAA?AU?$pair@V?$_List_iterator@V?$_List_val@U?$_List_simple_types@U?$pair@QEAUnapi_env__@@V?$unique_ptr@UPerEnvironmentData@FFI@@U?$default_delete@UPerEnvironmentData@FFI@@@std@@@std@@@std@@@std@@@std@@@std@@_N@1@AEAU?$pair@QEAUnapi_env__@@V?$unique_ptr@UPerEnvironmentData@FFI@@U?$default_delete@UPerEnvironmentData@FFI@@@std@@@std@@@1@V?$_List_unchecked_iterator@V?$_List_val@U?$_List_simple_types@U?$pair@QEAUnapi_env__@@V?$unique_ptr@UPerEnvironmentData@FFI@@U?$default_delete@UPerEnvironmentData@FFI@@@std@@@std@@@std@@@std@@@std@@@1@@Z 000000018002cec8     callback_info.obj
 0002:0000aed8       $chain$3$??$_Insert@AEAU?$pair@QEAUnapi_env__@@V?$unique_ptr@UPerEnvironmentData@FFI@@U?$default_delete@UPerEnvironmentData@FFI@@@std@@@std@@@std@@V?$_List_unchecked_iterator@V?$_List_val@U?$_List_simple_types@U?$pair@QEAUnapi_env__@@V?$unique_ptr@UPerEnvironmentData@FFI@@U?$default_delete@UPerEnvironmentData@FFI@@@std@@@std@@@std@@@std@@@std@@@2@@?$_Hash@V?$_Umap_traits@PEAUnapi_env__@@V?$unique_ptr@UPerEnvironmentData@FFI@@U?$default_delete@UPerEnvironmentData@FFI@@@std@@@std@@V?$_Uhash_compare@PEAUnapi_env__@@U?$hash@PEAUnapi_env__@@@std@@U?$equal_to@PEAUnapi_env__@@@3@@3@V?$allocator@U?$pair@QEAUnapi_env__@@V?$unique_ptr@UPerEnvironmentData@FFI@@U?$default_delete@UPerEnvironmentData@FFI@@@std@@@std@@@std@@@3@$0A@@std@@@std@@IEAA?AU?$pair@V?$_List_iterator@V?$_List_val@U?$_List_simple_types@U?$pair@QEAUnapi_env__@@V?$unique_ptr@UPerEnvironmentData@FFI@@U?$default_delete@UPerEnvironmentData@FFI@@@std@@@std@@@std@@@std@@@std@@@std@@_N@1@AEAU?$pair@QEAUnapi_env__@@V?$unique_ptr@UPerEnvironmentData@FFI@@U?$default_delete@UPerEnvironmentData@FFI@@@std@@@std@@@1@V?$_List_unchecked_iterator@V?$_List_val@U?$_List_simple_types@U?$pair@QEAUnapi_env__@@V?$unique_ptr@UPerEnvironmentData@FFI@@U?$default_delete@UPerEnvironmentData@FFI@@@std@@@std@@@std@@@std@@@std@@@1@@Z 000000018002ced8     callback_info.obj
 0002:0000aee8       $unwind$?_Check_size@?$_Hash@V?$_Umap_traits@PEAUnapi_env__@@V?$unique_ptr@UPerEnvironmentData@FFI@@U?$default_delete@UPerEnvironmentData@FFI@@@std@@@std@@V?$_Uhash_compare@PEAUnapi_env__@@U?$hash@PEAUnapi_env__@@@std@@U?$equal_to@PEAUnapi_env__@@@3@@3@V?$allocator@U?$pair@QEAUnapi_env__@@V?$unique_ptr@UPerEnvironmentData@FFI@@U?$default_delete@UPerEnvironmentData@FFI@@@std@@@std@@@std@@@3@$0A@@std@@@std@@IEAAXXZ 000000018002cee8     callback_info.obj
 0002:0000aef0       $chain$1$?_Check_size@?$_Hash@V?$_Umap_traits@PEAUnapi_env__@@V?$unique_ptr@UPerEnvironmentData@FFI@@U?$default_delete@UPerEnvironmentData@FFI@@@std@@@std@@V?$_Uhash_compare@PEAUnapi_env__@@U?$hash@PEAUnapi_env__@@@std@@U?$equal_to@PEAUnapi_env__@@@3@@3@V?$allocator@U?$pair@QEAUnapi_env__@@V?$unique_ptr@UPerEnvironmentData@FFI@@U?$default_delete@UPerEnvironmentData@FFI@@@std@@@std@@@std@@@3@$0A@@std@@@std@@IEAAXXZ 000000018002cef0     callback_info.obj
 0002:0000af08       $chain$2$?_Check_size@?$_Hash@V?$_Umap_traits@PEAUnapi_env__@@V?$unique_ptr@UPerEnvironmentData@FFI@@U?$default_delete@UPerEnvironmentData@FFI@@@std@@@std@@V?$_Uhash_compare@PEAUnapi_env__@@U?$hash@PEAUnapi_env__@@@std@@U?$equal_to@PEAUnapi_env__@@@3@@3@V?$allocator@U?$pair@QEAUnapi_env__@@V?$unique_ptr@UPerEnvironmentData@FFI@@U?$default_delete@UPerEnvironmentData@FFI@@@std@@@std@@@std@@@3@$0A@@std@@@std@@IEAAXXZ 000000018002cf08     callback_info.obj
 0002:0000af18       $unwind$sprintf            000000018002cf18     win32-dlfcn.obj
 0002:0000af18       $unwind$fwprintf           000000018002cf18     libucrt:assert.obj
 0002:0000af24       $unwind$UTF8toWCHAR        000000018002cf24     win32-dlfcn.obj
 0002:0000af30       $chain$0$UTF8toWCHAR       000000018002cf30     win32-dlfcn.obj
 0002:0000af44       $chain$4$UTF8toWCHAR       000000018002cf44     win32-dlfcn.obj
 0002:0000af44       $chain$2$UTF8toWCHAR       000000018002cf44     win32-dlfcn.obj
 0002:0000af58       $chain$0$dlopen            000000018002cf58     win32-dlfcn.obj
 0002:0000af6c       $chain$4$dlopen            000000018002cf6c     win32-dlfcn.obj
 0002:0000af88       $chain$0$initialize_aggregate 000000018002cf88     libffi:prep_cif.obj
 0002:0000af9c       $chain$2$initialize_aggregate 000000018002cf9c     libffi:prep_cif.obj
 0002:0000afb0       $chain$3$initialize_aggregate 000000018002cfb0     libffi:prep_cif.obj
 0002:0000afc0       $unwind$ffi_prep_args      000000018002cfc0     libffi:ffi.obj
 0002:0000afd4       $chain$1$ffi_prep_args     000000018002cfd4     libffi:ffi.obj
 0002:0000afec       $chain$2$ffi_prep_args     000000018002cfec     libffi:ffi.obj
 0002:0000affc       $unwind$ffi_call           000000018002cffc     libffi:ffi.obj
 0002:0000b014       $unwind$ffi_closure_win64_inner 000000018002d014     libffi:ffi.obj
 0002:0000b038       $unwind$ffi_prep_closure_loc 000000018002d038     libffi:ffi.obj
 0002:0000b040       $chain$1$ffi_prep_closure_loc 000000018002d040     libffi:ffi.obj
 0002:0000b058       $chain$2$ffi_prep_closure_loc 000000018002d058     libffi:ffi.obj
 0002:0000b06c       $chain$3$ffi_prep_closure_loc 000000018002d06c     libffi:ffi.obj
 0002:0000b07c       $unwind$win32munmap        000000018002d07c     libffi:closures.obj
 0002:0000b088       $unwind$init_mparams       000000018002d088     libffi:closures.obj
 0002:0000b090       $chain$0$init_mparams      000000018002d090     libffi:closures.obj
 0002:0000b0a4       $chain$1$init_mparams      000000018002d0a4     libffi:closures.obj
 0002:0000b0b4       $unwind$prepend_alloc      000000018002d0b4     libffi:closures.obj
 0002:0000b0cc       $unwind$add_segment        000000018002d0cc     libffi:closures.obj
 0002:0000b0e4       $chain$0$sys_alloc         000000018002d0e4     libffi:closures.obj
 0002:0000b0f8       $chain$6$sys_alloc         000000018002d0f8     libffi:closures.obj
 0002:0000b0f8       $chain$4$sys_alloc         000000018002d0f8     libffi:closures.obj
 0002:0000b0f8       $chain$2$sys_alloc         000000018002d0f8     libffi:closures.obj
 0002:0000b10c       $chain$5$sys_alloc         000000018002d10c     libffi:closures.obj
 0002:0000b11c       $unwind$?try_get_function@@YAPEAXW4function_id@?A0x63058377@@QEBDQEBW4module_id@2@2@Z 000000018002d11c     libucrt:winapi_thunks.obj
 0002:0000b11c       $unwind$?try_get_function@@YAPEAXW4function_id@?A0x679b24ab@@QEBDQEBW4module_id@2@2@Z 000000018002d11c     libvcruntime:winapi_downlevel.obj
 0002:0000b11c       $unwind$?IsInExceptionSpec@@YAEPEAUEHExceptionRecord@@PEBU_s_ESTypeList@@@Z 000000018002d11c     libvcruntime:frame.obj
 0002:0000b11c       $unwind$release_unused_segments 000000018002d11c     libffi:closures.obj
 0002:0000b11c       $unwind$?write_string@?$string_output_adapter@_W@__crt_stdio_output@@QEBAXQEB_WHQEAH1@Z 000000018002d11c     libucrt:output.obj
 0002:0000b138       $unwind$sys_trim           000000018002d138     libffi:closures.obj
 0002:0000b148       $chain$1$sys_trim          000000018002d148     libffi:closures.obj
 0002:0000b160       $chain$2$sys_trim          000000018002d160     libffi:closures.obj
 0002:0000b170       $unwind$tmalloc_small      000000018002d170     libffi:closures.obj
 0002:0000b17c       $chain$1$tmalloc_small     000000018002d17c     libffi:closures.obj
 0002:0000b190       $chain$3$tmalloc_small     000000018002d190     libffi:closures.obj
 0002:0000b1a4       $chain$4$tmalloc_small     000000018002d1a4     libffi:closures.obj
 0002:0000b1b4       $unwind$dlmalloc           000000018002d1b4     libffi:closures.obj
 0002:0000b1c4       $chain$3$dlfree            000000018002d1c4     libffi:closures.obj
 0002:0000b1e4       $chain$4$dlfree            000000018002d1e4     libffi:closures.obj
 0002:0000b1f4       $chain$5$dlfree            000000018002d1f4     libffi:closures.obj
 0002:0000b214       xdata                      000000018002d214     node:node.exe
 0002:0000b220       $xdatasym                  000000018002d220     libffi:win64.obj
 0002:0000b238       $xdatasym                  000000018002d238     LIBCMT:_amdsecgs_.obj
 0002:0000b23c       $unwind$__scrt_is_nonwritable_in_current_image 000000018002d23c     LIBCMT:utility.obj
 0002:0000b25c       $unwind$__scrt_is_nonwritable_in_current_image$filt$0 000000018002d25c     LIBCMT:utility.obj
 0002:0000b264       $unwind$__scrt_initialize_onexit_tables 000000018002d264     LIBCMT:utility.obj
 0002:0000b270       $unwind$?dllmain_crt_process_attach@@YAHQEAUHINSTANCE__@@QEAX@Z 000000018002d270     LIBCMT:dll_dllmain.obj
 0002:0000b29c       $unwind$?dllmain_crt_process_detach@@YAH_N@Z 000000018002d29c     LIBCMT:dll_dllmain.obj
 0002:0000b2c4       $unwind$?dllmain_dispatch@@YAHQEAUHINSTANCE__@@KQEAX@Z 000000018002d2c4     LIBCMT:dll_dllmain.obj
 0002:0000b2ec       $unwind$?filt$0@?0??dllmain_dispatch@@YAHQEAUHINSTANCE__@@KQEAX@Z@4HA 000000018002d2ec     LIBCMT:dll_dllmain.obj
 0002:0000b2f8       $xdatasym                  000000018002d2f8     LIBCMT:_chkstk_.obj
 0002:0000b300       $unwind$__report_securityfailure 000000018002d300     LIBCMT:gs_report.obj
 0002:0000b308       $unwind$capture_current_context 000000018002d308     LIBCMT:gs_report.obj
 0002:0000b314       $unwind$capture_previous_context 000000018002d314     LIBCMT:gs_report.obj
 0002:0000b320       $unwind$?__scrt_throw_std_bad_alloc@@YAXXZ 000000018002d320     LIBCMT:throw_bad_alloc.obj
 0002:0000b320       $unwind$?_Xlength_error@std@@YAXPEBD@Z 000000018002d320     libcpmt:xthrow.obj
 0002:0000b320       $unwind$?_Xout_of_range@std@@YAXPEBD@Z 000000018002d320     libcpmt:xthrow.obj
 0002:0000b320       $unwind$?__scrt_throw_std_bad_array_new_length@@YAXXZ 000000018002d320     LIBCMT:throw_bad_alloc.obj
 0002:0000b320       $unwind$_raise_exc         000000018002d320     libucrt:fpexcept.obj
 0002:0000b320       $unwind$?_Xbad_alloc@std@@YAXXZ 000000018002d320     libcpmt:xthrow.obj
 0002:0000b320       $unwind$__dcrt_lowio_initialize_console_output 000000018002d320     libucrt:initcon.obj
 0002:0000b328       $unwind$__isa_available_init 000000018002d328     LIBCMT:_cpu_disp_.obj
 0002:0000b338       $unwind$__scrt_fastfail    000000018002d338     LIBCMT:utility_desktop.obj
 0002:0000b348       $unwind$__security_init_cookie 000000018002d348     LIBCMT:gs_support.obj
 0002:0000b358       $xdatasym                  000000018002d358     LIBCMT:_guard_dispatch_.obj
 0002:0000b360       $xdatasym                  000000018002d360     libvcruntime:memcpy.obj
 0002:0000b364       $unwind$__CxxCallCatchBlock 000000018002d364     libvcruntime:frame.obj
 0002:0000b3a0       $unwind$__CxxCallCatchBlock$fin$1 000000018002d3a0     libvcruntime:frame.obj
 0002:0000b3ac       $unwind$__FrameUnwindToState 000000018002d3ac     libvcruntime:frame.obj
 0002:0000b3e8       $unwind$?FindHandler@@YAXPEAUEHExceptionRecord@@PEA_KPEAU_CONTEXT@@PEAU_xDISPATCHER_CONTEXT@@PEBU_s_FuncInfo@@EH1@Z 000000018002d3e8     libvcruntime:frame.obj
 0002:0000b408       $unwind$?CatchIt@@YAXPEAUEHExceptionRecord@@PEA_KPEAU_CONTEXT@@PEAU_xDISPATCHER_CONTEXT@@PEBU_s_FuncInfo@@PEBU_s_HandlerType@@PEBU_s_CatchableType@@PEBU_s_TryBlockMapEntry@@H1EE@Z 000000018002d408     libvcruntime:frame.obj
 0002:0000b420       $unwind$__BuildCatchObject 000000018002d420     libvcruntime:frame.obj
 0002:0000b44c       $unwind$?FindHandlerForForeignException@@YAXPEAUEHExceptionRecord@@PEA_KPEAU_CONTEXT@@PEAU_xDISPATCHER_CONTEXT@@PEBU_s_FuncInfo@@HH1@Z 000000018002d44c     libvcruntime:frame.obj
 0002:0000b464       $unwind$__DestructExceptionObject 000000018002d464     libvcruntime:frame.obj
 0002:0000b488       $unwind$__C_specific_handler 000000018002d488     libvcruntime:_chandler_.obj
 0002:0000b488       $unwind$__InternalCxxFrameHandler 000000018002d488     libvcruntime:frame.obj
 0002:0000b4a4       $unwind$__BuildCatchObjectHelper 000000018002d4a4     libvcruntime:frame.obj
 0002:0000b4e4       $unwind$_CxxThrowException 000000018002d4e4     libvcruntime:throw.obj
 0002:0000b4f8       $xdatasym                  000000018002d4f8     libvcruntime:memset.obj
 0002:0000b500       $xdatasym                  000000018002d500     libvcruntime:handlers.obj
 0002:0000b508       $unwind$?_GetEstablisherFrame@@YAPEA_KPEA_KPEAU_xDISPATCHER_CONTEXT@@PEBU_s_FuncInfo@@0@Z 000000018002d508     libvcruntime:trnsctrl.obj
 0002:0000b520       $unwind$?__FrameUnwindToEmptyState@@YAXPEA_KPEAU_xDISPATCHER_CONTEXT@@PEBU_s_FuncInfo@@@Z 000000018002d520     libvcruntime:trnsctrl.obj
 0002:0000b534       $unwind$_CallSETranslator  000000018002d534     libvcruntime:trnsctrl.obj
 0002:0000b558       $unwind$_CallSETranslator$filt$0 000000018002d558     libvcruntime:trnsctrl.obj
 0002:0000b560       $unwind$_UnwindNestedFrames 000000018002d560     libvcruntime:trnsctrl.obj
 0002:0000b574       $unwind$__CxxFrameHandler3 000000018002d574     libvcruntime:trnsctrl.obj
 0002:0000b584       $unwind$?__SehTransFilter@@YAHPEAU_EXCEPTION_POINTERS@@PEAUEHExceptionRecord@@PEA_KPEAU_CONTEXT@@PEAU_xDISPATCHER_CONTEXT@@PEBU_s_FuncInfo@@PEAH@Z 000000018002d584     libvcruntime:trnsctrl.obj
 0002:0000b598       $xdatasym                  000000018002d598     libvcruntime:_jmpuwind_.obj
 0002:0000b5ac       $unwind$swprintf           000000018002d5ac     libucrt:assert.obj
 0002:0000b5bc       $unwind$??$common_assert_to_stderr@_W@@YAXQEB_W0I@Z 000000018002d5bc     libucrt:assert.obj
 0002:0000b5d8       $unwind$??$common_assert_to_message_box@_W@@YAXQEB_W0IQEAX@Z 000000018002d5d8     libucrt:assert.obj
 0002:0000b5f4       $unwind$??$common_assert_to_message_box_build_string@_W@@YAXQEA_W_KQEB_W2IQEAX@Z 000000018002d5f4     libucrt:assert.obj
 0002:0000b614       $unwind$__acrt_call_reportfault 000000018002d614     libucrt:invalid_parameter.obj
 0002:0000b634       $unwind$_invalid_parameter 000000018002d634     libucrt:invalid_parameter.obj
 0002:0000b64c       $unwind$__stdio_common_vfwprintf 000000018002d64c     libucrt:output.obj
 0002:0000b654       $unwind$__stdio_common_vswprintf 000000018002d654     libucrt:output.obj
 0002:0000b654       $unwind$__stdio_common_vsprintf 000000018002d654     libucrt:output.obj
 0002:0000b678       $unwind$?write_string@?$stream_output_adapter@_W@__crt_stdio_output@@QEBAXQEB_WHQEAH1@Z 000000018002d678     libucrt:output.obj
 0002:0000b690       $unwind$?process@?$output_processor@_WV?$stream_output_adapter@_W@__crt_stdio_output@@V?$standard_base@_WV?$stream_output_adapter@_W@__crt_stdio_output@@@2@@__crt_stdio_output@@QEAAHXZ 000000018002d690     libucrt:output.obj
 0002:0000b6a8       $unwind$?parse_int_from_format_string@?$output_processor@_WV?$stream_output_adapter@_W@__crt_stdio_output@@V?$standard_base@_WV?$stream_output_adapter@_W@__crt_stdio_output@@@2@@__crt_stdio_output@@AEAA_NQEAH@Z 000000018002d6a8     libucrt:output.obj
 0002:0000b6a8       $unwind$?parse_int_from_format_string@?$output_processor@_WV?$string_output_adapter@_W@__crt_stdio_output@@V?$standard_base@_WV?$string_output_adapter@_W@__crt_stdio_output@@@2@@__crt_stdio_output@@AEAA_NQEAH@Z 000000018002d6a8     libucrt:output.obj
 0002:0000b6bc       $unwind$?state_case_type@?$output_processor@_WV?$string_output_adapter@_W@__crt_stdio_output@@V?$standard_base@_WV?$string_output_adapter@_W@__crt_stdio_output@@@2@@__crt_stdio_output@@AEAA_NXZ 000000018002d6bc     libucrt:output.obj
 0002:0000b6bc       $unwind$?state_case_type@?$output_processor@_WV?$stream_output_adapter@_W@__crt_stdio_output@@V?$standard_base@_WV?$stream_output_adapter@_W@__crt_stdio_output@@@2@@__crt_stdio_output@@AEAA_NXZ 000000018002d6bc     libucrt:output.obj
 0002:0000b6e0       $unwind$?type_case_a@?$output_processor@_WV?$stream_output_adapter@_W@__crt_stdio_output@@V?$standard_base@_WV?$stream_output_adapter@_W@__crt_stdio_output@@@2@@__crt_stdio_output@@AEAA_NXZ 000000018002d6e0     libucrt:output.obj
 0002:0000b6e0       $unwind$?type_case_a@?$output_processor@_WV?$string_output_adapter@_W@__crt_stdio_output@@V?$standard_base@_WV?$string_output_adapter@_W@__crt_stdio_output@@@2@@__crt_stdio_output@@AEAA_NXZ 000000018002d6e0     libucrt:output.obj
 0002:0000b6f0       $unwind$?write_stored_string_tchar@?$output_processor@_WV?$stream_output_adapter@_W@__crt_stdio_output@@V?$standard_base@_WV?$stream_output_adapter@_W@__crt_stdio_output@@@2@@__crt_stdio_output@@AEAA_N_W@Z 000000018002d6f0     libucrt:output.obj
 0002:0000b704       $unwind$??R<lambda_dd75445284c072d0bd3768540cc698fa>@@QEBAHXZ 000000018002d704     libucrt:output.obj
 0002:0000b720       $unwind$?write_string@?$string_output_adapter@D@__crt_stdio_output@@QEBAXQEBDHQEAH1@Z 000000018002d720     libucrt:output.obj
 0002:0000b720       $unwind$?_GetRangeOfTrysToCheck@@YAPEBU_s_TryBlockMapEntry@@PEA_KPEBU_s_FuncInfo@@HHPEAI2PEAU_xDISPATCHER_CONTEXT@@@Z 000000018002d720     libvcruntime:trnsctrl.obj
 0002:0000b720       $unwind$??$parse_command_line@D@@YAXPEADPEAPEAD0PEA_K2@Z 000000018002d720     libucrt:argv_parsing.obj
 0002:0000b720       $unwind$??R<lambda_4e60a939b0d047cfe11ddc22648dfba9>@@QEBAHXZ 000000018002d720     libucrt:onexit.obj
 0002:0000b73c       $unwind$?process@?$output_processor@DV?$string_output_adapter@D@__crt_stdio_output@@V?$standard_base@DV?$string_output_adapter@D@__crt_stdio_output@@@2@@__crt_stdio_output@@QEAAHXZ 000000018002d73c     libucrt:output.obj
 0002:0000b74c       $unwind$?parse_int_from_format_string@?$output_processor@DV?$string_output_adapter@D@__crt_stdio_output@@V?$standard_base@DV?$string_output_adapter@D@__crt_stdio_output@@@2@@__crt_stdio_output@@AEAA_NQEAH@Z 000000018002d74c     libucrt:output.obj
 0002:0000b760       $unwind$?state_case_type@?$output_processor@DV?$string_output_adapter@D@__crt_stdio_output@@V?$standard_base@DV?$string_output_adapter@D@__crt_stdio_output@@@2@@__crt_stdio_output@@AEAA_NXZ 000000018002d760     libucrt:output.obj
 0002:0000b778       $unwind$?type_case_a@?$output_processor@DV?$string_output_adapter@D@__crt_stdio_output@@V?$standard_base@DV?$string_output_adapter@D@__crt_stdio_output@@@2@@__crt_stdio_output@@AEAA_NXZ 000000018002d778     libucrt:output.obj
 0002:0000b784       $unwind$?write_stored_string_tchar@?$output_processor@DV?$string_output_adapter@D@__crt_stdio_output@@V?$standard_base@DV?$string_output_adapter@D@__crt_stdio_output@@@2@@__crt_stdio_output@@AEAA_ND@Z 000000018002d784     libucrt:output.obj
 0002:0000b79c       $unwind$?write_stored_string_tchar@?$output_processor@_WV?$string_output_adapter@_W@__crt_stdio_output@@V?$standard_base@_WV?$string_output_adapter@_W@__crt_stdio_output@@@2@@__crt_stdio_output@@AEAA_N_W@Z 000000018002d79c     libucrt:output.obj
 0002:0000b7b0       $unwind$??$write_multiple_characters@V?$stream_output_adapter@_W@__crt_stdio_output@@D@__crt_stdio_output@@YAXAEBV?$stream_output_adapter@_W@0@DHQEAH@Z 000000018002d7b0     libucrt:output.obj
 0002:0000b7c8       $unwind$??$write_multiple_characters@V?$string_output_adapter@_W@__crt_stdio_output@@D@__crt_stdio_output@@YAXAEBV?$string_output_adapter@_W@0@DHQEAH@Z 000000018002d7c8     libucrt:output.obj
 0002:0000b7d4       $unwind$??$type_case_integer_parse_into_buffer@I@?$output_processor@_WV?$string_output_adapter@_W@__crt_stdio_output@@V?$standard_base@_WV?$string_output_adapter@_W@__crt_stdio_output@@@2@@__crt_stdio_output@@AEAAXII_N@Z 000000018002d7d4     libucrt:output.obj
 0002:0000b7d4       $unwind$??$type_case_integer_parse_into_buffer@_K@?$output_processor@_WV?$string_output_adapter@_W@__crt_stdio_output@@V?$standard_base@_WV?$string_output_adapter@_W@__crt_stdio_output@@@2@@__crt_stdio_output@@AEAAX_KI_N@Z 000000018002d7d4     libucrt:output.obj
 0002:0000b7d4       $unwind$??$type_case_integer_parse_into_buffer@I@?$output_processor@_WV?$stream_output_adapter@_W@__crt_stdio_output@@V?$standard_base@_WV?$stream_output_adapter@_W@__crt_stdio_output@@@2@@__crt_stdio_output@@AEAAXII_N@Z 000000018002d7d4     libucrt:output.obj
 0002:0000b7d4       $unwind$??$type_case_integer_parse_into_buffer@_K@?$output_processor@_WV?$stream_output_adapter@_W@__crt_stdio_output@@V?$standard_base@_WV?$stream_output_adapter@_W@__crt_stdio_output@@@2@@__crt_stdio_output@@AEAAX_KI_N@Z 000000018002d7d4     libucrt:output.obj
 0002:0000b7d4       $unwind$??$type_case_integer_parse_into_buffer@I@?$output_processor@DV?$string_output_adapter@D@__crt_stdio_output@@V?$standard_base@DV?$string_output_adapter@D@__crt_stdio_output@@@2@@__crt_stdio_output@@AEAAXII_N@Z 000000018002d7d4     libucrt:output.obj
 0002:0000b7d4       $unwind$??$type_case_integer_parse_into_buffer@_K@?$output_processor@DV?$string_output_adapter@D@__crt_stdio_output@@V?$standard_base@DV?$string_output_adapter@D@__crt_stdio_output@@@2@@__crt_stdio_output@@AEAAX_KI_N@Z 000000018002d7d4     libucrt:output.obj
 0002:0000b7d4       $unwind$??$write_multiple_characters@V?$string_output_adapter@D@__crt_stdio_output@@D@__crt_stdio_output@@YAXAEBV?$string_output_adapter@D@0@DHQEAH@Z 000000018002d7d4     libucrt:output.obj
 0002:0000b7dc       $unwind$??$?RV<lambda_7b91131dde12e1c3dfc74ff76b3f2eac>@@AEAV<lambda_dd75445284c072d0bd3768540cc698fa>@@V<lambda_16bc4ecb55b4718497c16bceaea2ceaf>@@@?$__crt_seh_guarded_call@H@@QEAAH$$QEAV<lambda_7b91131dde12e1c3dfc74ff76b3f2eac>@@AEAV<lambda_dd75445284c072d0bd3768540cc698fa>@@$$QEAV<lambda_16bc4ecb55b4718497c16bceaea2ceaf>@@@Z 000000018002d7dc     libucrt:output.obj
 0002:0000b800       $unwind$_stricmp_l         000000018002d800     libucrt:stricmp.obj
 0002:0000b800       $unwind$?x_ismbbtype_l@@YAHPEAU__crt_locale_pointers@@IHH@Z 000000018002d800     libucrt:ismbbyte.obj
 0002:0000b810       $unwind$_query_new_handler 000000018002d810     libucrt:new_handler.obj
 0002:0000b830       $unwind$?common_exit@@YAXHW4_crt_exit_cleanup_mode@@W4_crt_exit_return_mode@@@Z 000000018002d830     libucrt:exit.obj
 0002:0000b870       $unwind$_configure_narrow_argv 000000018002d870     libucrt:argv_parsing.obj
 0002:0000b884       $unwind$??$free_environment@_W@@YAXQEAPEA_W@Z 000000018002d884     libucrt:environment_initialization.obj
 0002:0000b884       $unwind$??$free_environment@D@@YAXQEAPEAD@Z 000000018002d884     libucrt:environment_initialization.obj
 0002:0000b890       $unwind$??$create_environment@D@@YAQEAPEADQEAD@Z 000000018002d890     libucrt:environment_initialization.obj
 0002:0000b8a8       $unwind$_register_onexit_function 000000018002d8a8     libucrt:onexit.obj
 0002:0000b8b0       $unwind$_execute_onexit_table 000000018002d8b0     libucrt:onexit.obj
 0002:0000b8b8       $unwind$??$?RV<lambda_b8c45f8f788dd370798f47cfe8ac3a86>@@AEAV<lambda_4e60a939b0d047cfe11ddc22648dfba9>@@V<lambda_332c3edc96d0294ec56c57d38c1cdfd5>@@@?$__crt_seh_guarded_call@H@@QEAAH$$QEAV<lambda_b8c45f8f788dd370798f47cfe8ac3a86>@@AEAV<lambda_4e60a939b0d047cfe11ddc22648dfba9>@@$$QEAV<lambda_332c3edc96d0294ec56c57d38c1cdfd5>@@@Z 000000018002d8b8     libucrt:onexit.obj
 0002:0000b8dc       $unwind$??$?RV<lambda_e24bbb7b643b32fcea6fa61b31d4c984>@@AEAV<lambda_275893d493268fdec8709772e3fcec0e>@@V<lambda_9d71df4d7cf3f480f8d633942495c3b0>@@@?$__crt_seh_guarded_call@H@@QEAAH$$QEAV<lambda_e24bbb7b643b32fcea6fa61b31d4c984>@@AEAV<lambda_275893d493268fdec8709772e3fcec0e>@@$$QEAV<lambda_9d71df4d7cf3f480f8d633942495c3b0>@@@Z 000000018002d8dc     libucrt:onexit.obj
 0002:0000b90c       $unwind$__TypeMatch        000000018002d90c     libvcruntime:frame.obj
 0002:0000b90c       $unwind$?process@?$output_processor@_WV?$string_output_adapter@_W@__crt_stdio_output@@V?$standard_base@_WV?$string_output_adapter@_W@__crt_stdio_output@@@2@@__crt_stdio_output@@QEAAHXZ 000000018002d90c     libucrt:output.obj
 0002:0000b90c       $unwind$__GSHandlerCheck_EH 000000018002d90c     LIBCMT:gshandlereh.obj
 0002:0000b90c       $unwind$_initterm          000000018002d90c     libucrt:initterm.obj
 0002:0000b90c       $unwind$__acrt_MessageBoxW 000000018002d90c     libucrt:winapi_thunks.obj
 0002:0000b90c       $unwind$__acrt_initialize_stdio 000000018002d90c     libucrt:_file.obj
 0002:0000b924       $unwind$terminate          000000018002d924     libucrt:terminate.obj
 0002:0000b944       $unwind$??$parse_integer@KV?$c_string_character_source@D@__crt_strtox@@@__crt_strtox@@YAKQEAU__crt_locale_pointers@@V?$c_string_character_source@D@0@H_N@Z 000000018002d944     libucrt:atox.obj
 0002:0000b960       $unwind$??$parse_integer@KV?$c_string_character_source@_W@__crt_strtox@@@__crt_strtox@@YAKQEAU__crt_locale_pointers@@V?$c_string_character_source@_W@0@H_N@Z 000000018002d960     libucrt:atox.obj
 0002:0000b97c       $unwind$?destroy_fls@@YAXPEAX@Z 000000018002d97c     libucrt:per_thread_data.obj
 0002:0000b97c       $unwind$__acrt_locale_free_numeric 000000018002d97c     libucrt:initnum.obj
 0002:0000b97c       $unwind$_free_base         000000018002d97c     libucrt:free_base.obj
 0002:0000b97c       $unwind$__acrt_locale_free_lc_time_if_unreferenced 000000018002d97c     libucrt:locale_refcounting.obj
 0002:0000b984       $unwind$?construct_ptd_array@@YAXQEAU__acrt_ptd@@@Z 000000018002d984     libucrt:per_thread_data.obj
 0002:0000b98c       $unwind$?destroy_ptd_array@@YAXQEAU__acrt_ptd@@@Z 000000018002d98c     libucrt:per_thread_data.obj
 0002:0000b994       $unwind$??$?RV<lambda_72d1df2b273a38828b1ce30cbf4cdab5>@@AEAV<lambda_876a65b173b8412d3a47c70a915b0cf4>@@V<lambda_41932305e351933ebe8f8be3ed8bb5dc>@@@?$__crt_seh_guarded_call@X@@QEAAX$$QEAV<lambda_72d1df2b273a38828b1ce30cbf4cdab5>@@AEAV<lambda_876a65b173b8412d3a47c70a915b0cf4>@@$$QEAV<lambda_41932305e351933ebe8f8be3ed8bb5dc>@@@Z 000000018002d994     libucrt:per_thread_data.obj
 0002:0000b9b8       $unwind$??$?RV<lambda_5e887d1dcbef67a5eb4283622ba103bf>@@AEAV<lambda_4466841279450cc726390878d4a41900>@@V<lambda_341c25c0346d94847f1f3c463c57e077>@@@?$__crt_seh_guarded_call@X@@QEAAX$$QEAV<lambda_5e887d1dcbef67a5eb4283622ba103bf>@@AEAV<lambda_4466841279450cc726390878d4a41900>@@$$QEAV<lambda_341c25c0346d94847f1f3c463c57e077>@@@Z 000000018002d9b8     libucrt:per_thread_data.obj
 0002:0000b9dc       $unwind$??$?RV<lambda_46352004c1216016012b18bd6f87e700>@@AEAV<lambda_3bd07e1a1191394380780325891bf33f>@@V<lambda_334532d3f185bcaa59b5be82d7d22bff>@@@?$__crt_seh_guarded_call@X@@QEAAX$$QEAV<lambda_46352004c1216016012b18bd6f87e700>@@AEAV<lambda_3bd07e1a1191394380780325891bf33f>@@$$QEAV<lambda_334532d3f185bcaa59b5be82d7d22bff>@@@Z 000000018002d9dc     libucrt:per_thread_data.obj
 0002:0000ba00       $unwind$??$?RV<lambda_fb3a7dec4e47f37f22dae91bb15c9095>@@AEAV<lambda_698284760c8add0bfb0756c19673e34b>@@V<lambda_dfb8eca1e75fef3034a8fb18dd509707>@@@?$__crt_seh_guarded_call@X@@QEAAX$$QEAV<lambda_fb3a7dec4e47f37f22dae91bb15c9095>@@AEAV<lambda_698284760c8add0bfb0756c19673e34b>@@$$QEAV<lambda_dfb8eca1e75fef3034a8fb18dd509707>@@@Z 000000018002da00     libucrt:per_thread_data.obj
 0002:0000ba24       $unwind$wctomb_s           000000018002da24     libucrt:wctomb.obj
 0002:0000ba24       $unwind$_invalid_parameter_noinfo 000000018002da24     libucrt:invalid_parameter.obj
 0002:0000ba24       $unwind$_invalid_parameter_noinfo_noreturn 000000018002da24     libucrt:invalid_parameter.obj
 0002:0000ba24       $unwind$_itow_s            000000018002da24     libucrt:xtoa.obj
 0002:0000ba24       $unwind$_log10_special     000000018002da24     libucrt:log_special.obj
 0002:0000ba2c       $unwind$fflush             000000018002da2c     libucrt:fflush.obj
 0002:0000ba50       $unwind$common_flush_all   000000018002da50     libucrt:fflush.obj
 0002:0000ba8c       $unwind$setvbuf            000000018002da8c     libucrt:setvbuf.obj
 0002:0000ba94       $unwind$?type_case_c_tchar@?$output_processor@_WV?$stream_output_adapter@_W@__crt_stdio_output@@V?$standard_base@_WV?$stream_output_adapter@_W@__crt_stdio_output@@@2@@__crt_stdio_output@@AEAA_N_W@Z 000000018002da94     libucrt:output.obj
 0002:0000ba94       $unwind$?type_case_c_tchar@?$output_processor@_WV?$string_output_adapter@_W@__crt_stdio_output@@V?$standard_base@_WV?$string_output_adapter@_W@__crt_stdio_output@@@2@@__crt_stdio_output@@AEAA_N_W@Z 000000018002da94     libucrt:output.obj
 0002:0000ba94       $unwind$??R<lambda_b721fa326cdb32351d23dfa67958c160>@@QEBAHXZ 000000018002da94     libucrt:setvbuf.obj
 0002:0000baa4       $unwind$??$?RV<lambda_7a5ef57ff966f610505f1d28a3d40618>@@AEAV<lambda_b721fa326cdb32351d23dfa67958c160>@@V<lambda_5e0fb27672408a07956fe59e48ccb2aa>@@@?$__crt_seh_guarded_call@H@@QEAAH$$QEAV<lambda_7a5ef57ff966f610505f1d28a3d40618>@@AEAV<lambda_b721fa326cdb32351d23dfa67958c160>@@$$QEAV<lambda_5e0fb27672408a07956fe59e48ccb2aa>@@@Z 000000018002daa4     libucrt:setvbuf.obj
 0002:0000bac8       $unwind$__acrt_get_sigabrt_handler 000000018002dac8     libucrt:signal.obj
 0002:0000bad0       $unwind$raise              000000018002dad0     libucrt:signal.obj
 0002:0000bafc       $unwind$??$?RV<lambda_c36588078e9f5dfd39652860aa6b3aaf>@@AEAV<lambda_ec61778202f4f5fc7e7711acc23c3bca>@@V<lambda_dc9d2797ccde5d239b4a0efae8ebd7db>@@@?$__crt_seh_guarded_call@P6AXH@Z@@QEAAP6AXH@Z$$QEAV<lambda_c36588078e9f5dfd39652860aa6b3aaf>@@AEAV<lambda_ec61778202f4f5fc7e7711acc23c3bca>@@$$QEAV<lambda_dc9d2797ccde5d239b4a0efae8ebd7db>@@@Z 000000018002dafc     libucrt:signal.obj
 0002:0000bb20       $unwind$_tolower_l         000000018002db20     libucrt:tolower_toupper.obj
 0002:0000bb30       $unwind$__acrt_LCMapStringEx 000000018002db30     libucrt:winapi_thunks.obj
 0002:0000bb30       $unwind$_mbtowc_l          000000018002db30     libucrt:mbtowc.obj
 0002:0000bb30       $unwind$__acrt_show_wide_message_box 000000018002db30     libucrt:crtmbox.obj
 0002:0000bb48       $unwind$_wctomb_s_l        000000018002db48     libucrt:wctomb.obj
 0002:0000bb58       $unwind$wcsnlen            000000018002db58     libucrt:strnlen.obj
 0002:0000bb58       $unwind$strnlen            000000018002db58     libucrt:strnlen.obj
 0002:0000bb60       $unwind$__acrt_fp_format   000000018002db60     libucrt:cvt.obj
 0002:0000bb7c       $unwind$?fp_format_nan_or_infinity@@YAHW4__acrt_fp_class@@_NPEAD_K1@Z 000000018002db7c     libucrt:cvt.obj
 0002:0000bb90       $unwind$?fp_format_e_internal@@YAHQEAD_KH_NIQEAU_strflt@@2QEAU__crt_locale_pointers@@@Z 000000018002db90     libucrt:cvt.obj
 0002:0000bba8       $unwind$?fp_format_e@@YAHQEBNQEAD_K12H_NIQEAU__crt_locale_pointers@@@Z 000000018002dba8     libucrt:cvt.obj
 0002:0000bbbc       $unwind$?fp_format_a@@YAHQEBNPEAD_KQEAD2H_NIQEAU__crt_locale_pointers@@@Z 000000018002dbbc     libucrt:cvt.obj
 0002:0000bbd8       $unwind$__dcrt_get_narrow_environment_from_os 000000018002dbd8     libucrt:get_environment_from_os.obj
 0002:0000bbd8       $unwind$?fp_format_f_internal@@YAHQEAD_KHQEAU_strflt@@_NQEAU__crt_locale_pointers@@@Z 000000018002dbd8     libucrt:cvt.obj
 0002:0000bbf0       $unwind$?fp_format_g@@YAHQEBNQEAD_K12H_NIQEAU__crt_locale_pointers@@@Z 000000018002dbf0     libucrt:cvt.obj
 0002:0000bc04       $unwind$_fputwc_nolock     000000018002dc04     libucrt:fputwc.obj
 0002:0000bc20       $unwind$__vcrt_uninitialize_winapi_thunks 000000018002dc20     libvcruntime:winapi_downlevel.obj
 0002:0000bc20       $unwind$__acrt_stdio_end_temporary_buffering_nolock 000000018002dc20     libucrt:_sftbuf.obj
 0002:0000bc28       $unwind$__acrt_uninitialize_locale 000000018002dc28     libucrt:wsetlocale.obj
 0002:0000bc48       $unwind$__acrt_initialize_lowio 000000018002dc48     libucrt:ioinit.obj
 0002:0000bc68       $unwind$?initialize_inherited_file_handles_nolock@@YAXXZ 000000018002dc68     libucrt:ioinit.obj
 0002:0000bc84       $unwind$__acrt_initialize_winapi_thunks 000000018002dc84     libucrt:winapi_thunks.obj
 0002:0000bc8c       $unwind$__acrt_is_interactive 000000018002dc8c     libucrt:winapi_thunks.obj
 0002:0000bca0       $unwind$??$common_expand_argv_wildcards@D@@YAHQEAPEADQEAPEAPEAD@Z 000000018002dca0     libucrt:argv_wildcards.obj
 0002:0000bcb8       $unwind$??$copy_and_add_argument_to_buffer@D@@YAHQEBD0_KAEAV?$argument_list@D@?A0xca0879c4@@@Z 000000018002dcb8     libucrt:argv_wildcards.obj
 0002:0000bcd4       $unwind$??$expand_argument_wildcards@D@@YAHQEAD0AEAV?$argument_list@D@?A0xca0879c4@@@Z 000000018002dcd4     libucrt:argv_wildcards.obj
 0002:0000bcf4       $unwind$__acrt_update_thread_multibyte_data 000000018002dcf4     libucrt:mbctype.obj
 0002:0000bd18       $unwind$_setmbcp_nolock    000000018002dd18     libucrt:mbctype.obj
 0002:0000bd38       $unwind$?setSBUpLow@@YAXPEAU__crt_multibyte_data@@@Z 000000018002dd38     libucrt:mbctype.obj
 0002:0000bd54       $unwind$?setmbcp_internal@@YAHH_N@Z 000000018002dd54     libucrt:mbctype.obj
 0002:0000bd64       $unwind$??$?RV<lambda_99476a1ad63dd22509b5d3e65b0ffc95>@@AEAV<lambda_ad1ced32f4ac17aa236e5ef05d6b3b7c>@@V<lambda_f7424dd8d45958661754dc4f2697e9c3>@@@?$__crt_seh_guarded_call@X@@QEAAX$$QEAV<lambda_99476a1ad63dd22509b5d3e65b0ffc95>@@AEAV<lambda_ad1ced32f4ac17aa236e5ef05d6b3b7c>@@$$QEAV<lambda_f7424dd8d45958661754dc4f2697e9c3>@@@Z 000000018002dd64     libucrt:mbctype.obj
 0002:0000bd88       $unwind$_isctype_l         000000018002dd88     libucrt:isctype.obj
 0002:0000bda4       $unwind$_seh_filter_exe    000000018002dda4     libucrt:exception_filter.obj
 0002:0000bda4       $unwind$?setSBCS@@YAXPEAU__crt_multibyte_data@@@Z 000000018002dda4     libucrt:mbctype.obj
 0002:0000bda4       $unwind$__acrt_InitializeCriticalSectionEx 000000018002dda4     libucrt:winapi_thunks.obj
 0002:0000bda4       $unwind$_recalloc_base     000000018002dda4     libucrt:recalloc.obj
 0002:0000bda4       $unwind$__acrt_execute_initializers 000000018002dda4     libucrt:shared_initialization.obj
 0002:0000bda4       $unwind$?dllmain_raw@@YAHQEAUHINSTANCE__@@KQEAX@Z 000000018002dda4     LIBCMT:dll_dllmain.obj
 0002:0000bda4       $unwind$__scrt_dllmain_exception_filter 000000018002dda4     LIBCMT:utility.obj
 0002:0000bda4       $unwind$__acrt_lowio_create_handle_array 000000018002dda4     libucrt:osfinfo.obj
 0002:0000bda4       $unwind$_wassert           000000018002dda4     libucrt:assert.obj
 0002:0000bda4       $unwind$?expand_if_necessary@?$argument_list@D@?A0xca0879c4@@AEAAHXZ 000000018002dda4     libucrt:argv_wildcards.obj
 0002:0000bda4       $unwind$__vcrt_InitializeCriticalSectionEx 000000018002dda4     libvcruntime:winapi_downlevel.obj
 0002:0000bda4       $unwind$__acrt_free_locale 000000018002dda4     libucrt:locale_refcounting.obj
 0002:0000bda4       $unwind$?_ExecutionInCatch@@YAHPEAU_xDISPATCHER_CONTEXT@@PEBU_s_FuncInfo@@@Z 000000018002dda4     libvcruntime:trnsctrl.obj
 0002:0000bda4       $unwind$??$ensure_buffer_is_big_enough@D@formatting_buffer@__crt_stdio_output@@QEAA_N_K@Z 000000018002dda4     libucrt:output.obj
 0002:0000bdb8       $unwind$__acrt_update_thread_locale_data 000000018002ddb8     libucrt:locale_refcounting.obj
 0002:0000bddc       $unwind$_fcloseall         000000018002dddc     libucrt:closeall.obj
 0002:0000be00       $unwind$_commit            000000018002de00     libucrt:commit.obj
 0002:0000be00       $unwind$_close             000000018002de00     libucrt:close.obj
 0002:0000be08       $unwind$??$?RV<lambda_b521505b218e5242e90febf6bfebc422>@@AEAV<lambda_6978c1fb23f02e42e1d9e99668cc68aa>@@V<lambda_314360699dd331753a4119843814e9a7>@@@?$__crt_seh_guarded_call@H@@QEAAH$$QEAV<lambda_b521505b218e5242e90febf6bfebc422>@@AEAV<lambda_6978c1fb23f02e42e1d9e99668cc68aa>@@$$QEAV<lambda_314360699dd331753a4119843814e9a7>@@@Z 000000018002de08     libucrt:commit.obj
 0002:0000be2c       $unwind$_write             000000018002de2c     libucrt:write.obj
 0002:0000be5c       $unwind$_write_nolock      000000018002de5c     libucrt:write.obj
 0002:0000be74       $unwind$?write_double_translated_ansi_nolock@@YA?AUwrite_result@?A0x9c548279@@HQEBDI@Z 000000018002de74     libucrt:write.obj
 0002:0000be94       $unwind$?write_text_utf16le_nolock@@YA?AUwrite_result@?A0x9c548279@@HQEBDI@Z 000000018002de94     libucrt:write.obj
 0002:0000be94       $unwind$?write_text_ansi_nolock@@YA?AUwrite_result@?A0x9c548279@@HQEBDI@Z 000000018002de94     libucrt:write.obj
 0002:0000beb4       $unwind$?write_text_utf8_nolock@@YA?AUwrite_result@?A0x9c548279@@HQEBDI@Z 000000018002deb4     libucrt:write.obj
 0002:0000bed8       $unwind$__acrt_LCMapStringA 000000018002ded8     libucrt:lcmapstringa.obj
 0002:0000bee8       $unwind$?__acrt_LCMapStringA_stat@@YAHPEAU__crt_locale_pointers@@PEB_WKPEBDHPEADHHH@Z 000000018002dee8     libucrt:lcmapstringa.obj
 0002:0000bf10       $unwind$__acrt_fltout      000000018002df10     libucrt:cfout.obj
 0002:0000bf30       $unwind$?divide@__crt_strtox@@YA_KAEAUbig_integer@1@AEBU21@@Z 000000018002df30     libucrt:cfout.obj
 0002:0000bf50       $chain$5$?divide@__crt_strtox@@YA_KAEAUbig_integer@1@AEBU21@@Z 000000018002df50     libucrt:cfout.obj
 0002:0000bf64       $chain$6$?divide@__crt_strtox@@YA_KAEAUbig_integer@1@AEBU21@@Z 000000018002df64     libucrt:cfout.obj
 0002:0000bf74       $unwind$??$write_buffer_nolock@D@@YA_NDV__crt_stdio_stream@@@Z 000000018002df74     libucrt:_flsbuf.obj
 0002:0000bf84       $unwind$??$write_buffer_nolock@_W@@YA_N_WV__crt_stdio_stream@@@Z 000000018002df84     libucrt:_flsbuf.obj
 0002:0000bf94       $unwind$__acrt_locale_free_monetary 000000018002df94     libucrt:initmon.obj
 0002:0000bf9c       $unwind$__acrt_locale_free_time 000000018002df9c     libucrt:inittime.obj
 0002:0000bfac       $unwind$__acrt_GetStringTypeA 000000018002dfac     libucrt:getstringtypea.obj
 0002:0000bfd4       $unwind$__acrt_lowio_destroy_handle_array 000000018002dfd4     libucrt:osfinfo.obj
 0002:0000bfe4       $unwind$__acrt_lowio_ensure_fh_exists 000000018002dfe4     libucrt:osfinfo.obj
 0002:0000c010       $unwind$?GetTableIndexFromLocaleName@@YAHPEB_W@Z 000000018002e010     libucrt:lcidtoname_downlevel.obj
 0002:0000c028       $unwind$qsort              000000018002e028     libucrt:qsort.obj
 0002:0000c040       $chain$4$qsort             000000018002e040     libucrt:qsort.obj
 0002:0000c064       $chain$5$qsort             000000018002e064     libucrt:qsort.obj
 0002:0000c074       $unwind$?shortsort@@YAXPEAD0_KP6AHPEBX2@Z@Z 000000018002e074     libucrt:qsort.obj
 0002:0000c084       $chain$2$?shortsort@@YAXPEAD0_KP6AHPEBX2@Z@Z 000000018002e084     libucrt:qsort.obj
 0002:0000c0a0       $chain$3$?shortsort@@YAXPEAD0_KP6AHPEBX2@Z@Z 000000018002e0a0     libucrt:qsort.obj
 0002:0000c0b0       $unwind$strpbrk            000000018002e0b0     libucrt:strpbrk.obj
 0002:0000c0c0       $unwind$_mbsdec_l          000000018002e0c0     libucrt:mbsdec.obj
 0002:0000c0cc       $unwind$fclose             000000018002e0cc     libucrt:fclose.obj
 0002:0000c0f0       $unwind$??$common_lseek@_J@@YA_JH_JH@Z 000000018002e0f0     libucrt:lseek.obj
 0002:0000c120       $unwind$__report_gsfailure 000000018002e120     LIBCMT:gs_report.obj
 0002:0000c120       $unwind$_putwch_nolock     000000018002e120     libucrt:putwch.obj
 0002:0000c128       $xdatasym                  000000018002e128     libucrt:log10.obj
 0002:0000c134       $unwind$??$?RV<lambda_bfedae4ebbf01fab1bb6dcc6a9e276e0>@@AEAV<lambda_2fe9b910cf3cbf4a0ab98a02ba45b3ec>@@V<lambda_237c231691f317818eb88cc1d5d642d6>@@@?$__crt_seh_guarded_call@H@@QEAAH$$QEAV<lambda_bfedae4ebbf01fab1bb6dcc6a9e276e0>@@AEAV<lambda_2fe9b910cf3cbf4a0ab98a02ba45b3ec>@@$$QEAV<lambda_237c231691f317818eb88cc1d5d642d6>@@@Z 000000018002e134     libucrt:close.obj
 0002:0000c158       $unwind$common_control87   000000018002e158     libucrt:ieee.obj
 0002:0000c188       $unwind$_call_matherr      000000018002e188     libucrt:libm_error.obj
 0002:0000c190       $unwind$_handle_error      000000018002e190     libucrt:libm_error.obj
 0002:0000c1b0       $unwind$__acrt_initialize_fma3 000000018002e1b0     libucrt:fma3_available.obj
 0002:0000c1b8       $unwind$_log_special_common 000000018002e1b8     libucrt:log_special.obj
 0002:0000c1c8       $xdatasym                  000000018002e1c8     libucrt:fpsr.obj
 0002:0000c1d0       $unwind$_raise_exc_ex      000000018002e1d0     libucrt:fpexcept.obj
 0002:0000c1e4       $unwind$_ctrlfp            000000018002e1e4     libucrt:fpctrl.obj
 0002:0000c20c       $unwind$?DloadObtainSection@@YAPEAXPEAK0@Z 000000018002e20c     DelayImp:delayhlp.obj
 0002:0000c21c       $unwind$?DloadMakePermanentImageCommit@@YAXPEAX_K@Z 000000018002e21c     DelayImp:delayhlp.obj
 0002:0000c228       $unwind$?DloadProtectSection@@YAXKPEAK@Z 000000018002e228     DelayImp:delayhlp.obj
 0002:0000c238       $unwind$__delayLoadHelper2 000000018002e238     DelayImp:delayhlp.obj
 0002:0000c250       $unwind$_IsNonwritableInCurrentImage 000000018002e250     LIBCMT:pesect.obj
 0002:0000c274       $unwind$__GSHandlerCheckCommon 000000018002e274     LIBCMT:_gshandler_.obj
 0002:0000c27c       $unwind$strrchr            000000018002e27c     libvcruntime:strrchr.obj
 0002:0000c288       $xdatasym                  000000018002e288     libvcruntime:memcmp.obj
 0002:0000cf10       .edata                     000000018002ef10     ffi_bindings.exp
 0002:0000cf38       rgpv                       000000018002ef38     ffi_bindings.exp
 0002:0000cf3c       rgszName                   000000018002ef3c     ffi_bindings.exp
 0002:0000cf40       rgwOrd                     000000018002ef40     ffi_bindings.exp
 0002:0000cf42       szName                     000000018002ef42     ffi_bindings.exp
 0002:0000cf54       $N00001                    000000018002ef54     ffi_bindings.exp
 0002:0000d2e8       .idata$6                   000000018002f2e8     kernel32:KERNEL32.dll
 0003:00000030       ?__vcrt_flsindex@@3KA      0000000180030030     libvcruntime:per_thread_data.obj
 0003:00000040       errno_no_memory            0000000180030040     libucrt:errno.obj
 0003:00000044       doserrno_no_memory         0000000180030044     libucrt:errno.obj
 0003:0000004c       __acrt_flsindex            000000018003004c     libucrt:per_thread_data.obj
 0003:00000540       __rgctypeflag              0000000180030540     libucrt:mbctype.obj
 0003:00000550       __rgcode_page_info         0000000180030550     libucrt:mbctype.obj
 0003:00000908       ?dazSupported@?1??common_control87@@9@9 0000000180030908     libucrt:ieee.obj
 0003:00000910       ?dazSupported@?1??_ctrlfp@@9@9 0000000180030910     libucrt:fpctrl.obj
 0003:00000920       _module                    0000000180030920     ffi.obj
 0003:00000d78       ?module_local_atexit_table@@3U_onexit_table_t@@A 0000000180030d78     LIBCMT:utility.obj
 0003:00000d90       ?module_local_at_quick_exit_table@@3U_onexit_table_t@@A 0000000180030d90     LIBCMT:utility.obj
 0003:00000da8       ?is_initialized_as_dll@@3_NA 0000000180030da8     LIBCMT:utility.obj
 0003:00000dac       ?__proc_attached@@3HA      0000000180030dac     LIBCMT:dll_dllmain.obj
 0003:00000db0       GS_ExceptionRecord         0000000180030db0     LIBCMT:gs_report.obj
 0003:00000e50       GS_ContextRecord           0000000180030e50     LIBCMT:gs_report.obj
 0003:00001350       ?__vcrt_startup_thread_ptd@@3U__vcrt_ptd@@A 0000000180031350     libvcruntime:per_thread_data.obj
 0003:000013c8       __vcrt_lock_table          00000001800313c8     libvcruntime:locks.obj
 0003:000013f0       __vcrt_locks_initialized   00000001800313f0     libvcruntime:locks.obj
 0003:00001400       ?module_handles@@3PAPEAUHINSTANCE__@@A 0000000180031400     libvcruntime:winapi_downlevel.obj
 0003:00001420       ?encoded_function_pointers@@3PAPEAXA 0000000180031420     libvcruntime:winapi_downlevel.obj
 0003:000014b8       ?heap@@3V_HeapManager@@A   00000001800314b8     libvcruntime:undname.obj
 0003:000014e0       __acrt_invalid_parameter_handler 00000001800314e0     libucrt:invalid_parameter.obj
 0003:000014e8       __acrt_new_handler         00000001800314e8     libucrt:new_handler.obj
 0003:000014f0       c_termination_complete     00000001800314f0     libucrt:exit.obj
 0003:000014f8       thread_local_exit_callback_func 00000001800314f8     libucrt:exit.obj
 0003:00001500       ?c_exit_complete@?5??common_exit@@YAXHW4_crt_exit_cleanup_mode@@W4_crt_exit_return_mode@@@Z@4_NA 0000000180031500     libucrt:exit.obj
 0003:00001510       ?program_name@?5???$common_configure_argv@D@@YAHW4_crt_argv_mode@@@Z@4PADA 0000000180031510     libucrt:argv_parsing.obj
 0003:00001668       __acrt_app_type            0000000180031668     libucrt:report_runtime_error.obj
 0003:0000166c       __acrt_error_mode          000000018003166c     libucrt:set_error_mode.obj
 0003:00001688       ctrlc_action               0000000180031688     libucrt:signal.obj
 0003:00001690       ctrlbreak_action           0000000180031690     libucrt:signal.obj
 0003:00001698       abort_action               0000000180031698     libucrt:signal.obj
 0003:000016a0       term_action                00000001800316a0     libucrt:signal.obj
 0003:000016a8       enable_percent_n           00000001800316a8     libucrt:printf_count_output.obj
 0003:00001ae0       __acrt_lock_table          0000000180031ae0     libucrt:locks.obj
 0003:00001ce8       __acrt_locks_initialized   0000000180031ce8     libucrt:locks.obj
 0003:00001cf0       module_handles             0000000180031cf0     libucrt:winapi_thunks.obj
 0003:00001d90       encoded_function_pointers  0000000180031d90     libucrt:winapi_thunks.obj
 0003:00001e90       ?state_cache@?1??__acrt_is_packaged_app@@9@4JA 0000000180031e90     libucrt:winapi_thunks.obj
 0003:00001eac       fSystemSet                 0000000180031eac     libucrt:mbctype.obj
 0003:00001eb8       ?initialized@?1??__acrt_initialize_multibyte@@9@4_NA 0000000180031eb8     libucrt:mbctype.obj
 0003:00001ef0       user_matherr               0000000180031ef0     libucrt:matherr.obj
 0003:00001ef8       __acrt_global_new_mode     0000000180031ef8     libucrt:new_mode.obj
 0003:00001f40       ?init_per_env_mutex_once@FFI@@3Uuv_once_s@@A 0000000180031f40     callback_info.obj
 0003:00001f78       ?lastError@@3KA            0000000180031f78     win32-dlfcn.obj
 0003:00001f7c       magic_init_mutex           0000000180031f7c     libffi:closures.obj
 0003:00001fc0       mparams                    0000000180031fc0     libffi:closures.obj
 0003:00001ff0       _gm_                       0000000180031ff0     libffi:closures.obj
 0003:00002380       ?errorMessage@?1??dlerror@@9@4PADA 0000000180032380     win32-dlfcn.obj
 0004:00000000       $pdata$??__E?per_environment@CallbackInfo@FFI@@0V?$unordered_map@PEAUnapi_env__@@V?$unique_ptr@UPerEnvironmentData@FFI@@U?$default_delete@UPerEnvironmentData@FFI@@@std@@@std@@U?$hash@PEAUnapi_env__@@@3@U?$equal_to@PEAUnapi_env__@@@3@V?$allocator@U?$pair@QEAUnapi_env__@@V?$unique_ptr@UPerEnvironmentData@FFI@@U?$default_delete@UPerEnvironmentData@FFI@@@std@@@std@@@std@@@3@@std@@A@@YAXXZ 0000000180033000     callback_info.obj
 0004:0000000c       $pdata$??_Gexception@stdext@@UEAAPEAXI@Z 000000018003300c     ffi.obj
 0004:00000018       $pdata$??1TypeError@Napi@@UEAA@XZ 0000000180033018     ffi.obj
 0004:00000018       $pdata$??1Error@Napi@@UEAA@XZ 0000000180033018     ffi.obj
 0004:00000024       $pdata$?Type@Value@Napi@@QEBA?AW4napi_valuetype@@XZ 0000000180033024     ffi.obj
 0004:00000030       $pdata$?IsBuffer@Value@Napi@@QEBA_NXZ 0000000180033030     ffi.obj
 0004:0000003c       $pdata$?ToNumber@Value@Napi@@QEBA?AVNumber@2@XZ 000000018003303c     ffi.obj
 0004:00000048       $pdata$?New@Number@Napi@@SA?AV12@PEAUnapi_env__@@N@Z 0000000180033048     ffi.obj
 0004:00000054       $pdata$??BNumber@Napi@@QEBAIXZ 0000000180033054     ffi.obj
 0004:00000060       $pdata$??BNumber@Napi@@QEBAHXZ 0000000180033060     callback_info.obj
 0004:00000060       $pdata$?Int32Value@Number@Napi@@QEBAHXZ 0000000180033060     ffi.obj
 0004:0000006c       $pdata$??BString@Napi@@QEBA?AV?$basic_string@DU?$char_traits@D@std@@V?$allocator@D@2@@std@@XZ 000000018003306c     ffi.obj
 0004:00000078       $pdata$?Utf8Value@String@Napi@@QEBA?AV?$basic_string@DU?$char_traits@D@std@@V?$allocator@D@2@@std@@XZ 0000000180033078     ffi.obj
 0004:00000084       $pdata$??AObject@Napi@@QEAA?AV?$PropertyLValue@V?$basic_string@DU?$char_traits@D@std@@V?$allocator@D@2@@std@@@01@PEBD@Z 0000000180033084     ffi.obj
 0004:00000090       $pdata$?New@Error@Napi@@SA?AV12@PEAUnapi_env__@@@Z 0000000180033090     ffi.obj
 0004:0000009c       $pdata$0$?New@Error@Napi@@SA?AV12@PEAUnapi_env__@@@Z 000000018003309c     ffi.obj
 0004:000000a8       $pdata$1$?New@Error@Napi@@SA?AV12@PEAUnapi_env__@@@Z 00000001800330a8     ffi.obj
 0004:000000b4       $pdata$??_GTypeError@Napi@@UEAAPEAXI@Z 00000001800330b4     ffi.obj
 0004:000000b4       $pdata$??_GError@Napi@@UEAAPEAXI@Z 00000001800330b4     ffi.obj
 0004:000000c0       $pdata$??0Error@Napi@@QEAA@AEBV01@@Z 00000001800330c0     ffi.obj
 0004:000000cc       $pdata$?Message@Error@Napi@@QEBAAEBV?$basic_string@DU?$char_traits@D@std@@V?$allocator@D@2@@std@@XZ 00000001800330cc     ffi.obj
 0004:000000d8       $pdata$?ThrowAsJavaScriptException@Error@Napi@@QEBAXXZ 00000001800330d8     ffi.obj
 0004:000000e4       $pdata$?what@Error@Napi@@UEBAPEBDXZ 00000001800330e4     ffi.obj
 0004:000000f0       $pdata$?New@TypeError@Napi@@SA?AV12@PEAUnapi_env__@@PEBD@Z 00000001800330f0     ffi.obj
 0004:000000fc       $pdata$??0ObjectReference@Napi@@IEAA@AEBV01@@Z 00000001800330fc     ffi.obj
 0004:00000108       $pdata$?Get@ObjectReference@Napi@@QEBA?AVValue@2@PEBD@Z 0000000180033108     ffi.obj
 0004:00000114       $pdata$?MakeCallback@FunctionReference@Napi@@QEBA?AVValue@2@PEAUnapi_value__@@AEBV?$initializer_list@PEAUnapi_value__@@@std@@PEAUnapi_async_context__@@@Z 0000000180033114     callback_info.obj
 0004:00000114       $pdata$?MakeCallback@FunctionReference@Napi@@QEBA?AVValue@2@PEAUnapi_value__@@AEBV?$vector@PEAUnapi_value__@@V?$allocator@PEAUnapi_value__@@@std@@@std@@PEAUnapi_async_context__@@@Z 0000000180033114     ffi.obj
 0004:00000120       $pdata$??0CallbackInfo@Napi@@QEAA@PEAUnapi_env__@@PEAUnapi_callback_info__@@@Z 0000000180033120     ffi.obj
 0004:0000012c       $pdata$??ACallbackInfo@Napi@@QEBA?BVValue@1@_K@Z 000000018003312c     ffi.obj
 0004:00000138       $pdata$?get_uv_event_loop@@YAPEAUuv_loop_s@@PEAUnapi_env__@@@Z 0000000180033138     ffi.obj
 0004:00000144       $pdata$?__ffi_errno@FFI@@YAHXZ 0000000180033144     ffi.obj
 0004:00000150       $pdata$?InitializeStaticFunctions@FFI@1@SA?AVObject@Napi@@VEnv@3@@Z 0000000180033150     ffi.obj
 0004:0000015c       $pdata$?InitializeBindings@FFI@1@SAXVEnv@Napi@@VObject@3@@Z 000000018003315c     ffi.obj
 0004:00000168       $pdata$?FFIPrepCif@FFI@1@KA?AVValue@Napi@@AEBVCallbackInfo@3@@Z 0000000180033168     ffi.obj
 0004:00000174       $pdata$1$?FFIPrepCif@FFI@1@KA?AVValue@Napi@@AEBVCallbackInfo@3@@Z 0000000180033174     ffi.obj
 0004:00000180       $pdata$3$?FFIPrepCif@FFI@1@KA?AVValue@Napi@@AEBVCallbackInfo@3@@Z 0000000180033180     ffi.obj
 0004:0000018c       $pdata$4$?FFIPrepCif@FFI@1@KA?AVValue@Napi@@AEBVCallbackInfo@3@@Z 000000018003318c     ffi.obj
 0004:00000198       $pdata$5$?FFIPrepCif@FFI@1@KA?AVValue@Napi@@AEBVCallbackInfo@3@@Z 0000000180033198     ffi.obj
 0004:000001a4       $pdata$6$?FFIPrepCif@FFI@1@KA?AVValue@Napi@@AEBVCallbackInfo@3@@Z 00000001800331a4     ffi.obj
 0004:000001b0       $pdata$7$?FFIPrepCif@FFI@1@KA?AVValue@Napi@@AEBVCallbackInfo@3@@Z 00000001800331b0     ffi.obj
 0004:000001bc       $pdata$??0TypeError@Napi@@QEAA@AEBV01@@Z 00000001800331bc     ffi.obj
 0004:000001c8       $pdata$?FFIPrepCifVar@FFI@1@KA?AVValue@Napi@@AEBVCallbackInfo@3@@Z 00000001800331c8     ffi.obj
 0004:000001d4       $pdata$2$?FFIPrepCifVar@FFI@1@KA?AVValue@Napi@@AEBVCallbackInfo@3@@Z 00000001800331d4     ffi.obj
 0004:000001e0       $pdata$3$?FFIPrepCifVar@FFI@1@KA?AVValue@Napi@@AEBVCallbackInfo@3@@Z 00000001800331e0     ffi.obj
 0004:000001ec       $pdata$4$?FFIPrepCifVar@FFI@1@KA?AVValue@Napi@@AEBVCallbackInfo@3@@Z 00000001800331ec     ffi.obj
 0004:000001f8       $pdata$5$?FFIPrepCifVar@FFI@1@KA?AVValue@Napi@@AEBVCallbackInfo@3@@Z 00000001800331f8     ffi.obj
 0004:00000204       $pdata$6$?FFIPrepCifVar@FFI@1@KA?AVValue@Napi@@AEBVCallbackInfo@3@@Z 0000000180033204     ffi.obj
 0004:00000210       $pdata$7$?FFIPrepCifVar@FFI@1@KA?AVValue@Napi@@AEBVCallbackInfo@3@@Z 0000000180033210     ffi.obj
 0004:0000021c       $pdata$?FFICall@FFI@1@KAXAEBVCallbackInfo@Napi@@@Z 000000018003321c     ffi.obj
 0004:00000228       $pdata$2$?FFICall@FFI@1@KAXAEBVCallbackInfo@Napi@@@Z 0000000180033228     ffi.obj
 0004:00000234       $pdata$3$?FFICall@FFI@1@KAXAEBVCallbackInfo@Napi@@@Z 0000000180033234     ffi.obj
 0004:00000240       $pdata$4$?FFICall@FFI@1@KAXAEBVCallbackInfo@Napi@@@Z 0000000180033240     ffi.obj
 0004:0000024c       $pdata$?FFICallAsync@FFI@1@KAXAEBVCallbackInfo@Napi@@@Z 000000018003324c     ffi.obj
 0004:00000258       $pdata$?AsyncFFICall@FFI@1@KAXPEAUuv_work_s@@@Z 0000000180033258     ffi.obj
 0004:00000264       $pdata$?FinishAsyncFFICall@FFI@1@KAXPEAUuv_work_s@@H@Z 0000000180033264     ffi.obj
 0004:00000270       $pdata$?Init@@YA?AVObject@Napi@@VEnv@2@V12@@Z 0000000180033270     ffi.obj
 0004:0000027c       $pdata$?__napi_Init@@YAPEAUnapi_value__@@PEAUnapi_env__@@PEAU1@@Z 000000018003327c     ffi.obj
 0004:00000288       $pdata$??1?$vector@PEAUnapi_value__@@V?$allocator@PEAUnapi_value__@@@std@@@std@@QEAA@XZ 0000000180033288     ffi.obj
 0004:00000288       $pdata$?_Tidy@?$vector@V?$_List_unchecked_iterator@V?$_List_val@U?$_List_simple_types@U?$pair@QEAUnapi_env__@@V?$unique_ptr@UPerEnvironmentData@FFI@@U?$default_delete@UPerEnvironmentData@FFI@@@std@@@std@@@std@@@std@@@std@@@std@@U?$_Wrap_alloc@V?$allocator@V?$_List_unchecked_iterator@V?$_List_val@U?$_List_simple_types@U?$pair@QEAUnapi_env__@@V?$unique_ptr@UPerEnvironmentData@FFI@@U?$default_delete@UPerEnvironmentData@FFI@@@std@@@std@@@std@@@std@@@std@@@std@@@std@@@2@@std@@IEAAXXZ 0000000180033288     callback_info.obj
 0004:00000294       $pdata$??1?$basic_string@DU?$char_traits@D@std@@V?$allocator@D@2@@std@@QEAA@XZ 0000000180033294     ffi.obj
 0004:000002a0       $pdata$??4?$basic_string@DU?$char_traits@D@std@@V?$allocator@D@2@@std@@QEAAAEAV01@$$QEAV01@@Z 00000001800332a0     ffi.obj
 0004:000002ac       $pdata$?_Tidy@?$basic_string@DU?$char_traits@D@std@@V?$allocator@D@2@@std@@QEAAX_N_K@Z 00000001800332ac     ffi.obj
 0004:000002b8       $pdata$?assign@?$basic_string@DU?$char_traits@D@std@@V?$allocator@D@2@@std@@QEAAAEAV12@PEBD_K@Z 00000001800332b8     ffi.obj
 0004:000002c4       $pdata$?assign@?$basic_string@DU?$char_traits@D@std@@V?$allocator@D@2@@std@@QEAAAEAV12@AEBV12@_K1@Z 00000001800332c4     ffi.obj
 0004:000002d0       $pdata$?_Assign_rv@?$basic_string@DU?$char_traits@D@std@@V?$allocator@D@2@@std@@QEAAX$$QEAV12@@Z 00000001800332d0     ffi.obj
 0004:000002dc       $pdata$?_Copy@?$basic_string@DU?$char_traits@D@std@@V?$allocator@D@2@@std@@QEAAX_K0@Z 00000001800332dc     ffi.obj
 0004:000002e8       $pdata$?erase@?$basic_string@DU?$char_traits@D@std@@V?$allocator@D@2@@std@@QEAAAEAV12@_K0@Z 00000001800332e8     ffi.obj
 0004:000002f4       $pdata$?append@?$basic_string@DU?$char_traits@D@std@@V?$allocator@D@2@@std@@QEAAAEAV12@_KD@Z 00000001800332f4     ffi.obj
 0004:00000300       $pdata$0$?append@?$basic_string@DU?$char_traits@D@std@@V?$allocator@D@2@@std@@QEAAAEAV12@_KD@Z 0000000180033300     ffi.obj
 0004:0000030c       $pdata$2$?append@?$basic_string@DU?$char_traits@D@std@@V?$allocator@D@2@@std@@QEAAAEAV12@_KD@Z 000000018003330c     ffi.obj
 0004:00000318       $pdata$4$?append@?$basic_string@DU?$char_traits@D@std@@V?$allocator@D@2@@std@@QEAAAEAV12@_KD@Z 0000000180033318     ffi.obj
 0004:00000324       $pdata$5$?append@?$basic_string@DU?$char_traits@D@std@@V?$allocator@D@2@@std@@QEAAAEAV12@_KD@Z 0000000180033324     ffi.obj
 0004:00000330       $pdata$6$?append@?$basic_string@DU?$char_traits@D@std@@V?$allocator@D@2@@std@@QEAAAEAV12@_KD@Z 0000000180033330     ffi.obj
 0004:0000033c       $pdata$??0?$Reference@VObject@Napi@@@Napi@@IEAA@AEBV01@@Z 000000018003333c     ffi.obj
 0004:00000348       $pdata$?New@?$Reference@VFunction@Napi@@@Napi@@SA?AV12@AEBVFunction@2@I@Z 0000000180033348     ffi.obj
 0004:00000354       $pdata$??1?$Reference@VFunction@Napi@@@Napi@@QEAA@XZ 0000000180033354     ffi.obj
 0004:00000360       $pdata$??4?$Reference@VFunction@Napi@@@Napi@@QEAAAEAV01@$$QEAV01@@Z 0000000180033360     ffi.obj
 0004:0000036c       $pdata$??$WrapCallback@V<lambda_8c7377a71108815b2eee34f099f4cb99>@@@details@Napi@@YAPEAUnapi_value__@@V<lambda_8c7377a71108815b2eee34f099f4cb99>@@@Z 000000018003336c     ffi.obj
 0004:00000378       $pdata$??$New@VTypeError@Napi@@@Error@Napi@@KA?AVTypeError@1@PEAUnapi_env__@@PEBD_KP6A?AW4napi_status@@0PEAUnapi_value__@@3PEAPEAU5@@Z@Z 0000000180033378     ffi.obj
 0004:00000384       $pdata$??$?4PEBD@?$PropertyLValue@V?$basic_string@DU?$char_traits@D@std@@V?$allocator@D@2@@std@@@Object@Napi@@QEAAAEAV012@PEBD@Z 0000000180033384     ffi.obj
 0004:00000390       $pdata$??$As@V?$Buffer@D@Napi@@@Value@Napi@@QEBA?AV?$Buffer@D@1@XZ 0000000180033390     ffi.obj
 0004:00000390       $pdata$??$As@V?$Buffer@PEAX@Napi@@@Value@Napi@@QEBA?AV?$Buffer@PEAX@1@XZ 0000000180033390     ffi.obj
 0004:00000390       $pdata$??$As@V?$Buffer@Uffi_cif@@@Napi@@@Value@Napi@@QEBA?AV?$Buffer@Uffi_cif@@@1@XZ 0000000180033390     ffi.obj
 0004:00000390       $pdata$??$As@V?$Buffer@U_ffi_type@@@Napi@@@Value@Napi@@QEBA?AV?$Buffer@U_ffi_type@@@1@XZ 0000000180033390     ffi.obj
 0004:00000390       $pdata$??$As@V?$Buffer@PEAU_ffi_type@@@Napi@@@Value@Napi@@QEBA?AV?$Buffer@PEAU_ffi_type@@@1@XZ 0000000180033390     ffi.obj
 0004:0000039c       $pdata$?Wrapper@?$CallbackData@P6AXAEBVCallbackInfo@Napi@@@ZX@details@Napi@@SAPEAUnapi_value__@@PEAUnapi_env__@@PEAUnapi_callback_info__@@@Z 000000018003339c     ffi.obj
 0004:000003a8       $pdata$?Wrapper@?$CallbackData@P6A?AVValue@Napi@@AEBVCallbackInfo@2@@ZV12@@details@Napi@@SAPEAUnapi_value__@@PEAUnapi_env__@@PEAUnapi_callback_info__@@@Z 00000001800333a8     ffi.obj
 0004:000003b4       $pdata$??R<lambda_4b130013be4a466940e6fe08d32cda83>@@QEBA?AVValue@Napi@@XZ 00000001800333b4     ffi.obj
 0004:000003c0       $pdata$?EnsureInfo@?$Buffer@Uffi_cif@@@Napi@@AEBAXXZ 00000001800333c0     ffi.obj
 0004:000003cc       $pdata$?EnsureInfo@?$Buffer@U_ffi_type@@@Napi@@AEBAXXZ 00000001800333cc     ffi.obj
 0004:000003d8       $pdata$?EnsureInfo@?$Buffer@PEAX@Napi@@AEBAXXZ 00000001800333d8     ffi.obj
 0004:000003d8       $pdata$?EnsureInfo@?$Buffer@PEAU_ffi_type@@@Napi@@AEBAXXZ 00000001800333d8     ffi.obj
 0004:000003e4       $pdata$?EnsureInfo@?$Buffer@D@Napi@@AEBAXXZ 00000001800333e4     ffi.obj
 0004:000003f0       $pdata$??$New@V<lambda_f18167e7b21ea4a113cabf0718567511>@@@?$Buffer@D@Napi@@SA?AV01@PEAUnapi_env__@@PEAD_KV<lambda_f18167e7b21ea4a113cabf0718567511>@@@Z 00000001800333f0     ffi.obj
 0004:000003fc       $pdata$??$New@V<lambda_077cf94f9d4d555d88319182fbd6cada>@@@?$Buffer@D@Napi@@SA?AV01@PEAUnapi_env__@@PEAD_KV<lambda_077cf94f9d4d555d88319182fbd6cada>@@@Z 00000001800333fc     ffi.obj
 0004:00000408       $pdata$??$New@V<lambda_e9b8fd19e103a93ab0ab099cbcb65db2>@@@?$Buffer@D@Napi@@SA?AV01@PEAUnapi_env__@@PEAD_KV<lambda_e9b8fd19e103a93ab0ab099cbcb65db2>@@@Z 0000000180033408     ffi.obj
 0004:00000414       $pdata$??$New@V<lambda_e60858b6bddec48c5c84bf745a5cfbcc>@@@?$Buffer@D@Napi@@SA?AV01@PEAUnapi_env__@@PEAD_KV<lambda_e60858b6bddec48c5c84bf745a5cfbcc>@@@Z 0000000180033414     ffi.obj
 0004:00000420       $pdata$??$New@V<lambda_09ee09fd05315914118049364ef8ce81>@@@?$Buffer@D@Napi@@SA?AV01@PEAUnapi_env__@@PEAD_KV<lambda_09ee09fd05315914118049364ef8ce81>@@@Z 0000000180033420     ffi.obj
 0004:0000042c       $pdata$??$New@V<lambda_be7b0dd66bce0ea2e51b110e94c67118>@@@?$Buffer@D@Napi@@SA?AV01@PEAUnapi_env__@@PEAD_KV<lambda_be7b0dd66bce0ea2e51b110e94c67118>@@@Z 000000018003342c     ffi.obj
 0004:0000042c       $pdata$??$New@V<lambda_8ce0c008e85ccc57d252cad5a80f2864>@@@?$Buffer@D@Napi@@SA?AV01@PEAUnapi_env__@@PEAD_KV<lambda_8ce0c008e85ccc57d252cad5a80f2864>@@@Z 000000018003342c     callback_info.obj
 0004:00000438       $pdata$??$New@V<lambda_efb3f083e984881c8a8dc51f31353307>@@@?$Buffer@D@Napi@@SA?AV01@PEAUnapi_env__@@PEAD_KV<lambda_efb3f083e984881c8a8dc51f31353307>@@@Z 0000000180033438     ffi.obj
 0004:00000444       $pdata$??$_Construct@PEBQEAUnapi_value__@@@?$vector@PEAUnapi_value__@@V?$allocator@PEAUnapi_value__@@@std@@@std@@QEAAXPEBQEAUnapi_value__@@0Uforward_iterator_tag@1@@Z 0000000180033444     ffi.obj
 0004:00000450       $pdata$0$??$_Construct@PEBQEAUnapi_value__@@@?$vector@PEAUnapi_value__@@V?$allocator@PEAUnapi_value__@@@std@@@std@@QEAAXPEBQEAUnapi_value__@@0Uforward_iterator_tag@1@@Z 0000000180033450     ffi.obj
 0004:0000045c       $pdata$1$??$_Construct@PEBQEAUnapi_value__@@@?$vector@PEAUnapi_value__@@V?$allocator@PEAUnapi_value__@@@std@@@std@@QEAAXPEBQEAUnapi_value__@@0Uforward_iterator_tag@1@@Z 000000018003345c     ffi.obj
 0004:00000468       $pdata$2$??$_Construct@PEBQEAUnapi_value__@@@?$vector@PEAUnapi_value__@@V?$allocator@PEAUnapi_value__@@@std@@@std@@QEAAXPEBQEAUnapi_value__@@0Uforward_iterator_tag@1@@Z 0000000180033468     ffi.obj
 0004:00000474       $pdata$??$WrapCallback@V<lambda_03ec0e3e2a4187754bc7c97d0c48b30a>@@@details@Napi@@YAPEAUnapi_value__@@V<lambda_03ec0e3e2a4187754bc7c97d0c48b30a>@@@Z 0000000180033474     ffi.obj
 0004:00000480       $pdata$??$WrapCallback@V<lambda_4b130013be4a466940e6fe08d32cda83>@@@details@Napi@@YAPEAUnapi_value__@@V<lambda_4b130013be4a466940e6fe08d32cda83>@@@Z 0000000180033480     ffi.obj
 0004:0000048c       $pdata$??$AttachData@U?$CallbackData@P6A?AVValue@Napi@@AEBVCallbackInfo@2@@ZV12@@details@Napi@@@details@Napi@@YA?AW4napi_status@@PEAUnapi_env__@@PEAUnapi_value__@@PEAU?$CallbackData@P6A?AVValue@Napi@@AEBVCallbackInfo@2@@ZV12@@01@@Z 000000018003348c     ffi.obj
 0004:0000048c       $pdata$??$AttachData@U?$CallbackData@P6AXAEBVCallbackInfo@Napi@@@ZX@details@Napi@@@details@Napi@@YA?AW4napi_status@@PEAUnapi_env__@@PEAUnapi_value__@@PEAU?$CallbackData@P6AXAEBVCallbackInfo@Napi@@@ZX@01@@Z 000000018003348c     ffi.obj
 0004:00000498       $pdata$?New@Error@Napi@@SA?AV12@PEAUnapi_env__@@PEBD@Z 0000000180033498     callback_info.obj
 0004:000004a4       $pdata$?New@Error@Napi@@SA?AV12@PEAUnapi_env__@@AEBV?$basic_string@DU?$char_traits@D@std@@V?$allocator@D@2@@std@@@Z 00000001800334a4     callback_info.obj
 0004:000004b0       $pdata$?Set@ObjectReference@Napi@@QEAAXPEBDVValue@2@@Z 00000001800334b0     callback_info.obj
 0004:000004bc       $pdata$?Call@FunctionReference@Napi@@QEBA?AVValue@2@AEBV?$initializer_list@PEAUnapi_value__@@@std@@@Z 00000001800334bc     callback_info.obj
 0004:000004c8       $pdata$?closure_pointer_cb@FFI@@YAXVEnv@Napi@@PEADPEAX@Z 00000001800334c8     callback_info.obj
 0004:000004d4       $pdata$?DispatchToV8@CallbackInfo@FFI@@KAXPEAUcallback_info@2@PEAXPEAPEAX_N@Z 00000001800334d4     callback_info.obj
 0004:000004e0       $pdata$?WatcherCallback@CallbackInfo@FFI@@SAXPEAUuv_async_s@@@Z 00000001800334e0     callback_info.obj
 0004:000004ec       $pdata$3$?WatcherCallback@CallbackInfo@FFI@@SAXPEAUuv_async_s@@@Z 00000001800334ec     callback_info.obj
 0004:000004f8       $pdata$4$?WatcherCallback@CallbackInfo@FFI@@SAXPEAUuv_async_s@@@Z 00000001800334f8     callback_info.obj
 0004:00000504       $pdata$?Callback@CallbackInfo@FFI@@KA?AVValue@Napi@@AEBV14@@Z 0000000180033504     callback_info.obj
 0004:00000510       $pdata$?Invoke@CallbackInfo@FFI@@KAXPEAUffi_cif@@PEAXPEAPEAX1@Z 0000000180033510     callback_info.obj
 0004:0000051c       $pdata$?Initialize@CallbackInfo@FFI@@SA?AVFunction@Napi@@VEnv@4@@Z 000000018003351c     callback_info.obj
 0004:00000528       $pdata$??1?$unique_ptr@VThreadedCallbackInvokation@FFI@@U?$default_delete@VThreadedCallbackInvokation@FFI@@@std@@@std@@QEAA@XZ 0000000180033528     callback_info.obj
 0004:00000534       $pdata$0$??1?$unique_ptr@VThreadedCallbackInvokation@FFI@@U?$default_delete@VThreadedCallbackInvokation@FFI@@@std@@@std@@QEAA@XZ 0000000180033534     callback_info.obj
 0004:00000540       $pdata$1$??1?$unique_ptr@VThreadedCallbackInvokation@FFI@@U?$default_delete@VThreadedCallbackInvokation@FFI@@@std@@@std@@QEAA@XZ 0000000180033540     callback_info.obj
 0004:0000054c       $pdata$??0?$unordered_map@PEAUnapi_env__@@V?$unique_ptr@UPerEnvironmentData@FFI@@U?$default_delete@UPerEnvironmentData@FFI@@@std@@@std@@U?$hash@PEAUnapi_env__@@@3@U?$equal_to@PEAUnapi_env__@@@3@V?$allocator@U?$pair@QEAUnapi_env__@@V?$unique_ptr@UPerEnvironmentData@FFI@@U?$default_delete@UPerEnvironmentData@FFI@@@std@@@std@@@std@@@3@@std@@QEAA@XZ 000000018003354c     callback_info.obj
 0004:00000558       $pdata$??1?$unique_ptr@UPerEnvironmentData@FFI@@U?$default_delete@UPerEnvironmentData@FFI@@@std@@@std@@QEAA@XZ 0000000180033558     callback_info.obj
 0004:00000564       $pdata$0$??1?$unique_ptr@UPerEnvironmentData@FFI@@U?$default_delete@UPerEnvironmentData@FFI@@@std@@@std@@QEAA@XZ 0000000180033564     callback_info.obj
 0004:00000570       $pdata$1$??1?$unique_ptr@UPerEnvironmentData@FFI@@U?$default_delete@UPerEnvironmentData@FFI@@@std@@@std@@QEAA@XZ 0000000180033570     callback_info.obj
 0004:0000057c       $pdata$??1?$list@U?$pair@QEAUnapi_env__@@V?$unique_ptr@UPerEnvironmentData@FFI@@U?$default_delete@UPerEnvironmentData@FFI@@@std@@@std@@@std@@V?$allocator@U?$pair@QEAUnapi_env__@@V?$unique_ptr@UPerEnvironmentData@FFI@@U?$default_delete@UPerEnvironmentData@FFI@@@std@@@std@@@std@@@2@@std@@QEAA@XZ 000000018003357c     callback_info.obj
 0004:00000588       $pdata$?_Tidy@?$deque@PEAVThreadedCallbackInvokation@FFI@@V?$allocator@PEAVThreadedCallbackInvokation@FFI@@@std@@@std@@IEAAXXZ 0000000180033588     callback_info.obj
 0004:00000594       $pdata$?push_back@?$deque@PEAVThreadedCallbackInvokation@FFI@@V?$allocator@PEAVThreadedCallbackInvokation@FFI@@@std@@@std@@QEAAX$$QEAPEAVThreadedCallbackInvokation@FFI@@@Z 0000000180033594     callback_info.obj
 0004:000005a0       $pdata$?_Init@?$_Hash@V?$_Umap_traits@PEAUnapi_env__@@V?$unique_ptr@UPerEnvironmentData@FFI@@U?$default_delete@UPerEnvironmentData@FFI@@@std@@@std@@V?$_Uhash_compare@PEAUnapi_env__@@U?$hash@PEAUnapi_env__@@@std@@U?$equal_to@PEAUnapi_env__@@@3@@3@V?$allocator@U?$pair@QEAUnapi_env__@@V?$unique_ptr@UPerEnvironmentData@FFI@@U?$default_delete@UPerEnvironmentData@FFI@@@std@@@std@@@std@@@3@$0A@@std@@@std@@IEAAX_K@Z 00000001800335a0     callback_info.obj
 0004:000005ac       $pdata$?_Growmap@?$deque@PEAVThreadedCallbackInvokation@FFI@@V?$allocator@PEAVThreadedCallbackInvokation@FFI@@@std@@@std@@IEAAX_K@Z 00000001800335ac     callback_info.obj
 0004:000005b8       $pdata$1$?_Growmap@?$deque@PEAVThreadedCallbackInvokation@FFI@@V?$allocator@PEAVThreadedCallbackInvokation@FFI@@@std@@@std@@IEAAX_K@Z 00000001800335b8     callback_info.obj
 0004:000005c4       $pdata$5$?_Growmap@?$deque@PEAVThreadedCallbackInvokation@FFI@@V?$allocator@PEAVThreadedCallbackInvokation@FFI@@@std@@@std@@IEAAX_K@Z 00000001800335c4     callback_info.obj
 0004:000005d0       $pdata$6$?_Growmap@?$deque@PEAVThreadedCallbackInvokation@FFI@@V?$allocator@PEAVThreadedCallbackInvokation@FFI@@@std@@@std@@IEAAX_K@Z 00000001800335d0     callback_info.obj
 0004:000005dc       $pdata$8$?_Growmap@?$deque@PEAVThreadedCallbackInvokation@FFI@@V?$allocator@PEAVThreadedCallbackInvokation@FFI@@@std@@@std@@IEAAX_K@Z 00000001800335dc     callback_info.obj
 0004:000005e8       $pdata$9$?_Growmap@?$deque@PEAVThreadedCallbackInvokation@FFI@@V?$allocator@PEAVThreadedCallbackInvokation@FFI@@@std@@@std@@IEAAX_K@Z 00000001800335e8     callback_info.obj
 0004:000005f4       $pdata$?deallocate@?$_Wrap_alloc@U?$_Wrap_alloc@V?$allocator@V?$_List_unchecked_iterator@V?$_List_val@U?$_List_simple_types@U?$pair@QEAUnapi_env__@@V?$unique_ptr@UPerEnvironmentData@FFI@@U?$default_delete@UPerEnvironmentData@FFI@@@std@@@std@@@std@@@std@@@std@@@std@@@std@@@std@@@std@@QEAAXPEAV?$_List_unchecked_iterator@V?$_List_val@U?$_List_simple_types@U?$pair@QEAUnapi_env__@@V?$unique_ptr@UPerEnvironmentData@FFI@@U?$default_delete@UPerEnvironmentData@FFI@@@std@@@std@@@std@@@std@@@std@@@2@_K@Z 00000001800335f4     callback_info.obj
 0004:00000600       $pdata$?clear@?$list@U?$pair@QEAUnapi_env__@@V?$unique_ptr@UPerEnvironmentData@FFI@@U?$default_delete@UPerEnvironmentData@FFI@@@std@@@std@@@std@@V?$allocator@U?$pair@QEAUnapi_env__@@V?$unique_ptr@UPerEnvironmentData@FFI@@U?$default_delete@UPerEnvironmentData@FFI@@@std@@@std@@@std@@@2@@std@@QEAAXXZ 0000000180033600     callback_info.obj
 0004:0000060c       $pdata$2$?clear@?$list@U?$pair@QEAUnapi_env__@@V?$unique_ptr@UPerEnvironmentData@FFI@@U?$default_delete@UPerEnvironmentData@FFI@@@std@@@std@@@std@@V?$allocator@U?$pair@QEAUnapi_env__@@V?$unique_ptr@UPerEnvironmentData@FFI@@U?$default_delete@UPerEnvironmentData@FFI@@@std@@@std@@@std@@@2@@std@@QEAAXXZ 000000018003360c     callback_info.obj
 0004:00000618       $pdata$3$?clear@?$list@U?$pair@QEAUnapi_env__@@V?$unique_ptr@UPerEnvironmentData@FFI@@U?$default_delete@UPerEnvironmentData@FFI@@@std@@@std@@@std@@V?$allocator@U?$pair@QEAUnapi_env__@@V?$unique_ptr@UPerEnvironmentData@FFI@@U?$default_delete@UPerEnvironmentData@FFI@@@std@@@std@@@std@@@2@@std@@QEAAXXZ 0000000180033618     callback_info.obj
 0004:00000624       $pdata$?_Reallocate@?$vector@V?$_List_unchecked_iterator@V?$_List_val@U?$_List_simple_types@U?$pair@QEAUnapi_env__@@V?$unique_ptr@UPerEnvironmentData@FFI@@U?$default_delete@UPerEnvironmentData@FFI@@@std@@@std@@@std@@@std@@@std@@@std@@U?$_Wrap_alloc@V?$allocator@V?$_List_unchecked_iterator@V?$_List_val@U?$_List_simple_types@U?$pair@QEAUnapi_env__@@V?$unique_ptr@UPerEnvironmentData@FFI@@U?$default_delete@UPerEnvironmentData@FFI@@@std@@@std@@@std@@@std@@@std@@@std@@@std@@@2@@std@@IEAAX_K@Z 0000000180033624     callback_info.obj
 0004:00000630       $pdata$?allocate@?$_Wrap_alloc@U?$_Wrap_alloc@V?$allocator@V?$_List_unchecked_iterator@V?$_List_val@U?$_List_simple_types@U?$pair@QEAUnapi_env__@@V?$unique_ptr@UPerEnvironmentData@FFI@@U?$default_delete@UPerEnvironmentData@FFI@@@std@@@std@@@std@@@std@@@std@@@std@@@std@@@std@@@std@@QEAAPEAV?$_List_unchecked_iterator@V?$_List_val@U?$_List_simple_types@U?$pair@QEAUnapi_env__@@V?$unique_ptr@UPerEnvironmentData@FFI@@U?$default_delete@UPerEnvironmentData@FFI@@@std@@@std@@@std@@@std@@@std@@@2@_K@Z 0000000180033630     callback_info.obj
 0004:0000063c       $pdata$?_Insert_n@?$vector@V?$_List_unchecked_iterator@V?$_List_val@U?$_List_simple_types@U?$pair@QEAUnapi_env__@@V?$unique_ptr@UPerEnvironmentData@FFI@@U?$default_delete@UPerEnvironmentData@FFI@@@std@@@std@@@std@@@std@@@std@@@std@@U?$_Wrap_alloc@V?$allocator@V?$_List_unchecked_iterator@V?$_List_val@U?$_List_simple_types@U?$pair@QEAUnapi_env__@@V?$unique_ptr@UPerEnvironmentData@FFI@@U?$default_delete@UPerEnvironmentData@FFI@@@std@@@std@@@std@@@std@@@std@@@std@@@std@@@2@@std@@IEAA?AV?$_Vector_iterator@V?$_Vector_val@U?$_Simple_types@V?$_List_unchecked_iterator@V?$_List_val@U?$_List_simple_types@U?$pair@QEAUnapi_env__@@V?$unique_ptr@UPerEnvironmentData@FFI@@U?$default_delete@UPerEnvironmentData@FFI@@@std@@@std@@@std@@@std@@@std@@@std@@@std@@@std@@@2@V?$_Vector_const_iterator@V?$_Vector_val@U?$_Simple_types@V?$_List_unchecked_iterator@V?$_List_val@U?$_List_simple_types@U?$pair@QEAUnapi_env__@@V?$unique_ptr@UPerEnvironmentData@FFI@@U?$default_delete@UPerEnvironmentData@FFI@@@std@@@std@@@std@@@std@@@std@@@std@@@std@@@std@@@2@_KAEBV?$_List_unchecked_iterator@V?$_List_val@U?$_List_simple_types@U?$pair@QEAUnapi_env__@@V?$unique_ptr@UPerEnvironmentData@FFI@@U?$default_delete@UPerEnvironmentData@FFI@@@std@@@std@@@std@@@std@@@std@@@2@@Z 000000018003363c     callback_info.obj
 0004:00000648       $pdata$??$New@VError@Napi@@@Error@Napi@@KA?AV01@PEAUnapi_env__@@PEBD_KP6A?AW4napi_status@@0PEAUnapi_value__@@3PEAPEAU4@@Z@Z 0000000180033648     callback_info.obj
 0004:00000654       $pdata$??$New@P6AXVEnv@Napi@@PEADPEAX@ZUcallback_info@FFI@@@?$Buffer@D@Napi@@SA?AV01@PEAUnapi_env__@@PEAD_KP6AXVEnv@1@1PEAX@ZPEAUcallback_info@FFI@@@Z 0000000180033654     callback_info.obj
 0004:00000660       $pdata$?WrapperWithHint@?$FinalizeData@DP6AXVEnv@Napi@@PEADPEAX@ZUcallback_info@FFI@@@details@Napi@@SAXPEAUnapi_env__@@PEAX1@Z 0000000180033660     callback_info.obj
 0004:0000066c       $pdata$??$_Try_emplace@PEAUnapi_env__@@$$V@?$unordered_map@PEAUnapi_env__@@V?$unique_ptr@UPerEnvironmentData@FFI@@U?$default_delete@UPerEnvironmentData@FFI@@@std@@@std@@U?$hash@PEAUnapi_env__@@@3@U?$equal_to@PEAUnapi_env__@@@3@V?$allocator@U?$pair@QEAUnapi_env__@@V?$unique_ptr@UPerEnvironmentData@FFI@@U?$default_delete@UPerEnvironmentData@FFI@@@std@@@std@@@std@@@3@@std@@QEAA?AU?$pair@V?$_List_iterator@V?$_List_val@U?$_List_simple_types@U?$pair@QEAUnapi_env__@@V?$unique_ptr@UPerEnvironmentData@FFI@@U?$default_delete@UPerEnvironmentData@FFI@@@std@@@std@@@std@@@std@@@std@@@std@@_N@1@$$QEAPEAUnapi_env__@@@Z 000000018003366c     callback_info.obj
 0004:00000678       $pdata$0$??$_Try_emplace@PEAUnapi_env__@@$$V@?$unordered_map@PEAUnapi_env__@@V?$unique_ptr@UPerEnvironmentData@FFI@@U?$default_delete@UPerEnvironmentData@FFI@@@std@@@std@@U?$hash@PEAUnapi_env__@@@3@U?$equal_to@PEAUnapi_env__@@@3@V?$allocator@U?$pair@QEAUnapi_env__@@V?$unique_ptr@UPerEnvironmentData@FFI@@U?$default_delete@UPerEnvironmentData@FFI@@@std@@@std@@@std@@@3@@std@@QEAA?AU?$pair@V?$_List_iterator@V?$_List_val@U?$_List_simple_types@U?$pair@QEAUnapi_env__@@V?$unique_ptr@UPerEnvironmentData@FFI@@U?$default_delete@UPerEnvironmentData@FFI@@@std@@@std@@@std@@@std@@@std@@@std@@_N@1@$$QEAPEAUnapi_env__@@@Z 0000000180033678     callback_info.obj
 0004:00000684       $pdata$1$??$_Try_emplace@PEAUnapi_env__@@$$V@?$unordered_map@PEAUnapi_env__@@V?$unique_ptr@UPerEnvironmentData@FFI@@U?$default_delete@UPerEnvironmentData@FFI@@@std@@@std@@U?$hash@PEAUnapi_env__@@@3@U?$equal_to@PEAUnapi_env__@@@3@V?$allocator@U?$pair@QEAUnapi_env__@@V?$unique_ptr@UPerEnvironmentData@FFI@@U?$default_delete@UPerEnvironmentData@FFI@@@std@@@std@@@std@@@3@@std@@QEAA?AU?$pair@V?$_List_iterator@V?$_List_val@U?$_List_simple_types@U?$pair@QEAUnapi_env__@@V?$unique_ptr@UPerEnvironmentData@FFI@@U?$default_delete@UPerEnvironmentData@FFI@@@std@@@std@@@std@@@std@@@std@@@std@@_N@1@$$QEAPEAUnapi_env__@@@Z 0000000180033684     callback_info.obj
 0004:00000690       $pdata$??$_Insert@AEAU?$pair@QEAUnapi_env__@@V?$unique_ptr@UPerEnvironmentData@FFI@@U?$default_delete@UPerEnvironmentData@FFI@@@std@@@std@@@std@@V?$_List_unchecked_iterator@V?$_List_val@U?$_List_simple_types@U?$pair@QEAUnapi_env__@@V?$unique_ptr@UPerEnvironmentData@FFI@@U?$default_delete@UPerEnvironmentData@FFI@@@std@@@std@@@std@@@std@@@std@@@2@@?$_Hash@V?$_Umap_traits@PEAUnapi_env__@@V?$unique_ptr@UPerEnvironmentData@FFI@@U?$default_delete@UPerEnvironmentData@FFI@@@std@@@std@@V?$_Uhash_compare@PEAUnapi_env__@@U?$hash@PEAUnapi_env__@@@std@@U?$equal_to@PEAUnapi_env__@@@3@@3@V?$allocator@U?$pair@QEAUnapi_env__@@V?$unique_ptr@UPerEnvironmentData@FFI@@U?$default_delete@UPerEnvironmentData@FFI@@@std@@@std@@@std@@@3@$0A@@std@@@std@@IEAA?AU?$pair@V?$_List_iterator@V?$_List_val@U?$_List_simple_types@U?$pair@QEAUnapi_env__@@V?$unique_ptr@UPerEnvironmentData@FFI@@U?$default_delete@UPerEnvironmentData@FFI@@@std@@@std@@@std@@@std@@@std@@@std@@_N@1@AEAU?$pair@QEAUnapi_env__@@V?$unique_ptr@UPerEnvironmentData@FFI@@U?$default_delete@UPerEnvironmentData@FFI@@@std@@@std@@@1@V?$_List_unchecked_iterator@V?$_List_val@U?$_List_simple_types@U?$pair@QEAUnapi_env__@@V?$unique_ptr@UPerEnvironmentData@FFI@@U?$default_delete@UPerEnvironmentData@FFI@@@std@@@std@@@std@@@std@@@std@@@1@@Z 0000000180033690     callback_info.obj
 0004:0000069c       $pdata$0$??$_Insert@AEAU?$pair@QEAUnapi_env__@@V?$unique_ptr@UPerEnvironmentData@FFI@@U?$default_delete@UPerEnvironmentData@FFI@@@std@@@std@@@std@@V?$_List_unchecked_iterator@V?$_List_val@U?$_List_simple_types@U?$pair@QEAUnapi_env__@@V?$unique_ptr@UPerEnvironmentData@FFI@@U?$default_delete@UPerEnvironmentData@FFI@@@std@@@std@@@std@@@std@@@std@@@2@@?$_Hash@V?$_Umap_traits@PEAUnapi_env__@@V?$unique_ptr@UPerEnvironmentData@FFI@@U?$default_delete@UPerEnvironmentData@FFI@@@std@@@std@@V?$_Uhash_compare@PEAUnapi_env__@@U?$hash@PEAUnapi_env__@@@std@@U?$equal_to@PEAUnapi_env__@@@3@@3@V?$allocator@U?$pair@QEAUnapi_env__@@V?$unique_ptr@UPerEnvironmentData@FFI@@U?$default_delete@UPerEnvironmentData@FFI@@@std@@@std@@@std@@@3@$0A@@std@@@std@@IEAA?AU?$pair@V?$_List_iterator@V?$_List_val@U?$_List_simple_types@U?$pair@QEAUnapi_env__@@V?$unique_ptr@UPerEnvironmentData@FFI@@U?$default_delete@UPerEnvironmentData@FFI@@@std@@@std@@@std@@@std@@@std@@@std@@_N@1@AEAU?$pair@QEAUnapi_env__@@V?$unique_ptr@UPerEnvironmentData@FFI@@U?$default_delete@UPerEnvironmentData@FFI@@@std@@@std@@@1@V?$_List_unchecked_iterator@V?$_List_val@U?$_List_simple_types@U?$pair@QEAUnapi_env__@@V?$unique_ptr@UPerEnvironmentData@FFI@@U?$default_delete@UPerEnvironmentData@FFI@@@std@@@std@@@std@@@std@@@std@@@1@@Z 000000018003369c     callback_info.obj
 0004:000006a8       $pdata$1$??$_Insert@AEAU?$pair@QEAUnapi_env__@@V?$unique_ptr@UPerEnvironmentData@FFI@@U?$default_delete@UPerEnvironmentData@FFI@@@std@@@std@@@std@@V?$_List_unchecked_iterator@V?$_List_val@U?$_List_simple_types@U?$pair@QEAUnapi_env__@@V?$unique_ptr@UPerEnvironmentData@FFI@@U?$default_delete@UPerEnvironmentData@FFI@@@std@@@std@@@std@@@std@@@std@@@2@@?$_Hash@V?$_Umap_traits@PEAUnapi_env__@@V?$unique_ptr@UPerEnvironmentData@FFI@@U?$default_delete@UPerEnvironmentData@FFI@@@std@@@std@@V?$_Uhash_compare@PEAUnapi_env__@@U?$hash@PEAUnapi_env__@@@std@@U?$equal_to@PEAUnapi_env__@@@3@@3@V?$allocator@U?$pair@QEAUnapi_env__@@V?$unique_ptr@UPerEnvironmentData@FFI@@U?$default_delete@UPerEnvironmentData@FFI@@@std@@@std@@@std@@@3@$0A@@std@@@std@@IEAA?AU?$pair@V?$_List_iterator@V?$_List_val@U?$_List_simple_types@U?$pair@QEAUnapi_env__@@V?$unique_ptr@UPerEnvironmentData@FFI@@U?$default_delete@UPerEnvironmentData@FFI@@@std@@@std@@@std@@@std@@@std@@@std@@_N@1@AEAU?$pair@QEAUnapi_env__@@V?$unique_ptr@UPerEnvironmentData@FFI@@U?$default_delete@UPerEnvironmentData@FFI@@@std@@@std@@@1@V?$_List_unchecked_iterator@V?$_List_val@U?$_List_simple_types@U?$pair@QEAUnapi_env__@@V?$unique_ptr@UPerEnvironmentData@FFI@@U?$default_delete@UPerEnvironmentData@FFI@@@std@@@std@@@std@@@std@@@std@@@1@@Z 00000001800336a8     callback_info.obj
 0004:000006b4       $pdata$2$??$_Insert@AEAU?$pair@QEAUnapi_env__@@V?$unique_ptr@UPerEnvironmentData@FFI@@U?$default_delete@UPerEnvironmentData@FFI@@@std@@@std@@@std@@V?$_List_unchecked_iterator@V?$_List_val@U?$_List_simple_types@U?$pair@QEAUnapi_env__@@V?$unique_ptr@UPerEnvironmentData@FFI@@U?$default_delete@UPerEnvironmentData@FFI@@@std@@@std@@@std@@@std@@@std@@@2@@?$_Hash@V?$_Umap_traits@PEAUnapi_env__@@V?$unique_ptr@UPerEnvironmentData@FFI@@U?$default_delete@UPerEnvironmentData@FFI@@@std@@@std@@V?$_Uhash_compare@PEAUnapi_env__@@U?$hash@PEAUnapi_env__@@@std@@U?$equal_to@PEAUnapi_env__@@@3@@3@V?$allocator@U?$pair@QEAUnapi_env__@@V?$unique_ptr@UPerEnvironmentData@FFI@@U?$default_delete@UPerEnvironmentData@FFI@@@std@@@std@@@std@@@3@$0A@@std@@@std@@IEAA?AU?$pair@V?$_List_iterator@V?$_List_val@U?$_List_simple_types@U?$pair@QEAUnapi_env__@@V?$unique_ptr@UPerEnvironmentData@FFI@@U?$default_delete@UPerEnvironmentData@FFI@@@std@@@std@@@std@@@std@@@std@@@std@@_N@1@AEAU?$pair@QEAUnapi_env__@@V?$unique_ptr@UPerEnvironmentData@FFI@@U?$default_delete@UPerEnvironmentData@FFI@@@std@@@std@@@1@V?$_List_unchecked_iterator@V?$_List_val@U?$_List_simple_types@U?$pair@QEAUnapi_env__@@V?$unique_ptr@UPerEnvironmentData@FFI@@U?$default_delete@UPerEnvironmentData@FFI@@@std@@@std@@@std@@@std@@@std@@@1@@Z 00000001800336b4     callback_info.obj
 0004:000006c0       $pdata$3$??$_Insert@AEAU?$pair@QEAUnapi_env__@@V?$unique_ptr@UPerEnvironmentData@FFI@@U?$default_delete@UPerEnvironmentData@FFI@@@std@@@std@@@std@@V?$_List_unchecked_iterator@V?$_List_val@U?$_List_simple_types@U?$pair@QEAUnapi_env__@@V?$unique_ptr@UPerEnvironmentData@FFI@@U?$default_delete@UPerEnvironmentData@FFI@@@std@@@std@@@std@@@std@@@std@@@2@@?$_Hash@V?$_Umap_traits@PEAUnapi_env__@@V?$unique_ptr@UPerEnvironmentData@FFI@@U?$default_delete@UPerEnvironmentData@FFI@@@std@@@std@@V?$_Uhash_compare@PEAUnapi_env__@@U?$hash@PEAUnapi_env__@@@std@@U?$equal_to@PEAUnapi_env__@@@3@@3@V?$allocator@U?$pair@QEAUnapi_env__@@V?$unique_ptr@UPerEnvironmentData@FFI@@U?$default_delete@UPerEnvironmentData@FFI@@@std@@@std@@@std@@@3@$0A@@std@@@std@@IEAA?AU?$pair@V?$_List_iterator@V?$_List_val@U?$_List_simple_types@U?$pair@QEAUnapi_env__@@V?$unique_ptr@UPerEnvironmentData@FFI@@U?$default_delete@UPerEnvironmentData@FFI@@@std@@@std@@@std@@@std@@@std@@@std@@_N@1@AEAU?$pair@QEAUnapi_env__@@V?$unique_ptr@UPerEnvironmentData@FFI@@U?$default_delete@UPerEnvironmentData@FFI@@@std@@@std@@@1@V?$_List_unchecked_iterator@V?$_List_val@U?$_List_simple_types@U?$pair@QEAUnapi_env__@@V?$unique_ptr@UPerEnvironmentData@FFI@@U?$default_delete@UPerEnvironmentData@FFI@@@std@@@std@@@std@@@std@@@std@@@1@@Z 00000001800336c0     callback_info.obj
 0004:000006cc       $pdata$?_Check_size@?$_Hash@V?$_Umap_traits@PEAUnapi_env__@@V?$unique_ptr@UPerEnvironmentData@FFI@@U?$default_delete@UPerEnvironmentData@FFI@@@std@@@std@@V?$_Uhash_compare@PEAUnapi_env__@@U?$hash@PEAUnapi_env__@@@std@@U?$equal_to@PEAUnapi_env__@@@3@@3@V?$allocator@U?$pair@QEAUnapi_env__@@V?$unique_ptr@UPerEnvironmentData@FFI@@U?$default_delete@UPerEnvironmentData@FFI@@@std@@@std@@@std@@@3@$0A@@std@@@std@@IEAAXXZ 00000001800336cc     callback_info.obj
 0004:000006d8       $pdata$1$?_Check_size@?$_Hash@V?$_Umap_traits@PEAUnapi_env__@@V?$unique_ptr@UPerEnvironmentData@FFI@@U?$default_delete@UPerEnvironmentData@FFI@@@std@@@std@@V?$_Uhash_compare@PEAUnapi_env__@@U?$hash@PEAUnapi_env__@@@std@@U?$equal_to@PEAUnapi_env__@@@3@@3@V?$allocator@U?$pair@QEAUnapi_env__@@V?$unique_ptr@UPerEnvironmentData@FFI@@U?$default_delete@UPerEnvironmentData@FFI@@@std@@@std@@@std@@@3@$0A@@std@@@std@@IEAAXXZ 00000001800336d8     callback_info.obj
 0004:000006e4       $pdata$2$?_Check_size@?$_Hash@V?$_Umap_traits@PEAUnapi_env__@@V?$unique_ptr@UPerEnvironmentData@FFI@@U?$default_delete@UPerEnvironmentData@FFI@@@std@@@std@@V?$_Uhash_compare@PEAUnapi_env__@@U?$hash@PEAUnapi_env__@@@std@@U?$equal_to@PEAUnapi_env__@@@3@@3@V?$allocator@U?$pair@QEAUnapi_env__@@V?$unique_ptr@UPerEnvironmentData@FFI@@U?$default_delete@UPerEnvironmentData@FFI@@@std@@@std@@@std@@@3@$0A@@std@@@std@@IEAAXXZ 00000001800336e4     callback_info.obj
 0004:000006f0       $pdata$sprintf             00000001800336f0     win32-dlfcn.obj
 0004:000006fc       $pdata$UTF8toWCHAR         00000001800336fc     win32-dlfcn.obj
 0004:00000708       $pdata$0$UTF8toWCHAR       0000000180033708     win32-dlfcn.obj
 0004:00000714       $pdata$2$UTF8toWCHAR       0000000180033714     win32-dlfcn.obj
 0004:00000720       $pdata$4$UTF8toWCHAR       0000000180033720     win32-dlfcn.obj
 0004:0000072c       $pdata$dlopen              000000018003372c     win32-dlfcn.obj
 0004:00000738       $pdata$0$dlopen            0000000180033738     win32-dlfcn.obj
 0004:00000744       $pdata$4$dlopen            0000000180033744     win32-dlfcn.obj
 0004:00000750       $pdata$dlclose             0000000180033750     win32-dlfcn.obj
 0004:0000075c       $pdata$dlsym               000000018003375c     win32-dlfcn.obj
 0004:00000768       $pdata$dlerror             0000000180033768     win32-dlfcn.obj
 0004:00000774       $pdata$?load_exe_hook@@YAP6A_JXZIPEAUDelayLoadInfo@@@Z 0000000180033774     win_delay_load_hook.obj
 0004:00000780       $pdata$initialize_aggregate 0000000180033780     libffi:prep_cif.obj
 0004:0000078c       $pdata$0$initialize_aggregate 000000018003378c     libffi:prep_cif.obj
 0004:00000798       $pdata$2$initialize_aggregate 0000000180033798     libffi:prep_cif.obj
 0004:000007a4       $pdata$3$initialize_aggregate 00000001800337a4     libffi:prep_cif.obj
 0004:000007b0       $pdata$ffi_prep_cif        00000001800337b0     libffi:prep_cif.obj
 0004:000007bc       $pdata$ffi_prep_args       00000001800337bc     libffi:ffi.obj
 0004:000007c8       $pdata$1$ffi_prep_args     00000001800337c8     libffi:ffi.obj
 0004:000007d4       $pdata$2$ffi_prep_args     00000001800337d4     libffi:ffi.obj
 0004:000007e0       $pdata$ffi_call            00000001800337e0     libffi:ffi.obj
 0004:000007ec       $pdata$ffi_closure_win64_inner 00000001800337ec     libffi:ffi.obj
 0004:000007f8       $pdata$ffi_prep_closure_loc 00000001800337f8     libffi:ffi.obj
 0004:00000804       $pdata$1$ffi_prep_closure_loc 0000000180033804     libffi:ffi.obj
 0004:00000810       $pdata$2$ffi_prep_closure_loc 0000000180033810     libffi:ffi.obj
 0004:0000081c       $pdata$3$ffi_prep_closure_loc 000000018003381c     libffi:ffi.obj
 0004:00000828       $pdata$win32munmap         0000000180033828     libffi:closures.obj
 0004:00000834       $pdata$init_mparams        0000000180033834     libffi:closures.obj
 0004:00000840       $pdata$0$init_mparams      0000000180033840     libffi:closures.obj
 0004:0000084c       $pdata$1$init_mparams      000000018003384c     libffi:closures.obj
 0004:00000858       $pdata$mmap_alloc          0000000180033858     libffi:closures.obj
 0004:00000864       $pdata$prepend_alloc       0000000180033864     libffi:closures.obj
 0004:00000870       $pdata$add_segment         0000000180033870     libffi:closures.obj
 0004:0000087c       $pdata$sys_alloc           000000018003387c     libffi:closures.obj
 0004:00000888       $pdata$0$sys_alloc         0000000180033888     libffi:closures.obj
 0004:00000894       $pdata$2$sys_alloc         0000000180033894     libffi:closures.obj
 0004:000008a0       $pdata$4$sys_alloc         00000001800338a0     libffi:closures.obj
 0004:000008ac       $pdata$5$sys_alloc         00000001800338ac     libffi:closures.obj
 0004:000008b8       $pdata$6$sys_alloc         00000001800338b8     libffi:closures.obj
 0004:000008c4       $pdata$release_unused_segments 00000001800338c4     libffi:closures.obj
 0004:000008d0       $pdata$sys_trim            00000001800338d0     libffi:closures.obj
 0004:000008dc       $pdata$1$sys_trim          00000001800338dc     libffi:closures.obj
 0004:000008e8       $pdata$2$sys_trim          00000001800338e8     libffi:closures.obj
 0004:000008f4       $pdata$tmalloc_small       00000001800338f4     libffi:closures.obj
 0004:00000900       $pdata$1$tmalloc_small     0000000180033900     libffi:closures.obj
 0004:0000090c       $pdata$3$tmalloc_small     000000018003390c     libffi:closures.obj
 0004:00000918       $pdata$4$tmalloc_small     0000000180033918     libffi:closures.obj
 0004:00000924       $pdata$dlmalloc            0000000180033924     libffi:closures.obj
 0004:00000930       $pdata$dlfree              0000000180033930     libffi:closures.obj
 0004:0000093c       $pdata$3$dlfree            000000018003393c     libffi:closures.obj
 0004:00000948       $pdata$4$dlfree            0000000180033948     libffi:closures.obj
 0004:00000954       $pdata$5$dlfree            0000000180033954     libffi:closures.obj
 0004:00000984       $pdata$??0bad_alloc@std@@QEAA@AEBV01@@Z 0000000180033984     libcpmt:xthrow.obj
 0004:00000990       $pdata$??0exception@std@@QEAA@AEBV01@@Z 0000000180033990     libcpmt:xthrow.obj
 0004:0000099c       $pdata$??0length_error@std@@QEAA@AEBV01@@Z 000000018003399c     libcpmt:xthrow.obj
 0004:000009a8       $pdata$??0length_error@std@@QEAA@PEBD@Z 00000001800339a8     libcpmt:xthrow.obj
 0004:000009b4       $pdata$??0logic_error@std@@QEAA@AEBV01@@Z 00000001800339b4     libcpmt:xthrow.obj
 0004:000009c0       $pdata$??0out_of_range@std@@QEAA@AEBV01@@Z 00000001800339c0     libcpmt:xthrow.obj
 0004:000009cc       $pdata$??0out_of_range@std@@QEAA@PEBD@Z 00000001800339cc     libcpmt:xthrow.obj
 0004:000009d8       $pdata$??_Gexception@std@@UEAAPEAXI@Z 00000001800339d8     libcpmt:xthrow.obj
 0004:000009d8       $pdata$??_Gout_of_range@std@@UEAAPEAXI@Z 00000001800339d8     libcpmt:xthrow.obj
 0004:000009d8       $pdata$??_Glength_error@std@@UEAAPEAXI@Z 00000001800339d8     libcpmt:xthrow.obj
 0004:000009d8       $pdata$??_Gbad_array_new_length@std@@UEAAPEAXI@Z 00000001800339d8     LIBCMT:throw_bad_alloc.obj
 0004:000009d8       $pdata$??_Gbad_alloc@std@@UEAAPEAXI@Z 00000001800339d8     libcpmt:xthrow.obj
 0004:000009d8       $pdata$??_Glogic_error@std@@UEAAPEAXI@Z 00000001800339d8     libcpmt:xthrow.obj
 0004:000009d8       $pdata$??_Gbad_exception@std@@UEAAPEAXI@Z 00000001800339d8     libvcruntime:frame.obj
 0004:000009e4       $pdata$?_Xlength_error@std@@YAXPEBD@Z 00000001800339e4     libcpmt:xthrow.obj
 0004:000009f0       $pdata$?_Xout_of_range@std@@YAXPEBD@Z 00000001800339f0     libcpmt:xthrow.obj
 0004:00000a08       $pdata$??2@YAPEAX_K@Z      0000000180033a08     LIBCMT:new_scalar.obj
 0004:00000a14       $pdata$??_Gtype_info@@UEAAPEAXI@Z 0000000180033a14     LIBCMT:std_type_info_static.obj
 0004:00000a20       $pdata$__scrt_acquire_startup_lock 0000000180033a20     LIBCMT:utility.obj
 0004:00000a2c       $pdata$__scrt_dllmain_after_initialize_c 0000000180033a2c     LIBCMT:utility.obj
 0004:00000a38       $pdata$__scrt_dllmain_before_initialize_c 0000000180033a38     LIBCMT:utility.obj
 0004:00000a44       $pdata$__scrt_dllmain_crt_thread_attach 0000000180033a44     LIBCMT:utility.obj
 0004:00000a50       $pdata$__scrt_dllmain_crt_thread_detach 0000000180033a50     LIBCMT:utility.obj
 0004:00000a5c       $pdata$__scrt_dllmain_exception_filter 0000000180033a5c     LIBCMT:utility.obj
 0004:00000a68       $pdata$__scrt_dllmain_uninitialize_c 0000000180033a68     LIBCMT:utility.obj
 0004:00000a74       $pdata$__scrt_dllmain_uninitialize_critical 0000000180033a74     LIBCMT:utility.obj
 0004:00000a80       $pdata$__scrt_initialize_crt 0000000180033a80     LIBCMT:utility.obj
 0004:00000a8c       $pdata$__scrt_initialize_onexit_tables 0000000180033a8c     LIBCMT:utility.obj
 0004:00000a98       $pdata$__scrt_is_nonwritable_in_current_image 0000000180033a98     LIBCMT:utility.obj
 0004:00000aa4       $pdata$__scrt_release_startup_lock 0000000180033aa4     LIBCMT:utility.obj
 0004:00000ab0       $pdata$__scrt_uninitialize_crt 0000000180033ab0     LIBCMT:utility.obj
 0004:00000abc       $pdata$_onexit             0000000180033abc     LIBCMT:utility.obj
 0004:00000ac8       $pdata$atexit              0000000180033ac8     LIBCMT:utility.obj
 0004:00000ad4       $pdata$?dllmain_crt_dispatch@@YAHQEAUHINSTANCE__@@KQEAX@Z 0000000180033ad4     LIBCMT:dll_dllmain.obj
 0004:00000ae0       $pdata$?dllmain_crt_process_attach@@YAHQEAUHINSTANCE__@@QEAX@Z 0000000180033ae0     LIBCMT:dll_dllmain.obj
 0004:00000aec       $pdata$?dllmain_crt_process_detach@@YAH_N@Z 0000000180033aec     LIBCMT:dll_dllmain.obj
 0004:00000af8       $pdata$?dllmain_dispatch@@YAHQEAUHINSTANCE__@@KQEAX@Z 0000000180033af8     LIBCMT:dll_dllmain.obj
 0004:00000b04       $pdata$?dllmain_raw@@YAHQEAUHINSTANCE__@@KQEAX@Z 0000000180033b04     LIBCMT:dll_dllmain.obj
 0004:00000b10       $pdata$_DllMainCRTStartup  0000000180033b10     LIBCMT:dll_dllmain.obj
 0004:00000b28       $pdata$__raise_securityfailure 0000000180033b28     LIBCMT:gs_report.obj
 0004:00000b34       $pdata$__report_gsfailure  0000000180033b34     LIBCMT:gs_report.obj
 0004:00000b40       $pdata$__report_rangecheckfailure 0000000180033b40     LIBCMT:gs_report.obj
 0004:00000b4c       $pdata$__report_securityfailure 0000000180033b4c     LIBCMT:gs_report.obj
 0004:00000b58       $pdata$capture_current_context 0000000180033b58     LIBCMT:gs_report.obj
 0004:00000b64       $pdata$capture_previous_context 0000000180033b64     LIBCMT:gs_report.obj
 0004:00000b70       $pdata$??0bad_array_new_length@std@@QEAA@AEBV01@@Z 0000000180033b70     LIBCMT:throw_bad_alloc.obj
 0004:00000b7c       $pdata$?_Xbad_alloc@std@@YAXXZ 0000000180033b7c     libcpmt:xthrow.obj
 0004:00000b7c       $pdata$?__scrt_throw_std_bad_alloc@@YAXXZ 0000000180033b7c     LIBCMT:throw_bad_alloc.obj
 0004:00000b88       $pdata$?__scrt_throw_std_bad_array_new_length@@YAXXZ 0000000180033b88     LIBCMT:throw_bad_alloc.obj
 0004:00000b94       $pdata$__isa_available_init 0000000180033b94     LIBCMT:_cpu_disp_.obj
 0004:00000ba0       $pdata$__scrt_fastfail     0000000180033ba0     LIBCMT:utility_desktop.obj
 0004:00000bac       $pdata$__security_init_cookie 0000000180033bac     LIBCMT:gs_support.obj
 0004:00000bb8       $pdata$__scrt_initialize_default_local_stdio_options 0000000180033bb8     LIBCMT:default_local_stdio_options.obj
 0004:00000bc4       $pdata$_RTC_Initialize     0000000180033bc4     LIBCMT:_initsect_.obj
 0004:00000bd0       $pdata$_RTC_Terminate      0000000180033bd0     LIBCMT:_initsect_.obj
 0004:00000be8       $pdata$__DestructExceptionObject 0000000180033be8     libvcruntime:frame.obj
 0004:00000bf4       $pdata$??0bad_exception@std@@QEAA@AEBV01@@Z 0000000180033bf4     libvcruntime:frame.obj
 0004:00000c00       $pdata$?CatchIt@@YAXPEAUEHExceptionRecord@@PEA_KPEAU_CONTEXT@@PEAU_xDISPATCHER_CONTEXT@@PEBU_s_FuncInfo@@PEBU_s_HandlerType@@PEBU_s_CatchableType@@PEBU_s_TryBlockMapEntry@@H1EE@Z 0000000180033c00     libvcruntime:frame.obj
 0004:00000c0c       $pdata$?ExFilterRethrow@@YAHPEAU_EXCEPTION_POINTERS@@PEAUEHExceptionRecord@@PEAH@Z 0000000180033c0c     libvcruntime:frame.obj
 0004:00000c18       $pdata$?FindHandler@@YAXPEAUEHExceptionRecord@@PEA_KPEAU_CONTEXT@@PEAU_xDISPATCHER_CONTEXT@@PEBU_s_FuncInfo@@EH1@Z 0000000180033c18     libvcruntime:frame.obj
 0004:00000c24       $pdata$?FindHandlerForForeignException@@YAXPEAUEHExceptionRecord@@PEA_KPEAU_CONTEXT@@PEAU_xDISPATCHER_CONTEXT@@PEBU_s_FuncInfo@@HH1@Z 0000000180033c24     libvcruntime:frame.obj
 0004:00000c30       $pdata$?IsInExceptionSpec@@YAEPEAUEHExceptionRecord@@PEBU_s_ESTypeList@@@Z 0000000180033c30     libvcruntime:frame.obj
 0004:00000c3c       $pdata$__BuildCatchObject  0000000180033c3c     libvcruntime:frame.obj
 0004:00000c48       $pdata$__BuildCatchObjectHelper 0000000180033c48     libvcruntime:frame.obj
 0004:00000c54       $pdata$__CxxCallCatchBlock 0000000180033c54     libvcruntime:frame.obj
 0004:00000c60       $pdata$__FrameUnwindFilter 0000000180033c60     libvcruntime:frame.obj
 0004:00000c6c       $pdata$__FrameUnwindToState 0000000180033c6c     libvcruntime:frame.obj
 0004:00000c78       $pdata$__InternalCxxFrameHandler 0000000180033c78     libvcruntime:frame.obj
 0004:00000c84       $pdata$__TypeMatch         0000000180033c84     libvcruntime:frame.obj
 0004:00000c90       $pdata$__std_terminate     0000000180033c90     libvcruntime:frame.obj
 0004:00000c9c       $pdata$__std_exception_copy 0000000180033c9c     libvcruntime:std_exception.obj
 0004:00000ca8       $pdata$__std_exception_destroy 0000000180033ca8     libvcruntime:std_exception.obj
 0004:00000cb4       $pdata$_CxxThrowException  0000000180033cb4     libvcruntime:throw.obj
 0004:00000cc0       $pdata$__vcrt_initialize   0000000180033cc0     libvcruntime:initialization.obj
 0004:00000ccc       $pdata$__vcrt_thread_attach 0000000180033ccc     libvcruntime:initialization.obj
 0004:00000cd8       $pdata$__vcrt_thread_detach 0000000180033cd8     libvcruntime:initialization.obj
 0004:00000ce4       $pdata$__vcrt_uninitialize 0000000180033ce4     libvcruntime:initialization.obj
 0004:00000cf0       $pdata$__vcrt_uninitialize_critical 0000000180033cf0     libvcruntime:initialization.obj
 0004:00000cfc       $pdata$__C_specific_handler 0000000180033cfc     libvcruntime:_chandler_.obj
 0004:00000d14       $pdata$__std_type_info_destroy_list 0000000180033d14     libvcruntime:std_type_info.obj
 0004:00000d20       $pdata$__vcrt_freefls      0000000180033d20     libvcruntime:per_thread_data.obj
 0004:00000d2c       $pdata$__vcrt_freeptd      0000000180033d2c     libvcruntime:per_thread_data.obj
 0004:00000d38       $pdata$__vcrt_getptd       0000000180033d38     libvcruntime:per_thread_data.obj
 0004:00000d44       $pdata$__vcrt_getptd_noexit 0000000180033d44     libvcruntime:per_thread_data.obj
 0004:00000d50       $pdata$__vcrt_initialize_ptd 0000000180033d50     libvcruntime:per_thread_data.obj
 0004:00000d5c       $pdata$__vcrt_uninitialize_ptd 0000000180033d5c     libvcruntime:per_thread_data.obj
 0004:00000d68       $pdata$?__GetCurrentState@@YAHPEA_KPEAU_xDISPATCHER_CONTEXT@@PEBU_s_FuncInfo@@@Z 0000000180033d68     libvcruntime:ehstate.obj
 0004:00000d74       $pdata$?__GetUnwindTryBlock@@YAHPEA_KPEAU_xDISPATCHER_CONTEXT@@PEBU_s_FuncInfo@@@Z 0000000180033d74     libvcruntime:ehstate.obj
 0004:00000d80       $pdata$?__SetUnwindTryBlock@@YAXPEA_KPEAU_xDISPATCHER_CONTEXT@@PEBU_s_FuncInfo@@H@Z 0000000180033d80     libvcruntime:ehstate.obj
 0004:00000d8c       $pdata$?__StateFromIp@@YAHPEBU_s_FuncInfo@@PEAU_xDISPATCHER_CONTEXT@@_J@Z 0000000180033d8c     libvcruntime:ehstate.obj
 0004:00000da4       $pdata$?_ExecutionInCatch@@YAHPEAU_xDISPATCHER_CONTEXT@@PEBU_s_FuncInfo@@@Z 0000000180033da4     libvcruntime:trnsctrl.obj
 0004:00000db0       $pdata$?_GetEstablisherFrame@@YAPEA_KPEA_KPEAU_xDISPATCHER_CONTEXT@@PEBU_s_FuncInfo@@0@Z 0000000180033db0     libvcruntime:trnsctrl.obj
 0004:00000dbc       $pdata$?_GetRangeOfTrysToCheck@@YAPEBU_s_TryBlockMapEntry@@PEA_KPEBU_s_FuncInfo@@HHPEAI2PEAU_xDISPATCHER_CONTEXT@@@Z 0000000180033dbc     libvcruntime:trnsctrl.obj
 0004:00000dc8       $pdata$?__FrameUnwindToEmptyState@@YAXPEA_KPEAU_xDISPATCHER_CONTEXT@@PEBU_s_FuncInfo@@@Z 0000000180033dc8     libvcruntime:trnsctrl.obj
 0004:00000dd4       $pdata$?__SehTransFilter@@YAHPEAU_EXCEPTION_POINTERS@@PEAUEHExceptionRecord@@PEA_KPEAU_CONTEXT@@PEAU_xDISPATCHER_CONTEXT@@PEBU_s_FuncInfo@@PEAH@Z 0000000180033dd4     libvcruntime:trnsctrl.obj
 0004:00000de0       $pdata$_CallSETranslator   0000000180033de0     libvcruntime:trnsctrl.obj
 0004:00000dec       $pdata$_CreateFrameInfo    0000000180033dec     libvcruntime:trnsctrl.obj
 0004:00000df8       $pdata$_FindAndUnlinkFrame 0000000180033df8     libvcruntime:trnsctrl.obj
 0004:00000e04       $pdata$_GetImageBase       0000000180033e04     libvcruntime:trnsctrl.obj
 0004:00000e10       $pdata$_GetThrowImageBase  0000000180033e10     libvcruntime:trnsctrl.obj
 0004:00000e1c       $pdata$_IsExceptionObjectToBeDestroyed 0000000180033e1c     libvcruntime:trnsctrl.obj
 0004:00000e28       $pdata$_SetImageBase       0000000180033e28     libvcruntime:trnsctrl.obj
 0004:00000e34       $pdata$_SetThrowImageBase  0000000180033e34     libvcruntime:trnsctrl.obj
 0004:00000e40       $pdata$_UnwindNestedFrames 0000000180033e40     libvcruntime:trnsctrl.obj
 0004:00000e4c       $pdata$__CxxFrameHandler3  0000000180033e4c     libvcruntime:trnsctrl.obj
 0004:00000e88       $pdata$__vcrt_initialize_locks 0000000180033e88     libvcruntime:locks.obj
 0004:00000e94       $pdata$__vcrt_uninitialize_locks 0000000180033e94     libvcruntime:locks.obj
 0004:00000ea0       $pdata$?try_get_function@@YAPEAXW4function_id@?A0x679b24ab@@QEBDQEBW4module_id@2@2@Z 0000000180033ea0     libvcruntime:winapi_downlevel.obj
 0004:00000eac       $pdata$__vcrt_FlsAlloc     0000000180033eac     libvcruntime:winapi_downlevel.obj
 0004:00000eb8       $pdata$__vcrt_FlsFree      0000000180033eb8     libvcruntime:winapi_downlevel.obj
 0004:00000ec4       $pdata$__vcrt_FlsGetValue  0000000180033ec4     libvcruntime:winapi_downlevel.obj
 0004:00000ed0       $pdata$__vcrt_FlsSetValue  0000000180033ed0     libvcruntime:winapi_downlevel.obj
 0004:00000edc       $pdata$__vcrt_InitializeCriticalSectionEx 0000000180033edc     libvcruntime:winapi_downlevel.obj
 0004:00000ee8       $pdata$__vcrt_uninitialize_winapi_thunks 0000000180033ee8     libvcruntime:winapi_downlevel.obj
 0004:00000ef4       $pdata$__acrt_errno_map_os_error 0000000180033ef4     libucrt:errno.obj
 0004:00000f00       $pdata$__doserrno          0000000180033f00     libucrt:errno.obj
 0004:00000f0c       $pdata$_errno              0000000180033f0c     libucrt:errno.obj
 0004:00000f18       $pdata$??$common_assert_to_message_box@_W@@YAXQEB_W0IQEAX@Z 0000000180033f18     libucrt:assert.obj
 0004:00000f24       $pdata$??$common_assert_to_message_box_build_string@_W@@YAXQEA_W_KQEB_W2IQEAX@Z 0000000180033f24     libucrt:assert.obj
 0004:00000f30       $pdata$??$common_assert_to_stderr@_W@@YAXQEB_W0I@Z 0000000180033f30     libucrt:assert.obj
 0004:00000f3c       $pdata$_wassert            0000000180033f3c     libucrt:assert.obj
 0004:00000f48       $pdata$fwprintf            0000000180033f48     libucrt:assert.obj
 0004:00000f54       $pdata$swprintf            0000000180033f54     libucrt:assert.obj
 0004:00000f60       $pdata$__acrt_call_reportfault 0000000180033f60     libucrt:invalid_parameter.obj
 0004:00000f6c       $pdata$_invalid_parameter  0000000180033f6c     libucrt:invalid_parameter.obj
 0004:00000f78       $pdata$_invalid_parameter_noinfo 0000000180033f78     libucrt:invalid_parameter.obj
 0004:00000f84       $pdata$_invalid_parameter_noinfo_noreturn 0000000180033f84     libucrt:invalid_parameter.obj
 0004:00000f90       $pdata$_invoke_watson      0000000180033f90     libucrt:invalid_parameter.obj
 0004:00000f9c       $pdata$??$?RV<lambda_7b91131dde12e1c3dfc74ff76b3f2eac>@@AEAV<lambda_dd75445284c072d0bd3768540cc698fa>@@V<lambda_16bc4ecb55b4718497c16bceaea2ceaf>@@@?$__crt_seh_guarded_call@H@@QEAAH$$QEAV<lambda_7b91131dde12e1c3dfc74ff76b3f2eac>@@AEAV<lambda_dd75445284c072d0bd3768540cc698fa>@@$$QEAV<lambda_16bc4ecb55b4718497c16bceaea2ceaf>@@@Z 0000000180033f9c     libucrt:output.obj
 0004:00000fa8       $pdata$??$ensure_buffer_is_big_enough@D@formatting_buffer@__crt_stdio_output@@QEAA_N_K@Z 0000000180033fa8     libucrt:output.obj
 0004:00000fb4       $pdata$??$type_case_integer_parse_into_buffer@I@?$output_processor@DV?$string_output_adapter@D@__crt_stdio_output@@V?$standard_base@DV?$string_output_adapter@D@__crt_stdio_output@@@2@@__crt_stdio_output@@AEAAXII_N@Z 0000000180033fb4     libucrt:output.obj
 0004:00000fb4       $pdata$??$type_case_integer_parse_into_buffer@I@?$output_processor@_WV?$stream_output_adapter@_W@__crt_stdio_output@@V?$standard_base@_WV?$stream_output_adapter@_W@__crt_stdio_output@@@2@@__crt_stdio_output@@AEAAXII_N@Z 0000000180033fb4     libucrt:output.obj
 0004:00000fb4       $pdata$??$type_case_integer_parse_into_buffer@I@?$output_processor@_WV?$string_output_adapter@_W@__crt_stdio_output@@V?$standard_base@_WV?$string_output_adapter@_W@__crt_stdio_output@@@2@@__crt_stdio_output@@AEAAXII_N@Z 0000000180033fb4     libucrt:output.obj
 0004:00000fc0       $pdata$??$type_case_integer_parse_into_buffer@_K@?$output_processor@_WV?$string_output_adapter@_W@__crt_stdio_output@@V?$standard_base@_WV?$string_output_adapter@_W@__crt_stdio_output@@@2@@__crt_stdio_output@@AEAAX_KI_N@Z 0000000180033fc0     libucrt:output.obj
 0004:00000fc0       $pdata$??$type_case_integer_parse_into_buffer@_K@?$output_processor@DV?$string_output_adapter@D@__crt_stdio_output@@V?$standard_base@DV?$string_output_adapter@D@__crt_stdio_output@@@2@@__crt_stdio_output@@AEAAX_KI_N@Z 0000000180033fc0     libucrt:output.obj
 0004:00000fc0       $pdata$??$type_case_integer_parse_into_buffer@_K@?$output_processor@_WV?$stream_output_adapter@_W@__crt_stdio_output@@V?$standard_base@_WV?$stream_output_adapter@_W@__crt_stdio_output@@@2@@__crt_stdio_output@@AEAAX_KI_N@Z 0000000180033fc0     libucrt:output.obj
 0004:00000fcc       $pdata$??$write_multiple_characters@V?$stream_output_adapter@_W@__crt_stdio_output@@D@__crt_stdio_output@@YAXAEBV?$stream_output_adapter@_W@0@DHQEAH@Z 0000000180033fcc     libucrt:output.obj
 0004:00000fd8       $pdata$??$write_multiple_characters@V?$string_output_adapter@D@__crt_stdio_output@@D@__crt_stdio_output@@YAXAEBV?$string_output_adapter@D@0@DHQEAH@Z 0000000180033fd8     libucrt:output.obj
 0004:00000fe4       $pdata$??$write_multiple_characters@V?$string_output_adapter@_W@__crt_stdio_output@@D@__crt_stdio_output@@YAXAEBV?$string_output_adapter@_W@0@DHQEAH@Z 0000000180033fe4     libucrt:output.obj
 0004:00000ff0       $pdata$??0?$output_processor@DV?$string_output_adapter@D@__crt_stdio_output@@V?$standard_base@DV?$string_output_adapter@D@__crt_stdio_output@@@2@@__crt_stdio_output@@QEAA@AEBV?$string_output_adapter@D@1@_KQEBDQEAU__crt_locale_pointers@@QEAD@Z 0000000180033ff0     libucrt:output.obj
 0004:00000ffc       $pdata$??0?$output_processor@_WV?$string_output_adapter@_W@__crt_stdio_output@@V?$standard_base@_WV?$string_output_adapter@_W@__crt_stdio_output@@@2@@__crt_stdio_output@@QEAA@AEBV?$string_output_adapter@_W@1@_KQEB_WQEAU__crt_locale_pointers@@QEAD@Z 0000000180033ffc     libucrt:output.obj
 0004:00000ffc       $pdata$??0?$output_processor@_WV?$stream_output_adapter@_W@__crt_stdio_output@@V?$standard_base@_WV?$stream_output_adapter@_W@__crt_stdio_output@@@2@@__crt_stdio_output@@QEAA@AEBV?$stream_output_adapter@_W@1@_KQEB_WQEAU__crt_locale_pointers@@QEAD@Z 0000000180033ffc     libucrt:output.obj
 0004:00001008       $pdata$??0_LocaleUpdate@@QEAA@QEAU__crt_locale_pointers@@@Z 0000000180034008     libucrt:output.obj
 0004:00001014       $pdata$??R<lambda_dd75445284c072d0bd3768540cc698fa>@@QEBAHXZ 0000000180034014     libucrt:output.obj
 0004:00001020       $pdata$?force_decimal_point@__crt_stdio_output@@YAXPEADQEAU__crt_locale_pointers@@@Z 0000000180034020     libucrt:output.obj
 0004:0000102c       $pdata$?parse_int_from_format_string@?$output_processor@DV?$string_output_adapter@D@__crt_stdio_output@@V?$standard_base@DV?$string_output_adapter@D@__crt_stdio_output@@@2@@__crt_stdio_output@@AEAA_NQEAH@Z 000000018003402c     libucrt:output.obj
 0004:00001038       $pdata$?parse_int_from_format_string@?$output_processor@_WV?$stream_output_adapter@_W@__crt_stdio_output@@V?$standard_base@_WV?$stream_output_adapter@_W@__crt_stdio_output@@@2@@__crt_stdio_output@@AEAA_NQEAH@Z 0000000180034038     libucrt:output.obj
 0004:00001038       $pdata$?parse_int_from_format_string@?$output_processor@_WV?$string_output_adapter@_W@__crt_stdio_output@@V?$standard_base@_WV?$string_output_adapter@_W@__crt_stdio_output@@@2@@__crt_stdio_output@@AEAA_NQEAH@Z 0000000180034038     libucrt:output.obj
 0004:00001044       $pdata$?process@?$output_processor@DV?$string_output_adapter@D@__crt_stdio_output@@V?$standard_base@DV?$string_output_adapter@D@__crt_stdio_output@@@2@@__crt_stdio_output@@QEAAHXZ 0000000180034044     libucrt:output.obj
 0004:00001050       $pdata$?process@?$output_processor@_WV?$stream_output_adapter@_W@__crt_stdio_output@@V?$standard_base@_WV?$stream_output_adapter@_W@__crt_stdio_output@@@2@@__crt_stdio_output@@QEAAHXZ 0000000180034050     libucrt:output.obj
 0004:0000105c       $pdata$?process@?$output_processor@_WV?$string_output_adapter@_W@__crt_stdio_output@@V?$standard_base@_WV?$string_output_adapter@_W@__crt_stdio_output@@@2@@__crt_stdio_output@@QEAAHXZ 000000018003405c     libucrt:output.obj
 0004:00001068       $pdata$?state_case_normal@?$output_processor@DV?$string_output_adapter@D@__crt_stdio_output@@V?$standard_base@DV?$string_output_adapter@D@__crt_stdio_output@@@2@@__crt_stdio_output@@AEAA_NXZ 0000000180034068     libucrt:output.obj
 0004:00001074       $pdata$?state_case_normal_tchar@?$output_processor@DV?$string_output_adapter@D@__crt_stdio_output@@V?$standard_base@DV?$string_output_adapter@D@__crt_stdio_output@@@2@@__crt_stdio_output@@AEAA_ND@Z 0000000180034074     libucrt:output.obj
 0004:00001080       $pdata$?state_case_size@?$output_processor@DV?$string_output_adapter@D@__crt_stdio_output@@V?$standard_base@DV?$string_output_adapter@D@__crt_stdio_output@@@2@@__crt_stdio_output@@AEAA_NXZ 0000000180034080     libucrt:output.obj
 0004:0000108c       $pdata$?state_case_size@?$output_processor@_WV?$stream_output_adapter@_W@__crt_stdio_output@@V?$standard_base@_WV?$stream_output_adapter@_W@__crt_stdio_output@@@2@@__crt_stdio_output@@AEAA_NXZ 000000018003408c     libucrt:output.obj
 0004:00001098       $pdata$?state_case_size@?$output_processor@_WV?$string_output_adapter@_W@__crt_stdio_output@@V?$standard_base@_WV?$string_output_adapter@_W@__crt_stdio_output@@@2@@__crt_stdio_output@@AEAA_NXZ 0000000180034098     libucrt:output.obj
 0004:000010a4       $pdata$?state_case_type@?$output_processor@DV?$string_output_adapter@D@__crt_stdio_output@@V?$standard_base@DV?$string_output_adapter@D@__crt_stdio_output@@@2@@__crt_stdio_output@@AEAA_NXZ 00000001800340a4     libucrt:output.obj
 0004:000010b0       $pdata$?state_case_type@?$output_processor@_WV?$stream_output_adapter@_W@__crt_stdio_output@@V?$standard_base@_WV?$stream_output_adapter@_W@__crt_stdio_output@@@2@@__crt_stdio_output@@AEAA_NXZ 00000001800340b0     libucrt:output.obj
 0004:000010bc       $pdata$?state_case_type@?$output_processor@_WV?$string_output_adapter@_W@__crt_stdio_output@@V?$standard_base@_WV?$string_output_adapter@_W@__crt_stdio_output@@@2@@__crt_stdio_output@@AEAA_NXZ 00000001800340bc     libucrt:output.obj
 0004:000010c8       $pdata$?type_case_Z@?$output_processor@DV?$string_output_adapter@D@__crt_stdio_output@@V?$standard_base@DV?$string_output_adapter@D@__crt_stdio_output@@@2@@__crt_stdio_output@@AEAA_NXZ 00000001800340c8     libucrt:output.obj
 0004:000010d4       $pdata$?type_case_Z@?$output_processor@_WV?$stream_output_adapter@_W@__crt_stdio_output@@V?$standard_base@_WV?$stream_output_adapter@_W@__crt_stdio_output@@@2@@__crt_stdio_output@@AEAA_NXZ 00000001800340d4     libucrt:output.obj
 0004:000010d4       $pdata$?type_case_Z@?$output_processor@_WV?$string_output_adapter@_W@__crt_stdio_output@@V?$standard_base@_WV?$string_output_adapter@_W@__crt_stdio_output@@@2@@__crt_stdio_output@@AEAA_NXZ 00000001800340d4     libucrt:output.obj
 0004:000010e0       $pdata$?type_case_a@?$output_processor@DV?$string_output_adapter@D@__crt_stdio_output@@V?$standard_base@DV?$string_output_adapter@D@__crt_stdio_output@@@2@@__crt_stdio_output@@AEAA_NXZ 00000001800340e0     libucrt:output.obj
 0004:000010ec       $pdata$?type_case_a@?$output_processor@_WV?$stream_output_adapter@_W@__crt_stdio_output@@V?$standard_base@_WV?$stream_output_adapter@_W@__crt_stdio_output@@@2@@__crt_stdio_output@@AEAA_NXZ 00000001800340ec     libucrt:output.obj
 0004:000010ec       $pdata$?type_case_a@?$output_processor@_WV?$string_output_adapter@_W@__crt_stdio_output@@V?$standard_base@_WV?$string_output_adapter@_W@__crt_stdio_output@@@2@@__crt_stdio_output@@AEAA_NXZ 00000001800340ec     libucrt:output.obj
 0004:000010f8       $pdata$?type_case_c_tchar@?$output_processor@DV?$string_output_adapter@D@__crt_stdio_output@@V?$standard_base@DV?$string_output_adapter@D@__crt_stdio_output@@@2@@__crt_stdio_output@@AEAA_ND@Z 00000001800340f8     libucrt:output.obj
 0004:00001104       $pdata$?type_case_c_tchar@?$output_processor@_WV?$stream_output_adapter@_W@__crt_stdio_output@@V?$standard_base@_WV?$stream_output_adapter@_W@__crt_stdio_output@@@2@@__crt_stdio_output@@AEAA_N_W@Z 0000000180034104     libucrt:output.obj
 0004:00001104       $pdata$?type_case_c_tchar@?$output_processor@_WV?$string_output_adapter@_W@__crt_stdio_output@@V?$standard_base@_WV?$string_output_adapter@_W@__crt_stdio_output@@@2@@__crt_stdio_output@@AEAA_N_W@Z 0000000180034104     libucrt:output.obj
 0004:00001110       $pdata$?type_case_integer@?$output_processor@DV?$string_output_adapter@D@__crt_stdio_output@@V?$standard_base@DV?$string_output_adapter@D@__crt_stdio_output@@@2@@__crt_stdio_output@@AEAA_NI_N@Z 0000000180034110     libucrt:output.obj
 0004:00001110       $pdata$?type_case_integer@?$output_processor@_WV?$stream_output_adapter@_W@__crt_stdio_output@@V?$standard_base@_WV?$stream_output_adapter@_W@__crt_stdio_output@@@2@@__crt_stdio_output@@AEAA_NI_N@Z 0000000180034110     libucrt:output.obj
 0004:00001110       $pdata$?type_case_integer@?$output_processor@_WV?$string_output_adapter@_W@__crt_stdio_output@@V?$standard_base@_WV?$string_output_adapter@_W@__crt_stdio_output@@@2@@__crt_stdio_output@@AEAA_NI_N@Z 0000000180034110     libucrt:output.obj
 0004:0000111c       $pdata$?type_case_n@?$output_processor@DV?$string_output_adapter@D@__crt_stdio_output@@V?$standard_base@DV?$string_output_adapter@D@__crt_stdio_output@@@2@@__crt_stdio_output@@AEAA_NXZ 000000018003411c     libucrt:output.obj
 0004:0000111c       $pdata$?type_case_n@?$output_processor@_WV?$stream_output_adapter@_W@__crt_stdio_output@@V?$standard_base@_WV?$stream_output_adapter@_W@__crt_stdio_output@@@2@@__crt_stdio_output@@AEAA_NXZ 000000018003411c     libucrt:output.obj
 0004:0000111c       $pdata$?type_case_n@?$output_processor@_WV?$string_output_adapter@_W@__crt_stdio_output@@V?$standard_base@_WV?$string_output_adapter@_W@__crt_stdio_output@@@2@@__crt_stdio_output@@AEAA_NXZ 000000018003411c     libucrt:output.obj
 0004:00001128       $pdata$?type_case_s@?$output_processor@DV?$string_output_adapter@D@__crt_stdio_output@@V?$standard_base@DV?$string_output_adapter@D@__crt_stdio_output@@@2@@__crt_stdio_output@@AEAA_NXZ 0000000180034128     libucrt:output.obj
 0004:00001134       $pdata$?type_case_s@?$output_processor@_WV?$string_output_adapter@_W@__crt_stdio_output@@V?$standard_base@_WV?$string_output_adapter@_W@__crt_stdio_output@@@2@@__crt_stdio_output@@AEAA_NXZ 0000000180034134     libucrt:output.obj
 0004:00001134       $pdata$?type_case_s@?$output_processor@_WV?$stream_output_adapter@_W@__crt_stdio_output@@V?$standard_base@_WV?$stream_output_adapter@_W@__crt_stdio_output@@@2@@__crt_stdio_output@@AEAA_NXZ 0000000180034134     libucrt:output.obj
 0004:00001140       $pdata$?write_stored_string_tchar@?$output_processor@DV?$string_output_adapter@D@__crt_stdio_output@@V?$standard_base@DV?$string_output_adapter@D@__crt_stdio_output@@@2@@__crt_stdio_output@@AEAA_ND@Z 0000000180034140     libucrt:output.obj
 0004:0000114c       $pdata$?write_stored_string_tchar@?$output_processor@_WV?$stream_output_adapter@_W@__crt_stdio_output@@V?$standard_base@_WV?$stream_output_adapter@_W@__crt_stdio_output@@@2@@__crt_stdio_output@@AEAA_N_W@Z 000000018003414c     libucrt:output.obj
 0004:00001158       $pdata$?write_stored_string_tchar@?$output_processor@_WV?$string_output_adapter@_W@__crt_stdio_output@@V?$standard_base@_WV?$string_output_adapter@_W@__crt_stdio_output@@@2@@__crt_stdio_output@@AEAA_N_W@Z 0000000180034158     libucrt:output.obj
 0004:00001164       $pdata$?write_string@?$stream_output_adapter@_W@__crt_stdio_output@@QEBAXQEB_WHQEAH1@Z 0000000180034164     libucrt:output.obj
 0004:00001170       $pdata$?write_string@?$string_output_adapter@D@__crt_stdio_output@@QEBAXQEBDHQEAH1@Z 0000000180034170     libucrt:output.obj
 0004:0000117c       $pdata$?write_string@?$string_output_adapter@_W@__crt_stdio_output@@QEBAXQEB_WHQEAH1@Z 000000018003417c     libucrt:output.obj
 0004:00001188       $pdata$__stdio_common_vfwprintf 0000000180034188     libucrt:output.obj
 0004:00001194       $pdata$__stdio_common_vsprintf 0000000180034194     libucrt:output.obj
 0004:000011a0       $pdata$__stdio_common_vswprintf 00000001800341a0     libucrt:output.obj
 0004:000011ac       $pdata$_stricmp            00000001800341ac     libucrt:stricmp.obj
 0004:000011b8       $pdata$_stricmp_l          00000001800341b8     libucrt:stricmp.obj
 0004:000011c4       $pdata$abort               00000001800341c4     libucrt:abort.obj
 0004:000011d0       $pdata$_callnewh           00000001800341d0     libucrt:new_handler.obj
 0004:000011dc       $pdata$_query_new_handler  00000001800341dc     libucrt:new_handler.obj
 0004:000011e8       $pdata$_seh_filter_exe     00000001800341e8     libucrt:exception_filter.obj
 0004:000011f4       $pdata$?common_exit@@YAXHW4_crt_exit_cleanup_mode@@W4_crt_exit_return_mode@@@Z 00000001800341f4     libucrt:exit.obj
 0004:00001200       $pdata$?exit_or_terminate_process@@YAXI@Z 0000000180034200     libucrt:exit.obj
 0004:0000120c       $pdata$?try_cor_exit_process@@YAXI@Z 000000018003420c     libucrt:exit.obj
 0004:00001218       $pdata$??$parse_command_line@D@@YAXPEADPEAPEAD0PEA_K2@Z 0000000180034218     libucrt:argv_parsing.obj
 0004:00001224       $pdata$__acrt_allocate_buffer_for_argv 0000000180034224     libucrt:argv_parsing.obj
 0004:00001230       $pdata$_configure_narrow_argv 0000000180034230     libucrt:argv_parsing.obj
 0004:0000123c       $pdata$??$common_initialize_environment_nolock@D@@YAHXZ 000000018003423c     libucrt:environment_initialization.obj
 0004:00001248       $pdata$??$create_environment@D@@YAQEAPEADQEAD@Z 0000000180034248     libucrt:environment_initialization.obj
 0004:00001254       $pdata$??$free_environment@D@@YAXQEAPEAD@Z 0000000180034254     libucrt:environment_initialization.obj
 0004:00001254       $pdata$??$free_environment@_W@@YAXQEAPEA_W@Z 0000000180034254     libucrt:environment_initialization.obj
 0004:00001260       $pdata$??$uninitialize_environment_internal@D@@YAXAEAPEAPEAD@Z 0000000180034260     libucrt:environment_initialization.obj
 0004:0000126c       $pdata$??$uninitialize_environment_internal@_W@@YAXAEAPEAPEA_W@Z 000000018003426c     libucrt:environment_initialization.obj
 0004:00001278       $pdata$__dcrt_uninitialize_environments_nolock 0000000180034278     libucrt:environment_initialization.obj
 0004:00001284       $pdata$??$?RV<lambda_b8c45f8f788dd370798f47cfe8ac3a86>@@AEAV<lambda_4e60a939b0d047cfe11ddc22648dfba9>@@V<lambda_332c3edc96d0294ec56c57d38c1cdfd5>@@@?$__crt_seh_guarded_call@H@@QEAAH$$QEAV<lambda_b8c45f8f788dd370798f47cfe8ac3a86>@@AEAV<lambda_4e60a939b0d047cfe11ddc22648dfba9>@@$$QEAV<lambda_332c3edc96d0294ec56c57d38c1cdfd5>@@@Z 0000000180034284     libucrt:onexit.obj
 0004:00001290       $pdata$??$?RV<lambda_e24bbb7b643b32fcea6fa61b31d4c984>@@AEAV<lambda_275893d493268fdec8709772e3fcec0e>@@V<lambda_9d71df4d7cf3f480f8d633942495c3b0>@@@?$__crt_seh_guarded_call@H@@QEAAH$$QEAV<lambda_e24bbb7b643b32fcea6fa61b31d4c984>@@AEAV<lambda_275893d493268fdec8709772e3fcec0e>@@$$QEAV<lambda_9d71df4d7cf3f480f8d633942495c3b0>@@@Z 0000000180034290     libucrt:onexit.obj
 0004:0000129c       $pdata$??R<lambda_4e60a939b0d047cfe11ddc22648dfba9>@@QEBAHXZ 000000018003429c     libucrt:onexit.obj
 0004:000012a8       $pdata$_execute_onexit_table 00000001800342a8     libucrt:onexit.obj
 0004:000012b4       $pdata$_register_onexit_function 00000001800342b4     libucrt:onexit.obj
 0004:000012c0       $pdata$initialize_c        00000001800342c0     libucrt:initialization.obj
 0004:000012cc       $pdata$uninitialize_environment 00000001800342cc     libucrt:initialization.obj
 0004:000012d8       $pdata$initialize_pointers 00000001800342d8     libucrt:initialization.obj
 0004:000012e4       $pdata$uninitialize_allocated_memory 00000001800342e4     libucrt:initialization.obj
 0004:000012f0       $pdata$__acrt_thread_attach 00000001800342f0     libucrt:initialization.obj
 0004:000012fc       $pdata$__acrt_thread_detach 00000001800342fc     libucrt:initialization.obj
 0004:00001308       $pdata$__acrt_uninitialize_critical 0000000180034308     libucrt:initialization.obj
 0004:00001314       $pdata$_initterm           0000000180034314     libucrt:initterm.obj
 0004:00001320       $pdata$_initterm_e         0000000180034320     libucrt:initterm.obj
 0004:0000132c       $pdata$terminate           000000018003432c     libucrt:terminate.obj
 0004:00001338       $pdata$strcpy_s            0000000180034338     libucrt:strcpy_s.obj
 0004:00001344       $pdata$_free_base          0000000180034344     libucrt:free_base.obj
 0004:00001350       $pdata$_malloc_base        0000000180034350     libucrt:malloc_base.obj
 0004:0000135c       $pdata$_calloc_base        000000018003435c     libucrt:calloc_base.obj
 0004:00001368       $pdata$??$parse_integer@KV?$c_string_character_source@D@__crt_strtox@@@__crt_strtox@@YAKQEAU__crt_locale_pointers@@V?$c_string_character_source@D@0@H_N@Z 0000000180034368     libucrt:atox.obj
 0004:00001374       $pdata$??$parse_integer@KV?$c_string_character_source@_W@__crt_strtox@@@__crt_strtox@@YAKQEAU__crt_locale_pointers@@V?$c_string_character_source@_W@0@H_N@Z 0000000180034374     libucrt:atox.obj
 0004:00001380       $pdata$??$?RV<lambda_46352004c1216016012b18bd6f87e700>@@AEAV<lambda_3bd07e1a1191394380780325891bf33f>@@V<lambda_334532d3f185bcaa59b5be82d7d22bff>@@@?$__crt_seh_guarded_call@X@@QEAAX$$QEAV<lambda_46352004c1216016012b18bd6f87e700>@@AEAV<lambda_3bd07e1a1191394380780325891bf33f>@@$$QEAV<lambda_334532d3f185bcaa59b5be82d7d22bff>@@@Z 0000000180034380     libucrt:per_thread_data.obj
 0004:0000138c       $pdata$??$?RV<lambda_5e887d1dcbef67a5eb4283622ba103bf>@@AEAV<lambda_4466841279450cc726390878d4a41900>@@V<lambda_341c25c0346d94847f1f3c463c57e077>@@@?$__crt_seh_guarded_call@X@@QEAAX$$QEAV<lambda_5e887d1dcbef67a5eb4283622ba103bf>@@AEAV<lambda_4466841279450cc726390878d4a41900>@@$$QEAV<lambda_341c25c0346d94847f1f3c463c57e077>@@@Z 000000018003438c     libucrt:per_thread_data.obj
 0004:00001398       $pdata$??$?RV<lambda_72d1df2b273a38828b1ce30cbf4cdab5>@@AEAV<lambda_876a65b173b8412d3a47c70a915b0cf4>@@V<lambda_41932305e351933ebe8f8be3ed8bb5dc>@@@?$__crt_seh_guarded_call@X@@QEAAX$$QEAV<lambda_72d1df2b273a38828b1ce30cbf4cdab5>@@AEAV<lambda_876a65b173b8412d3a47c70a915b0cf4>@@$$QEAV<lambda_41932305e351933ebe8f8be3ed8bb5dc>@@@Z 0000000180034398     libucrt:per_thread_data.obj
 0004:000013a4       $pdata$??$?RV<lambda_fb3a7dec4e47f37f22dae91bb15c9095>@@AEAV<lambda_698284760c8add0bfb0756c19673e34b>@@V<lambda_dfb8eca1e75fef3034a8fb18dd509707>@@@?$__crt_seh_guarded_call@X@@QEAAX$$QEAV<lambda_fb3a7dec4e47f37f22dae91bb15c9095>@@AEAV<lambda_698284760c8add0bfb0756c19673e34b>@@$$QEAV<lambda_dfb8eca1e75fef3034a8fb18dd509707>@@@Z 00000001800343a4     libucrt:per_thread_data.obj
 0004:000013b0       $pdata$?construct_ptd_array@@YAXQEAU__acrt_ptd@@@Z 00000001800343b0     libucrt:per_thread_data.obj
 0004:000013bc       $pdata$?destroy_fls@@YAXPEAX@Z 00000001800343bc     libucrt:per_thread_data.obj
 0004:000013c8       $pdata$?destroy_ptd_array@@YAXQEAU__acrt_ptd@@@Z 00000001800343c8     libucrt:per_thread_data.obj
 0004:000013d4       $pdata$?replace_current_thread_locale_nolock@@YAXQEAU__acrt_ptd@@QEAU__crt_locale_data@@@Z 00000001800343d4     libucrt:per_thread_data.obj
 0004:000013e0       $pdata$__acrt_freeptd      00000001800343e0     libucrt:per_thread_data.obj
 0004:000013ec       $pdata$__acrt_getptd       00000001800343ec     libucrt:per_thread_data.obj
 0004:000013f8       $pdata$__acrt_getptd_noexit 00000001800343f8     libucrt:per_thread_data.obj
 0004:00001404       $pdata$__acrt_initialize_ptd 0000000180034404     libucrt:per_thread_data.obj
 0004:00001410       $pdata$__acrt_uninitialize_ptd 0000000180034410     libucrt:per_thread_data.obj
 0004:0000141c       $pdata$??$common_xtox@K_W@@YAHKQEA_W_KI_N@Z 000000018003441c     libucrt:xtoa.obj
 0004:00001428       $pdata$??$common_xtox_s@K_W@@YAHKQEA_W_KI_N@Z 0000000180034428     libucrt:xtoa.obj
 0004:00001434       $pdata$_itow_s             0000000180034434     libucrt:xtoa.obj
 0004:00001440       $pdata$_set_error_mode     0000000180034440     libucrt:set_error_mode.obj
 0004:0000144c       $pdata$wcscat_s            000000018003444c     libucrt:wcscat_s.obj
 0004:00001458       $pdata$wcscpy_s            0000000180034458     libucrt:wcscpy_s.obj
 0004:00001464       $pdata$wcsncat_s           0000000180034464     libucrt:wcsncat_s.obj
 0004:00001470       $pdata$??$message_box_wait_thread@_W@@YAKQEAX@Z 0000000180034470     libucrt:crtmbox.obj
 0004:0000147c       $pdata$__acrt_show_wide_message_box 000000018003447c     libucrt:crtmbox.obj
 0004:00001488       $pdata$__acrt_initialize_stdio 0000000180034488     libucrt:_file.obj
 0004:00001494       $pdata$__acrt_uninitialize_stdio 0000000180034494     libucrt:_file.obj
 0004:000014a0       $pdata$__acrt_stdio_flush_nolock 00000001800344a0     libucrt:fflush.obj
 0004:000014ac       $pdata$_fflush_nolock      00000001800344ac     libucrt:fflush.obj
 0004:000014b8       $pdata$common_flush_all    00000001800344b8     libucrt:fflush.obj
 0004:000014c4       $pdata$fflush              00000001800344c4     libucrt:fflush.obj
 0004:000014d0       $pdata$??$?RV<lambda_7a5ef57ff966f610505f1d28a3d40618>@@AEAV<lambda_b721fa326cdb32351d23dfa67958c160>@@V<lambda_5e0fb27672408a07956fe59e48ccb2aa>@@@?$__crt_seh_guarded_call@H@@QEAAH$$QEAV<lambda_7a5ef57ff966f610505f1d28a3d40618>@@AEAV<lambda_b721fa326cdb32351d23dfa67958c160>@@$$QEAV<lambda_5e0fb27672408a07956fe59e48ccb2aa>@@@Z 00000001800344d0     libucrt:setvbuf.obj
 0004:000014dc       $pdata$??R<lambda_b721fa326cdb32351d23dfa67958c160>@@QEBAHXZ 00000001800344dc     libucrt:setvbuf.obj
 0004:000014e8       $pdata$setvbuf             00000001800344e8     libucrt:setvbuf.obj
 0004:000014f4       $pdata$??$?RV<lambda_c36588078e9f5dfd39652860aa6b3aaf>@@AEAV<lambda_ec61778202f4f5fc7e7711acc23c3bca>@@V<lambda_dc9d2797ccde5d239b4a0efae8ebd7db>@@@?$__crt_seh_guarded_call@P6AXH@Z@@QEAAP6AXH@Z$$QEAV<lambda_c36588078e9f5dfd39652860aa6b3aaf>@@AEAV<lambda_ec61778202f4f5fc7e7711acc23c3bca>@@$$QEAV<lambda_dc9d2797ccde5d239b4a0efae8ebd7db>@@@Z 00000001800344f4     libucrt:signal.obj
 0004:00001500       $pdata$__acrt_get_sigabrt_handler 0000000180034500     libucrt:signal.obj
 0004:0000150c       $pdata$raise               000000018003450c     libucrt:signal.obj
 0004:00001518       $pdata$isdigit             0000000180034518     libucrt:_ctype.obj
 0004:00001524       $pdata$?internal_isupper_l@@YA_NHQEAU__crt_locale_pointers@@@Z 0000000180034524     libucrt:tolower_toupper.obj
 0004:00001530       $pdata$_tolower_l          0000000180034530     libucrt:tolower_toupper.obj
 0004:0000153c       $pdata$tolower             000000018003453c     libucrt:tolower_toupper.obj
 0004:00001548       $pdata$strtol              0000000180034548     libucrt:strtox.obj
 0004:00001554       $pdata$wcstol              0000000180034554     libucrt:strtox.obj
 0004:00001560       $pdata$_mbtowc_l           0000000180034560     libucrt:mbtowc.obj
 0004:0000156c       $pdata$_wctomb_s_l         000000018003456c     libucrt:wctomb.obj
 0004:00001578       $pdata$wctomb_s            0000000180034578     libucrt:wctomb.obj
 0004:00001584       $pdata$strnlen             0000000180034584     libucrt:strnlen.obj
 0004:00001590       $pdata$wcsnlen             0000000180034590     libucrt:strnlen.obj
 0004:0000159c       $pdata$__acrt_update_locale_info 000000018003459c     libucrt:locale_update.obj
 0004:000015a8       $pdata$__acrt_update_multibyte_info 00000001800345a8     libucrt:locale_update.obj
 0004:000015b4       $pdata$?fp_format_a@@YAHQEBNPEAD_KQEAD2H_NIQEAU__crt_locale_pointers@@@Z 00000001800345b4     libucrt:cvt.obj
 0004:000015c0       $pdata$?fp_format_e@@YAHQEBNQEAD_K12H_NIQEAU__crt_locale_pointers@@@Z 00000001800345c0     libucrt:cvt.obj
 0004:000015cc       $pdata$?fp_format_e_internal@@YAHQEAD_KH_NIQEAU_strflt@@2QEAU__crt_locale_pointers@@@Z 00000001800345cc     libucrt:cvt.obj
 0004:000015d8       $pdata$?fp_format_f_internal@@YAHQEAD_KHQEAU_strflt@@_NQEAU__crt_locale_pointers@@@Z 00000001800345d8     libucrt:cvt.obj
 0004:000015e4       $pdata$?fp_format_g@@YAHQEBNQEAD_K12H_NIQEAU__crt_locale_pointers@@@Z 00000001800345e4     libucrt:cvt.obj
 0004:000015f0       $pdata$?fp_format_nan_or_infinity@@YAHW4__acrt_fp_class@@_NPEAD_K1@Z 00000001800345f0     libucrt:cvt.obj
 0004:000015fc       $pdata$__acrt_fp_format    00000001800345fc     libucrt:cvt.obj
 0004:00001608       $pdata$_fputwc_nolock      0000000180034608     libucrt:fputwc.obj
 0004:00001614       $pdata$_fileno             0000000180034614     libucrt:fileno.obj
 0004:00001620       $pdata$__acrt_stdio_begin_temporary_buffering_nolock 0000000180034620     libucrt:_sftbuf.obj
 0004:0000162c       $pdata$__acrt_stdio_end_temporary_buffering_nolock 000000018003462c     libucrt:_sftbuf.obj
 0004:00001638       $pdata$__acrt_uninitialize_locale 0000000180034638     libucrt:wsetlocale.obj
 0004:00001644       $pdata$?initialize_inherited_file_handles_nolock@@YAXXZ 0000000180034644     libucrt:ioinit.obj
 0004:00001650       $pdata$?initialize_stdio_handles_nolock@@YAXXZ 0000000180034650     libucrt:ioinit.obj
 0004:0000165c       $pdata$__acrt_initialize_lowio 000000018003465c     libucrt:ioinit.obj
 0004:00001668       $pdata$__acrt_uninitialize_lowio 0000000180034668     libucrt:ioinit.obj
 0004:00001674       $pdata$__acrt_initialize_locks 0000000180034674     libucrt:locks.obj
 0004:00001680       $pdata$__acrt_uninitialize_locks 0000000180034680     libucrt:locks.obj
 0004:0000168c       $pdata$?try_get_function@@YAPEAXW4function_id@?A0x63058377@@QEBDQEBW4module_id@2@2@Z 000000018003468c     libucrt:winapi_thunks.obj
 0004:00001698       $pdata$__acrt_FlsAlloc     0000000180034698     libucrt:winapi_thunks.obj
 0004:000016a4       $pdata$__acrt_FlsFree      00000001800346a4     libucrt:winapi_thunks.obj
 0004:000016b0       $pdata$__acrt_FlsGetValue  00000001800346b0     libucrt:winapi_thunks.obj
 0004:000016bc       $pdata$__acrt_FlsSetValue  00000001800346bc     libucrt:winapi_thunks.obj
 0004:000016c8       $pdata$__acrt_InitializeCriticalSectionEx 00000001800346c8     libucrt:winapi_thunks.obj
 0004:000016d4       $pdata$__acrt_LCMapStringEx 00000001800346d4     libucrt:winapi_thunks.obj
 0004:000016e0       $pdata$__acrt_LocaleNameToLCID 00000001800346e0     libucrt:winapi_thunks.obj
 0004:000016ec       $pdata$__acrt_MessageBoxW  00000001800346ec     libucrt:winapi_thunks.obj
 0004:000016f8       $pdata$__acrt_can_show_message_box 00000001800346f8     libucrt:winapi_thunks.obj
 0004:00001704       $pdata$__acrt_get_parent_window 0000000180034704     libucrt:winapi_thunks.obj
 0004:00001710       $pdata$__acrt_initialize_winapi_thunks 0000000180034710     libucrt:winapi_thunks.obj
 0004:0000171c       $pdata$__acrt_is_interactive 000000018003471c     libucrt:winapi_thunks.obj
 0004:00001728       $pdata$__acrt_is_packaged_app 0000000180034728     libucrt:winapi_thunks.obj
 0004:00001734       $pdata$__acrt_uninitialize_winapi_thunks 0000000180034734     libucrt:winapi_thunks.obj
 0004:00001740       $pdata$??$common_expand_argv_wildcards@D@@YAHQEAPEADQEAPEAPEAD@Z 0000000180034740     libucrt:argv_wildcards.obj
 0004:0000174c       $pdata$??$copy_and_add_argument_to_buffer@D@@YAHQEBD0_KAEAV?$argument_list@D@?A0xca0879c4@@@Z 000000018003474c     libucrt:argv_wildcards.obj
 0004:00001758       $pdata$??$expand_argument_wildcards@D@@YAHQEAD0AEAV?$argument_list@D@?A0xca0879c4@@@Z 0000000180034758     libucrt:argv_wildcards.obj
 0004:00001764       $pdata$?expand_if_necessary@?$argument_list@D@?A0xca0879c4@@AEAAHXZ 0000000180034764     libucrt:argv_wildcards.obj
 0004:00001770       $pdata$??$?RV<lambda_99476a1ad63dd22509b5d3e65b0ffc95>@@AEAV<lambda_ad1ced32f4ac17aa236e5ef05d6b3b7c>@@V<lambda_f7424dd8d45958661754dc4f2697e9c3>@@@?$__crt_seh_guarded_call@X@@QEAAX$$QEAV<lambda_99476a1ad63dd22509b5d3e65b0ffc95>@@AEAV<lambda_ad1ced32f4ac17aa236e5ef05d6b3b7c>@@$$QEAV<lambda_f7424dd8d45958661754dc4f2697e9c3>@@@Z 0000000180034770     libucrt:mbctype.obj
 0004:0000177c       $pdata$??R<lambda_ad1ced32f4ac17aa236e5ef05d6b3b7c>@@QEBAXXZ 000000018003477c     libucrt:mbctype.obj
 0004:00001788       $pdata$?getSystemCP@@YAHH@Z 0000000180034788     libucrt:mbctype.obj
 0004:00001794       $pdata$?setSBCS@@YAXPEAU__crt_multibyte_data@@@Z 0000000180034794     libucrt:mbctype.obj
 0004:000017a0       $pdata$?setSBUpLow@@YAXPEAU__crt_multibyte_data@@@Z 00000001800347a0     libucrt:mbctype.obj
 0004:000017ac       $pdata$?setmbcp_internal@@YAHH_N@Z 00000001800347ac     libucrt:mbctype.obj
 0004:000017b8       $pdata$__acrt_initialize_multibyte 00000001800347b8     libucrt:mbctype.obj
 0004:000017c4       $pdata$__acrt_update_thread_multibyte_data 00000001800347c4     libucrt:mbctype.obj
 0004:000017d0       $pdata$_setmbcp_nolock     00000001800347d0     libucrt:mbctype.obj
 0004:000017dc       $pdata$?x_ismbbtype_l@@YAHPEAU__crt_locale_pointers@@IHH@Z 00000001800347dc     libucrt:ismbbyte.obj
 0004:000017e8       $pdata$__acrt_initialize_command_line 00000001800347e8     libucrt:argv_data.obj
 0004:000017f4       $pdata$__dcrt_get_narrow_environment_from_os 00000001800347f4     libucrt:get_environment_from_os.obj
 0004:00001800       $pdata$_recalloc_base      0000000180034800     libucrt:recalloc.obj
 0004:0000180c       $pdata$__acrt_initialize_heap 000000018003480c     libucrt:heap_handle.obj
 0004:00001818       $pdata$__acrt_execute_initializers 0000000180034818     libucrt:shared_initialization.obj
 0004:00001824       $pdata$__acrt_execute_uninitializers 0000000180034824     libucrt:shared_initialization.obj
 0004:00001830       $pdata$__acrt_invoke_user_matherr 0000000180034830     libucrt:matherr.obj
 0004:0000183c       $pdata$__pctype_func       000000018003483c     libucrt:ctype.obj
 0004:00001848       $pdata$iswctype            0000000180034848     libucrt:iswctype.obj
 0004:00001854       $pdata$_isctype_l          0000000180034854     libucrt:isctype.obj
 0004:00001860       $pdata$__acrt_free_locale  0000000180034860     libucrt:locale_refcounting.obj
 0004:0000186c       $pdata$__acrt_locale_free_lc_time_if_unreferenced 000000018003486c     libucrt:locale_refcounting.obj
 0004:00001878       $pdata$__acrt_release_locale_ref 0000000180034878     libucrt:locale_refcounting.obj
 0004:00001884       $pdata$__acrt_update_thread_locale_data 0000000180034884     libucrt:locale_refcounting.obj
 0004:00001890       $pdata$_updatetlocinfoEx_nolock 0000000180034890     libucrt:locale_refcounting.obj
 0004:0000189c       $pdata$_fcloseall          000000018003489c     libucrt:closeall.obj
 0004:000018a8       $pdata$__acrt_stdio_free_buffer_nolock 00000001800348a8     libucrt:_freebuf.obj
 0004:000018b4       $pdata$??$?RV<lambda_b521505b218e5242e90febf6bfebc422>@@AEAV<lambda_6978c1fb23f02e42e1d9e99668cc68aa>@@V<lambda_314360699dd331753a4119843814e9a7>@@@?$__crt_seh_guarded_call@H@@QEAAH$$QEAV<lambda_b521505b218e5242e90febf6bfebc422>@@AEAV<lambda_6978c1fb23f02e42e1d9e99668cc68aa>@@$$QEAV<lambda_314360699dd331753a4119843814e9a7>@@@Z 00000001800348b4     libucrt:commit.obj
 0004:000018c0       $pdata$_commit             00000001800348c0     libucrt:commit.obj
 0004:000018cc       $pdata$?write_double_translated_ansi_nolock@@YA?AUwrite_result@?A0x9c548279@@HQEBDI@Z 00000001800348cc     libucrt:write.obj
 0004:000018d8       $pdata$?write_text_ansi_nolock@@YA?AUwrite_result@?A0x9c548279@@HQEBDI@Z 00000001800348d8     libucrt:write.obj
 0004:000018e4       $pdata$?write_text_utf16le_nolock@@YA?AUwrite_result@?A0x9c548279@@HQEBDI@Z 00000001800348e4     libucrt:write.obj
 0004:000018f0       $pdata$?write_text_utf8_nolock@@YA?AUwrite_result@?A0x9c548279@@HQEBDI@Z 00000001800348f0     libucrt:write.obj
 0004:000018fc       $pdata$_write              00000001800348fc     libucrt:write.obj
 0004:00001908       $pdata$_write_nolock       0000000180034908     libucrt:write.obj
 0004:00001914       $pdata$_isleadbyte_l       0000000180034914     libucrt:_wctype.obj
 0004:00001920       $pdata$?__acrt_LCMapStringA_stat@@YAHPEAU__crt_locale_pointers@@PEB_WKPEBDHPEADHHH@Z 0000000180034920     libucrt:lcmapstringa.obj
 0004:0000192c       $pdata$__acrt_LCMapStringA 000000018003492c     libucrt:lcmapstringa.obj
 0004:00001938       $pdata$__acrt_fp_strflt_to_string 0000000180034938     libucrt:_fptostr.obj
 0004:00001944       $pdata$?divide@__crt_strtox@@YA_KAEAUbig_integer@1@AEBU21@@Z 0000000180034944     libucrt:cfout.obj
 0004:00001950       $pdata$5$?divide@__crt_strtox@@YA_KAEAUbig_integer@1@AEBU21@@Z 0000000180034950     libucrt:cfout.obj
 0004:0000195c       $pdata$6$?divide@__crt_strtox@@YA_KAEAUbig_integer@1@AEBU21@@Z 000000018003495c     libucrt:cfout.obj
 0004:00001968       $pdata$__acrt_fltout       0000000180034968     libucrt:cfout.obj
 0004:00001974       $pdata$memcpy_s            0000000180034974     libucrt:cfout.obj
 0004:00001980       $pdata$??$write_buffer_nolock@D@@YA_NDV__crt_stdio_stream@@@Z 0000000180034980     libucrt:_flsbuf.obj
 0004:0000198c       $pdata$??$write_buffer_nolock@_W@@YA_N_WV__crt_stdio_stream@@@Z 000000018003498c     libucrt:_flsbuf.obj
 0004:00001998       $pdata$__acrt_stdio_flush_and_write_narrow_nolock 0000000180034998     libucrt:_flsbuf.obj
 0004:000019a4       $pdata$__acrt_stdio_flush_and_write_wide_nolock 00000001800349a4     libucrt:_flsbuf.obj
 0004:000019b0       $pdata$_isatty             00000001800349b0     libucrt:isatty.obj
 0004:000019bc       $pdata$__acrt_locale_free_monetary 00000001800349bc     libucrt:initmon.obj
 0004:000019c8       $pdata$__acrt_locale_free_numeric 00000001800349c8     libucrt:initnum.obj
 0004:000019d4       $pdata$?free_crt_array_internal@@YAXQEAPEBX_K@Z 00000001800349d4     libucrt:inittime.obj
 0004:000019e0       $pdata$__acrt_locale_free_time 00000001800349e0     libucrt:inittime.obj
 0004:000019ec       $pdata$__acrt_GetStringTypeA 00000001800349ec     libucrt:getstringtypea.obj
 0004:000019f8       $pdata$__acrt_lowio_create_handle_array 00000001800349f8     libucrt:osfinfo.obj
 0004:00001a04       $pdata$__acrt_lowio_destroy_handle_array 0000000180034a04     libucrt:osfinfo.obj
 0004:00001a10       $pdata$__acrt_lowio_ensure_fh_exists 0000000180034a10     libucrt:osfinfo.obj
 0004:00001a1c       $pdata$_free_osfhnd        0000000180034a1c     libucrt:osfinfo.obj
 0004:00001a28       $pdata$_get_osfhandle      0000000180034a28     libucrt:osfinfo.obj
 0004:00001a34       $pdata$?GetTableIndexFromLocaleName@@YAHPEB_W@Z 0000000180034a34     libucrt:lcidtoname_downlevel.obj
 0004:00001a40       $pdata$__acrt_DownlevelLocaleNameToLCID 0000000180034a40     libucrt:lcidtoname_downlevel.obj
 0004:00001a4c       $pdata$?shortsort@@YAXPEAD0_KP6AHPEBX2@Z@Z 0000000180034a4c     libucrt:qsort.obj
 0004:00001a58       $pdata$2$?shortsort@@YAXPEAD0_KP6AHPEBX2@Z@Z 0000000180034a58     libucrt:qsort.obj
 0004:00001a64       $pdata$3$?shortsort@@YAXPEAD0_KP6AHPEBX2@Z@Z 0000000180034a64     libucrt:qsort.obj
 0004:00001a70       $pdata$qsort               0000000180034a70     libucrt:qsort.obj
 0004:00001a7c       $pdata$4$qsort             0000000180034a7c     libucrt:qsort.obj
 0004:00001a88       $pdata$5$qsort             0000000180034a88     libucrt:qsort.obj
 0004:00001a94       $pdata$strncpy_s           0000000180034a94     libucrt:strncpy_s.obj
 0004:00001aa0       $pdata$strpbrk             0000000180034aa0     libucrt:strpbrk.obj
 0004:00001aac       $pdata$_mbsdec_l           0000000180034aac     libucrt:mbsdec.obj
 0004:00001ab8       $pdata$?initialize_multibyte@@YAHXZ 0000000180034ab8     libucrt:multibyte_initializer.obj
 0004:00001ac4       $pdata$_msize              0000000180034ac4     libucrt:msize.obj
 0004:00001ad0       $pdata$_realloc_base       0000000180034ad0     libucrt:realloc_base.obj
 0004:00001adc       $pdata$_fclose_nolock      0000000180034adc     libucrt:fclose.obj
 0004:00001ae8       $pdata$fclose              0000000180034ae8     libucrt:fclose.obj
 0004:00001af4       $pdata$??$common_lseek@_J@@YA_JH_JH@Z 0000000180034af4     libucrt:lseek.obj
 0004:00001b00       $pdata$??$common_lseek_nolock@_J@@YA_JH_JH@Z 0000000180034b00     libucrt:lseek.obj
 0004:00001b0c       $pdata$_putwch_nolock      0000000180034b0c     libucrt:putwch.obj
 0004:00001b18       $pdata$fegetenv            0000000180034b18     libucrt:fegetenv.obj
 0004:00001b24       $pdata$fesetenv            0000000180034b24     libucrt:fesetenv.obj
 0004:00001b30       $pdata$feholdexcept        0000000180034b30     libucrt:feholdexcept.obj
 0004:00001b48       $pdata$__acrt_stdio_allocate_buffer_nolock 0000000180034b48     libucrt:_getbuf.obj
 0004:00001b54       $pdata$??$?RV<lambda_bfedae4ebbf01fab1bb6dcc6a9e276e0>@@AEAV<lambda_2fe9b910cf3cbf4a0ab98a02ba45b3ec>@@V<lambda_237c231691f317818eb88cc1d5d642d6>@@@?$__crt_seh_guarded_call@H@@QEAAH$$QEAV<lambda_bfedae4ebbf01fab1bb6dcc6a9e276e0>@@AEAV<lambda_2fe9b910cf3cbf4a0ab98a02ba45b3ec>@@$$QEAV<lambda_237c231691f317818eb88cc1d5d642d6>@@@Z 0000000180034b54     libucrt:close.obj
 0004:00001b60       $pdata$_close              0000000180034b60     libucrt:close.obj
 0004:00001b6c       $pdata$_close_nolock       0000000180034b6c     libucrt:close.obj
 0004:00001b78       $pdata$__dcrt_lowio_initialize_console_output 0000000180034b78     libucrt:initcon.obj
 0004:00001b84       $pdata$__dcrt_terminate_console_output 0000000180034b84     libucrt:initcon.obj
 0004:00001b90       $pdata$_getfpcontrolword   0000000180034b90     libucrt:_fenvutils.obj
 0004:00001b9c       $pdata$_getfpstatusword    0000000180034b9c     libucrt:_fenvutils.obj
 0004:00001ba8       $pdata$_setfpstatusword    0000000180034ba8     libucrt:_fenvutils.obj
 0004:00001bb4       $pdata$_clearfp            0000000180034bb4     libucrt:ieee.obj
 0004:00001bc0       $pdata$common_control87    0000000180034bc0     libucrt:ieee.obj
 0004:00001bcc       $pdata$_call_matherr       0000000180034bcc     libucrt:libm_error.obj
 0004:00001bd8       $pdata$_exception_enabled  0000000180034bd8     libucrt:libm_error.obj
 0004:00001be4       $pdata$_handle_error       0000000180034be4     libucrt:libm_error.obj
 0004:00001bf0       $pdata$__acrt_initialize_fma3 0000000180034bf0     libucrt:fma3_available.obj
 0004:00001bfc       $pdata$_log10_special      0000000180034bfc     libucrt:log_special.obj
 0004:00001c08       $pdata$_log_special_common 0000000180034c08     libucrt:log_special.obj
 0004:00001c20       $pdata$_raise_exc          0000000180034c20     libucrt:fpexcept.obj
 0004:00001c2c       $pdata$_raise_exc_ex       0000000180034c2c     libucrt:fpexcept.obj
 0004:00001c38       $pdata$_set_errno_from_matherr 0000000180034c38     libucrt:fpexcept.obj
 0004:00001c44       $pdata$_clrfp              0000000180034c44     libucrt:fpctrl.obj
 0004:00001c50       $pdata$_ctrlfp             0000000180034c50     libucrt:fpctrl.obj
 0004:00001c5c       $pdata$_set_statfp         0000000180034c5c     libucrt:fpctrl.obj
 0004:00001c68       $pdata$_statfp             0000000180034c68     libucrt:fpctrl.obj
 0004:00001c74       $pdata$?DloadAcquireSectionWriteAccess@@YAXXZ 0000000180034c74     DelayImp:delayhlp.obj
 0004:00001c80       $pdata$?DloadGetSRWLockFunctionPointers@@YAEXZ 0000000180034c80     DelayImp:delayhlp.obj
 0004:00001c8c       $pdata$?DloadMakePermanentImageCommit@@YAXPEAX_K@Z 0000000180034c8c     DelayImp:delayhlp.obj
 0004:00001c98       $pdata$?DloadObtainSection@@YAPEAXPEAK0@Z 0000000180034c98     DelayImp:delayhlp.obj
 0004:00001ca4       $pdata$?DloadProtectSection@@YAXKPEAK@Z 0000000180034ca4     DelayImp:delayhlp.obj
 0004:00001cb0       $pdata$?DloadReleaseSectionWriteAccess@@YAXXZ 0000000180034cb0     DelayImp:delayhlp.obj
 0004:00001cbc       $pdata$__delayLoadHelper2  0000000180034cbc     DelayImp:delayhlp.obj
 0004:00001cc8       $pdata$_IsNonwritableInCurrentImage 0000000180034cc8     LIBCMT:pesect.obj
 0004:00001cd4       $pdata$__GSHandlerCheck    0000000180034cd4     LIBCMT:_gshandler_.obj
 0004:00001ce0       $pdata$__GSHandlerCheckCommon 0000000180034ce0     LIBCMT:_gshandler_.obj
 0004:00001cec       $pdata$strrchr             0000000180034cec     libvcruntime:strrchr.obj
 0004:00001d04       $pdata$__GSHandlerCheck_EH 0000000180034d04     LIBCMT:gshandlereh.obj
 0004:00001d1c       $pdata$?dtor$0@?0??Utf8Value@String@Napi@@QEBA?AV?$basic_string@DU?$char_traits@D@std@@V?$allocator@D@2@@std@@XZ@4HA 0000000180034d1c     ffi.obj
 0004:00001d28       $pdata$?catch$1@?0??Message@Error@Napi@@QEBAAEBV?$basic_string@DU?$char_traits@D@std@@V?$allocator@D@2@@std@@XZ@4HA 0000000180034d28     ffi.obj
 0004:00001d34       $pdata$?catch$0@?0??AsyncFFICall@FFI@1@KAXPEAUuv_work_s@@@Z@4HA 0000000180034d34     ffi.obj
 0004:00001d40       $pdata$?catch$0@?0???$WrapCallback@V<lambda_8c7377a71108815b2eee34f099f4cb99>@@@details@Napi@@YAPEAUnapi_value__@@V<lambda_8c7377a71108815b2eee34f099f4cb99>@@@Z@4HA 0000000180034d40     ffi.obj
 0004:00001d4c       $pdata$?catch$2@?0???$WrapCallback@V<lambda_03ec0e3e2a4187754bc7c97d0c48b30a>@@@details@Napi@@YAPEAUnapi_value__@@V<lambda_03ec0e3e2a4187754bc7c97d0c48b30a>@@@Z@4HA 0000000180034d4c     ffi.obj
 0004:00001d58       $pdata$?catch$1@?0???$WrapCallback@V<lambda_4b130013be4a466940e6fe08d32cda83>@@@details@Napi@@YAPEAUnapi_value__@@V<lambda_4b130013be4a466940e6fe08d32cda83>@@@Z@4HA 0000000180034d58     ffi.obj
 0004:00001d64       $pdata$?catch$3@?0??DispatchToV8@CallbackInfo@FFI@@KAXPEAUcallback_info@2@PEAXPEAPEAX_N@Z@4HA 0000000180034d64     callback_info.obj
 0004:00001d70       $pdata$?dtor$0@?0??Callback@CallbackInfo@FFI@@KA?AVValue@Napi@@AEBV14@@Z@4HA 0000000180034d70     callback_info.obj
 0004:00001d7c       $pdata$?dtor$0@?0??Initialize@CallbackInfo@FFI@@SA?AVFunction@Napi@@VEnv@4@@Z@4HA 0000000180034d7c     callback_info.obj
 0004:00001d88       $pdata$__scrt_is_nonwritable_in_current_image$filt$0 0000000180034d88     LIBCMT:utility.obj
 0004:00001d94       $pdata$?fin$0@?0??dllmain_crt_process_attach@@YAHQEAUHINSTANCE__@@QEAX@Z@4HA 0000000180034d94     LIBCMT:dll_dllmain.obj
 0004:00001da0       $pdata$?fin$0@?0??dllmain_crt_process_detach@@YAH_N@Z@4HA 0000000180034da0     LIBCMT:dll_dllmain.obj
 0004:00001dac       $pdata$?filt$0@?0??dllmain_dispatch@@YAHQEAUHINSTANCE__@@KQEAX@Z@4HA 0000000180034dac     LIBCMT:dll_dllmain.obj
 0004:00001db8       $pdata$__CxxCallCatchBlock$filt$0 0000000180034db8     libvcruntime:frame.obj
 0004:00001dc4       $pdata$__CxxCallCatchBlock$fin$1 0000000180034dc4     libvcruntime:frame.obj
 0004:00001dd0       $pdata$__DestructExceptionObject$filt$0 0000000180034dd0     libvcruntime:frame.obj
 0004:00001ddc       $pdata$__FrameUnwindToState$filt$0 0000000180034ddc     libvcruntime:frame.obj
 0004:00001de8       $pdata$__FrameUnwindToState$fin$1 0000000180034de8     libvcruntime:frame.obj
 0004:00001df4       $pdata$_CallSETranslator$filt$0 0000000180034df4     libvcruntime:trnsctrl.obj
 0004:00001e00       $pdata$_query_new_handler$fin$0 0000000180034e00     libucrt:new_handler.obj
 0004:00001e0c       $pdata$?filt$0@?0??common_exit@@YAXHW4_crt_exit_cleanup_mode@@W4_crt_exit_return_mode@@@Z@4HA 0000000180034e0c     libucrt:exit.obj
 0004:00001e18       $pdata$?fin$1@?0??common_exit@@YAXHW4_crt_exit_cleanup_mode@@W4_crt_exit_return_mode@@@Z@4HA 0000000180034e18     libucrt:exit.obj
 0004:00001e24       $pdata$?fin$0@?0???$?RV<lambda_e24bbb7b643b32fcea6fa61b31d4c984>@@AEAV<lambda_275893d493268fdec8709772e3fcec0e>@@V<lambda_9d71df4d7cf3f480f8d633942495c3b0>@@@?$__crt_seh_guarded_call@H@@QEAAH$$QEAV<lambda_e24bbb7b643b32fcea6fa61b31d4c984>@@AEAV<lambda_275893d493268fdec8709772e3fcec0e>@@$$QEAV<lambda_9d71df4d7cf3f480f8d633942495c3b0>@@@Z@4HA 0000000180034e24     libucrt:onexit.obj
 0004:00001e30       $pdata$?fin$0@?0???$?RV<lambda_fb3a7dec4e47f37f22dae91bb15c9095>@@AEAV<lambda_698284760c8add0bfb0756c19673e34b>@@V<lambda_dfb8eca1e75fef3034a8fb18dd509707>@@@?$__crt_seh_guarded_call@X@@QEAAX$$QEAV<lambda_fb3a7dec4e47f37f22dae91bb15c9095>@@AEAV<lambda_698284760c8add0bfb0756c19673e34b>@@$$QEAV<lambda_dfb8eca1e75fef3034a8fb18dd509707>@@@Z@4HA 0000000180034e30     libucrt:per_thread_data.obj
 0004:00001e30       $pdata$?fin$0@?0???$?RV<lambda_5e887d1dcbef67a5eb4283622ba103bf>@@AEAV<lambda_4466841279450cc726390878d4a41900>@@V<lambda_341c25c0346d94847f1f3c463c57e077>@@@?$__crt_seh_guarded_call@X@@QEAAX$$QEAV<lambda_5e887d1dcbef67a5eb4283622ba103bf>@@AEAV<lambda_4466841279450cc726390878d4a41900>@@$$QEAV<lambda_341c25c0346d94847f1f3c463c57e077>@@@Z@4HA 0000000180034e30     libucrt:per_thread_data.obj
 0004:00001e30       $pdata$?fin$0@?0???$?RV<lambda_46352004c1216016012b18bd6f87e700>@@AEAV<lambda_3bd07e1a1191394380780325891bf33f>@@V<lambda_334532d3f185bcaa59b5be82d7d22bff>@@@?$__crt_seh_guarded_call@X@@QEAAX$$QEAV<lambda_46352004c1216016012b18bd6f87e700>@@AEAV<lambda_3bd07e1a1191394380780325891bf33f>@@$$QEAV<lambda_334532d3f185bcaa59b5be82d7d22bff>@@@Z@4HA 0000000180034e30     libucrt:per_thread_data.obj
 0004:00001e30       $pdata$?fin$0@?0???$?RV<lambda_72d1df2b273a38828b1ce30cbf4cdab5>@@AEAV<lambda_876a65b173b8412d3a47c70a915b0cf4>@@V<lambda_41932305e351933ebe8f8be3ed8bb5dc>@@@?$__crt_seh_guarded_call@X@@QEAAX$$QEAV<lambda_72d1df2b273a38828b1ce30cbf4cdab5>@@AEAV<lambda_876a65b173b8412d3a47c70a915b0cf4>@@$$QEAV<lambda_41932305e351933ebe8f8be3ed8bb5dc>@@@Z@4HA 0000000180034e30     libucrt:per_thread_data.obj
 0004:00001e30       $pdata$?fin$0@?0???$?RV<lambda_99476a1ad63dd22509b5d3e65b0ffc95>@@AEAV<lambda_ad1ced32f4ac17aa236e5ef05d6b3b7c>@@V<lambda_f7424dd8d45958661754dc4f2697e9c3>@@@?$__crt_seh_guarded_call@X@@QEAAX$$QEAV<lambda_99476a1ad63dd22509b5d3e65b0ffc95>@@AEAV<lambda_ad1ced32f4ac17aa236e5ef05d6b3b7c>@@$$QEAV<lambda_f7424dd8d45958661754dc4f2697e9c3>@@@Z@4HA 0000000180034e30     libucrt:mbctype.obj
 0004:00001e30       $pdata$?fin$0@?0???$?RV<lambda_c36588078e9f5dfd39652860aa6b3aaf>@@AEAV<lambda_ec61778202f4f5fc7e7711acc23c3bca>@@V<lambda_dc9d2797ccde5d239b4a0efae8ebd7db>@@@?$__crt_seh_guarded_call@P6AXH@Z@@QEAAP6AXH@Z$$QEAV<lambda_c36588078e9f5dfd39652860aa6b3aaf>@@AEAV<lambda_ec61778202f4f5fc7e7711acc23c3bca>@@$$QEAV<lambda_dc9d2797ccde5d239b4a0efae8ebd7db>@@@Z@4HA 0000000180034e30     libucrt:signal.obj
 0004:00001e30       $pdata$?fin$0@?0???$?RV<lambda_b8c45f8f788dd370798f47cfe8ac3a86>@@AEAV<lambda_4e60a939b0d047cfe11ddc22648dfba9>@@V<lambda_332c3edc96d0294ec56c57d38c1cdfd5>@@@?$__crt_seh_guarded_call@H@@QEAAH$$QEAV<lambda_b8c45f8f788dd370798f47cfe8ac3a86>@@AEAV<lambda_4e60a939b0d047cfe11ddc22648dfba9>@@$$QEAV<lambda_332c3edc96d0294ec56c57d38c1cdfd5>@@@Z@4HA 0000000180034e30     libucrt:onexit.obj
 0004:00001e3c       $pdata$common_flush_all$fin$0 0000000180034e3c     libucrt:fflush.obj
 0004:00001e48       $pdata$common_flush_all$fin$1 0000000180034e48     libucrt:fflush.obj
 0004:00001e54       $pdata$fclose$fin$0        0000000180034e54     libucrt:fclose.obj
 0004:00001e54       $pdata$fflush$fin$0        0000000180034e54     libucrt:fflush.obj
 0004:00001e60       $pdata$?fin$0@?0???$?RV<lambda_7a5ef57ff966f610505f1d28a3d40618>@@AEAV<lambda_b721fa326cdb32351d23dfa67958c160>@@V<lambda_5e0fb27672408a07956fe59e48ccb2aa>@@@?$__crt_seh_guarded_call@H@@QEAAH$$QEAV<lambda_7a5ef57ff966f610505f1d28a3d40618>@@AEAV<lambda_b721fa326cdb32351d23dfa67958c160>@@$$QEAV<lambda_5e0fb27672408a07956fe59e48ccb2aa>@@@Z@4HA 0000000180034e60     libucrt:setvbuf.obj
 0004:00001e60       $pdata$?fin$0@?0???$?RV<lambda_7b91131dde12e1c3dfc74ff76b3f2eac>@@AEAV<lambda_dd75445284c072d0bd3768540cc698fa>@@V<lambda_16bc4ecb55b4718497c16bceaea2ceaf>@@@?$__crt_seh_guarded_call@H@@QEAAH$$QEAV<lambda_7b91131dde12e1c3dfc74ff76b3f2eac>@@AEAV<lambda_dd75445284c072d0bd3768540cc698fa>@@$$QEAV<lambda_16bc4ecb55b4718497c16bceaea2ceaf>@@@Z@4HA 0000000180034e60     libucrt:output.obj
 0004:00001e6c       $pdata$raise$fin$0         0000000180034e6c     libucrt:signal.obj
 0004:00001e78       $pdata$__acrt_update_thread_multibyte_data$fin$0 0000000180034e78     libucrt:mbctype.obj
 0004:00001e84       $pdata$__acrt_uninitialize_locale$fin$0 0000000180034e84     libucrt:wsetlocale.obj
 0004:00001e84       $pdata$__acrt_update_thread_locale_data$fin$0 0000000180034e84     libucrt:locale_refcounting.obj
 0004:00001e90       $pdata$_fcloseall$fin$0    0000000180034e90     libucrt:closeall.obj
 0004:00001e9c       $pdata$_write$fin$0        0000000180034e9c     libucrt:write.obj
 0004:00001e9c       $pdata$?fin$0@?0???$common_lseek@_J@@YA_JH_JH@Z@4HA 0000000180034e9c     libucrt:lseek.obj
 0004:00001ea8       $pdata$__acrt_lowio_ensure_fh_exists$fin$0 0000000180034ea8     libucrt:osfinfo.obj
 0004:00001ea8       $pdata$__acrt_initialize_lowio$fin$0 0000000180034ea8     libucrt:ioinit.obj
 0004:00001eb4       $pdata$?fin$0@?0???$?RV<lambda_bfedae4ebbf01fab1bb6dcc6a9e276e0>@@AEAV<lambda_2fe9b910cf3cbf4a0ab98a02ba45b3ec>@@V<lambda_237c231691f317818eb88cc1d5d642d6>@@@?$__crt_seh_guarded_call@H@@QEAAH$$QEAV<lambda_bfedae4ebbf01fab1bb6dcc6a9e276e0>@@AEAV<lambda_2fe9b910cf3cbf4a0ab98a02ba45b3ec>@@$$QEAV<lambda_237c231691f317818eb88cc1d5d642d6>@@@Z@4HA 0000000180034eb4     libucrt:close.obj
 0004:00001eb4       $pdata$?fin$0@?0???$?RV<lambda_b521505b218e5242e90febf6bfebc422>@@AEAV<lambda_6978c1fb23f02e42e1d9e99668cc68aa>@@V<lambda_314360699dd331753a4119843814e9a7>@@@?$__crt_seh_guarded_call@H@@QEAAH$$QEAV<lambda_b521505b218e5242e90febf6bfebc422>@@AEAV<lambda_6978c1fb23f02e42e1d9e99668cc68aa>@@$$QEAV<lambda_314360699dd331753a4119843814e9a7>@@@Z@4HA 0000000180034eb4     libucrt:commit.obj
 0004:00001ec0       $pdata$_ctrlfp$filt$0      0000000180034ec0     libucrt:fpctrl.obj
 0004:00001ec0       $pdata$common_control87$filt$0 0000000180034ec0     libucrt:ieee.obj
 0004:00001ecc       $pdata$_IsNonwritableInCurrentImage$filt$0 0000000180034ecc     LIBCMT:pesect.obj
 0004:00001ed8       $pdata$??__F?per_environment@CallbackInfo@FFI@@0V?$unordered_map@PEAUnapi_env__@@V?$unique_ptr@UPerEnvironmentData@FFI@@U?$default_delete@UPerEnvironmentData@FFI@@@std@@@std@@U?$hash@PEAUnapi_env__@@@3@U?$equal_to@PEAUnapi_env__@@@3@V?$allocator@U?$pair@QEAUnapi_env__@@V?$unique_ptr@UPerEnvironmentData@FFI@@U?$default_delete@UPerEnvironmentData@FFI@@@std@@@std@@@std@@@3@@std@@A@@YAXXZ 0000000180034ed8     callback_info.obj
 0005:00000000       __guard_fids__             0000000180035000     libucrt:initialization.obj
 0005:00000060       __guard_fids___acrt_initialize_ptd 0000000180035060     libucrt:per_thread_data.obj
 0005:00000064       __guard_fids___acrt_show_wide_message_box 0000000180035064     libucrt:crtmbox.obj
 0005:00000068       __guard_fids_??$expand_argument_wildcards@D@@YAHQEAD0AEAV?$argument_list@D@?A0xca0879c4@@@Z 0000000180035068     libucrt:argv_wildcards.obj
 0005:0000006c       __guard_fids__             000000018003506c     libucrt:stdio_initializer.obj
 0005:00000070       __guard_fids__             0000000180035070     libucrt:stdio_initializer.obj
 0005:00000074       __guard_fids__             0000000180035074     libucrt:locale_initializer.obj
 0005:00000078       __guard_fids__             0000000180035078     libucrt:multibyte_initializer.obj
 0005:0000007c       __guard_fids__             000000018003507c     libucrt:console_output_initializer.obj
 0005:00000080       __guard_fids__             0000000180035080     libucrt:fma3_initializer.obj
 0005:00000084       __guard_fids__             0000000180035084     libcpmt:xthrow.obj
 0005:0000008c       __guard_fids__             000000018003508c     libcpmt:xthrow.obj
 0005:00000094       __guard_fids__             0000000180035094     libcpmt:xthrow.obj
 0005:0000009c       __guard_fids__             000000018003509c     libcpmt:xthrow.obj
 0005:000000a4       __guard_fids__             00000001800350a4     libcpmt:xthrow.obj
 0005:000000ac       __guard_fids__             00000001800350ac     LIBCMT:std_type_info_static.obj
 0005:000000b0       __guard_fids_?dllmain_crt_process_attach@@YAHQEAUHINSTANCE__@@QEAX@Z 00000001800350b0     LIBCMT:dll_dllmain.obj
 0005:000000b8       __guard_fids_?dllmain_dispatch@@YAHQEAUHINSTANCE__@@KQEAX@Z 00000001800350b8     LIBCMT:dll_dllmain.obj
 0005:000000bc       __guard_fids__             00000001800350bc     LIBCMT:throw_bad_alloc.obj
 0005:000000c4       __guard_fids__             00000001800350c4     LIBCMT:guard_support.obj
 0005:000000c8       __guard_fids__             00000001800350c8     libvcruntime:frame.obj
 0005:000000cc       __guard_fids__             00000001800350cc     libvcruntime:frame.obj
 0005:000000d4       __guard_fids___vcrt_initialize_ptd 00000001800350d4     libvcruntime:per_thread_data.obj
 0005:000000d8       __guard_fids__UnwindNestedFrames 00000001800350d8     libvcruntime:trnsctrl.obj
 0006:00000060       $R000000                   0000000180036060     * linker generated manifest res *

 Exports

  ordinal    name

        1    _register_ffi_bindings_
